(dp0
S'unimaginative'
p1
(dp2
S'neighbors'
p3
c__builtin__
set
p4
((lp5
tp6
Rp7
sS'visited'
p8
I00
sS'word'
p9
g1
ssS'incompetences'
p10
(dp11
g3
g4
((lp12
tp13
Rp14
sg8
I00
sg9
g10
ssS'encumberances'
p15
(dp16
g3
g4
((lp17
tp18
Rp19
sg8
I00
sg9
g15
ssS'comparatively'
p20
(dp21
g3
g4
((lp22
tp23
Rp24
sg8
I00
sg9
g20
ssS'coordinations'
p25
(dp26
g3
g4
((lp27
tp28
Rp29
sg8
I00
sg9
g25
ssS'countereffect'
p30
(dp31
g3
g4
((lp32
tp33
Rp34
sg8
I00
sg9
g30
ssS'controversial'
p35
(dp36
g3
g4
((lp37
tp38
Rp39
sg8
I00
sg9
g35
ssS'relationships'
p40
(dp41
g3
g4
((lp42
tp43
Rp44
sg8
I00
sg9
g40
ssS'preinoculated'
p45
(dp46
g3
g4
((lp47
S'preinoculates'
p48
atp49
Rp50
sg8
I00
sg9
g45
ssS'physiological'
p51
(dp52
g3
g4
((lp53
tp54
Rp55
sg8
I00
sg9
g51
ssS'orthographies'
p56
(dp57
g3
g4
((lp58
tp59
Rp60
sg8
I00
sg9
g56
ssS'subcomponents'
p61
(dp62
g3
g4
((lp63
tp64
Rp65
sg8
I00
sg9
g61
ssg48
(dp66
g3
g4
((lp67
g45
atp68
Rp69
sg8
I00
sg9
g48
ssS'resynthesizes'
p70
(dp71
g3
g4
((lp72
S'resynthesized'
p73
atp74
Rp75
sg8
I00
sg9
g70
ssS'intermingling'
p76
(dp77
g3
g4
((lp78
tp79
Rp80
sg8
I00
sg9
g76
ssS'housecleaning'
p81
(dp82
g3
g4
((lp83
tp84
Rp85
sg8
I00
sg9
g81
ssS'trigonometric'
p86
(dp87
g3
g4
((lp88
tp89
Rp90
sg8
I00
sg9
g86
ssS'appropriation'
p91
(dp92
g3
g4
((lp93
tp94
Rp95
sg8
I00
sg9
g91
ssS'gratification'
p96
(dp97
g3
g4
((lp98
tp99
Rp100
sg8
I00
sg9
g96
ssS'malfunctioned'
p101
(dp102
g3
g4
((lp103
tp104
Rp105
sg8
I00
sg9
g101
ssS'uncoordinated'
p106
(dp107
g3
g4
((lp108
tp109
Rp110
sg8
I00
sg9
g106
ssS'recollections'
p111
(dp112
g3
g4
((lp113
tp114
Rp115
sg8
I00
sg9
g111
ssS'nondeliveries'
p116
(dp117
g3
g4
((lp118
tp119
Rp120
sg8
I00
sg9
g116
ssS'cannibalizing'
p121
(dp122
g3
g4
((lp123
tp124
Rp125
sg8
I00
sg9
g121
ssS'steadfastness'
p126
(dp127
g3
g4
((lp128
tp129
Rp130
sg8
I00
sg9
g126
ssS'approximation'
p131
(dp132
g3
g4
((lp133
tp134
Rp135
sg8
I00
sg9
g131
ssS'hellgrammites'
p136
(dp137
g3
g4
((lp138
tp139
Rp140
sg8
I00
sg9
g136
ssS'nomenclatures'
p141
(dp142
g3
g4
((lp143
tp144
Rp145
sg8
I00
sg9
g141
ssS'intravenously'
p146
(dp147
g3
g4
((lp148
tp149
Rp150
sg8
I00
sg9
g146
ssS'worthlessness'
p151
(dp152
g3
g4
((lp153
tp154
Rp155
sg8
I00
sg9
g151
ssS'hypercautious'
p156
(dp157
g3
g4
((lp158
tp159
Rp160
sg8
I00
sg9
g156
ssS'redistributed'
p161
(dp162
g3
g4
((lp163
S'redistributes'
p164
atp165
Rp166
sg8
I00
sg9
g161
ssS'ignominiously'
p167
(dp168
g3
g4
((lp169
tp170
Rp171
sg8
I00
sg9
g167
ssS'specification'
p172
(dp173
g3
g4
((lp174
tp175
Rp176
sg8
I00
sg9
g172
ssS'commemorating'
p177
(dp178
g3
g4
((lp179
tp180
Rp181
sg8
I00
sg9
g177
ssS'revolutionize'
p182
(dp183
g3
g4
((lp184
tp185
Rp186
sg8
I00
sg9
g182
ssS'profitability'
p187
(dp188
g3
g4
((lp189
tp190
Rp191
sg8
I00
sg9
g187
ssS'supersalesmen'
p192
(dp193
g3
g4
((lp194
S'supersalesman'
p195
atp196
Rp197
sg8
I00
sg9
g192
ssg164
(dp198
g3
g4
((lp199
g161
atp200
Rp201
sg8
I00
sg9
g164
ssS'hallucinating'
p202
(dp203
g3
g4
((lp204
tp205
Rp206
sg8
I00
sg9
g202
ssS'carcinomatous'
p207
(dp208
g3
g4
((lp209
tp210
Rp211
sg8
I00
sg9
g207
ssS'electricities'
p212
(dp213
g3
g4
((lp214
tp215
Rp216
sg8
I00
sg9
g212
ssS'counteroffers'
p217
(dp218
g3
g4
((lp219
tp220
Rp221
sg8
I00
sg9
g217
ssS'canonizations'
p222
(dp223
g3
g4
((lp224
tp225
Rp226
sg8
I00
sg9
g222
ssS'anticlimactic'
p227
(dp228
g3
g4
((lp229
tp230
Rp231
sg8
I00
sg9
g227
ssS'astringencies'
p232
(dp233
g3
g4
((lp234
tp235
Rp236
sg8
I00
sg9
g232
ssS'exasperations'
p237
(dp238
g3
g4
((lp239
tp240
Rp241
sg8
I00
sg9
g237
ssS'inefficiently'
p242
(dp243
g3
g4
((lp244
tp245
Rp246
sg8
I00
sg9
g242
ssS'tranquillizer'
p247
(dp248
g3
g4
((lp249
S'tranquillized'
p250
aS'tranquillizes'
p251
atp252
Rp253
sg8
I00
sg9
g247
ssS'vulnerability'
p254
(dp255
g3
g4
((lp256
tp257
Rp258
sg8
I00
sg9
g254
ssg73
(dp259
g3
g4
((lp260
g70
atp261
Rp262
sg8
I00
sg9
g73
ssS'superstitious'
p263
(dp264
g3
g4
((lp265
S'superstitions'
p266
atp267
Rp268
sg8
I00
sg9
g263
ssS'tranquilizers'
p269
(dp270
g3
g4
((lp271
tp272
Rp273
sg8
I00
sg9
g269
ssS'promiscuities'
p274
(dp275
g3
g4
((lp276
tp277
Rp278
sg8
I00
sg9
g274
ssS'appropriately'
p279
(dp280
g3
g4
((lp281
tp282
Rp283
sg8
I00
sg9
g279
ssS'overpatriotic'
p284
(dp285
g3
g4
((lp286
tp287
Rp288
sg8
I00
sg9
g284
ssS'regimentation'
p289
(dp290
g3
g4
((lp291
tp292
Rp293
sg8
I00
sg9
g289
ssS'overabundance'
p294
(dp295
g3
g4
((lp296
tp297
Rp298
sg8
I00
sg9
g294
ssS'constrictions'
p299
(dp300
g3
g4
((lp301
S'constructions'
p302
atp303
Rp304
sg8
I00
sg9
g299
ssS'radionuclides'
p305
(dp306
g3
g4
((lp307
tp308
Rp309
sg8
I00
sg9
g305
ssS'presterilized'
p310
(dp311
g3
g4
((lp312
S'presterilizes'
p313
atp314
Rp315
sg8
I00
sg9
g310
ssS'gobbledygooks'
p316
(dp317
g3
g4
((lp318
S'gobbledegooks'
p319
atp320
Rp321
sg8
I00
sg9
g316
ssS'beneficiaries'
p322
(dp323
g3
g4
((lp324
tp325
Rp326
sg8
I00
sg9
g322
ssg313
(dp327
g3
g4
((lp328
g310
atp329
Rp330
sg8
I00
sg9
g313
ssS'litigiousness'
p331
(dp332
g3
g4
((lp333
tp334
Rp335
sg8
I00
sg9
g331
ssS'apportionment'
p336
(dp337
g3
g4
((lp338
tp339
Rp340
sg8
I00
sg9
g336
ssS'superficially'
p341
(dp342
g3
g4
((lp343
tp344
Rp345
sg8
I00
sg9
g341
ssS'obliquenesses'
p346
(dp347
g3
g4
((lp348
tp349
Rp350
sg8
I00
sg9
g346
ssS'abbreviations'
p351
(dp352
g3
g4
((lp353
tp354
Rp355
sg8
I00
sg9
g351
ssS'substitutions'
p356
(dp357
g3
g4
((lp358
tp359
Rp360
sg8
I00
sg9
g356
ssS'discrepancies'
p361
(dp362
g3
g4
((lp363
tp364
Rp365
sg8
I00
sg9
g361
ssS'statesmanship'
p366
(dp367
g3
g4
((lp368
tp369
Rp370
sg8
I00
sg9
g366
ssS'melodramatist'
p371
(dp372
g3
g4
((lp373
tp374
Rp375
sg8
I00
sg9
g371
ssS'laggardnesses'
p376
(dp377
g3
g4
((lp378
tp379
Rp380
sg8
I00
sg9
g376
ssS'dispossessing'
p381
(dp382
g3
g4
((lp383
tp384
Rp385
sg8
I00
sg9
g381
ssS'hairsbreadths'
p386
(dp387
g3
g4
((lp388
tp389
Rp390
sg8
I00
sg9
g386
ssS'editorialized'
p391
(dp392
g3
g4
((lp393
S'editorializes'
p394
atp395
Rp396
sg8
I00
sg9
g391
ssS'meteorologist'
p397
(dp398
g3
g4
((lp399
tp400
Rp401
sg8
I00
sg9
g397
ssS'championships'
p402
(dp403
g3
g4
((lp404
tp405
Rp406
sg8
I00
sg9
g402
ssS'memorableness'
p407
(dp408
g3
g4
((lp409
tp410
Rp411
sg8
I00
sg9
g407
ssS'saintlinesses'
p412
(dp413
g3
g4
((lp414
tp415
Rp416
sg8
I00
sg9
g412
ssg394
(dp417
g3
g4
((lp418
g391
atp419
Rp420
sg8
I00
sg9
g394
ssS'authentically'
p421
(dp422
g3
g4
((lp423
tp424
Rp425
sg8
I00
sg9
g421
ssS'immortalizing'
p426
(dp427
g3
g4
((lp428
tp429
Rp430
sg8
I00
sg9
g426
ssS'disharmonious'
p431
(dp432
g3
g4
((lp433
tp434
Rp435
sg8
I00
sg9
g431
ssS'philanthropic'
p436
(dp437
g3
g4
((lp438
tp439
Rp440
sg8
I00
sg9
g436
ssS'interposition'
p441
(dp442
g3
g4
((lp443
tp444
Rp445
sg8
I00
sg9
g441
ssS'cancellations'
p446
(dp447
g3
g4
((lp448
tp449
Rp450
sg8
I00
sg9
g446
ssS'centrifugally'
p451
(dp452
g3
g4
((lp453
tp454
Rp455
sg8
I00
sg9
g451
ssS'auscultations'
p456
(dp457
g3
g4
((lp458
tp459
Rp460
sg8
I00
sg9
g456
ssS'nationalizing'
p461
(dp462
g3
g4
((lp463
S'rationalizing'
p464
atp465
Rp466
sg8
I00
sg9
g461
ssS'overextending'
p467
(dp468
g3
g4
((lp469
tp470
Rp471
sg8
I00
sg9
g467
ssS'repercussions'
p472
(dp473
g3
g4
((lp474
tp475
Rp476
sg8
I00
sg9
g472
ssS'misanthropies'
p477
(dp478
g3
g4
((lp479
tp480
Rp481
sg8
I00
sg9
g477
ssS'relandscaping'
p482
(dp483
g3
g4
((lp484
tp485
Rp486
sg8
I00
sg9
g482
ssS'disparagement'
p487
(dp488
g3
g4
((lp489
tp490
Rp491
sg8
I00
sg9
g487
ssS'superpatriots'
p492
(dp493
g3
g4
((lp494
tp495
Rp496
sg8
I00
sg9
g492
ssS'unforgettable'
p497
(dp498
g3
g4
((lp499
S'unforgettably'
p500
atp501
Rp502
sg8
I00
sg9
g497
ssS'subclassified'
p503
(dp504
g3
g4
((lp505
S'subclassifies'
p506
atp507
Rp508
sg8
I00
sg9
g503
ssS'reprehensions'
p509
(dp510
g3
g4
((lp511
tp512
Rp513
sg8
I00
sg9
g509
ssS'mountaineered'
p514
(dp515
g3
g4
((lp516
tp517
Rp518
sg8
I00
sg9
g514
ssS'grammatically'
p519
(dp520
g3
g4
((lp521
tp522
Rp523
sg8
I00
sg9
g519
ssg506
(dp524
g3
g4
((lp525
g503
atp526
Rp527
sg8
I00
sg9
g506
ssS'translucently'
p528
(dp529
g3
g4
((lp530
tp531
Rp532
sg8
I00
sg9
g528
ssS'cardiographic'
p533
(dp534
g3
g4
((lp535
tp536
Rp537
sg8
I00
sg9
g533
ssS'overcivilized'
p538
(dp539
g3
g4
((lp540
tp541
Rp542
sg8
I00
sg9
g538
ssS'overexploited'
p543
(dp544
g3
g4
((lp545
tp546
Rp547
sg8
I00
sg9
g543
ssS'humiliatingly'
p548
(dp549
g3
g4
((lp550
tp551
Rp552
sg8
I00
sg9
g548
ssS'substructures'
p553
(dp554
g3
g4
((lp555
tp556
Rp557
sg8
I00
sg9
g553
ssS'assemblywoman'
p558
(dp559
g3
g4
((lp560
S'assemblywomen'
p561
atp562
Rp563
sg8
I00
sg9
g558
ssS'scintillation'
p564
(dp565
g3
g4
((lp566
tp567
Rp568
sg8
I00
sg9
g564
ssS'tranquilizing'
p569
(dp570
g3
g4
((lp571
tp572
Rp573
sg8
I00
sg9
g569
ssS'vilifications'
p574
(dp575
g3
g4
((lp576
tp577
Rp578
sg8
I00
sg9
g574
ssS'proportionate'
p579
(dp580
g3
g4
((lp581
tp582
Rp583
sg8
I00
sg9
g579
ssS'eavesdropping'
p584
(dp585
g3
g4
((lp586
tp587
Rp588
sg8
I00
sg9
g584
ssS'receptiveness'
p589
(dp590
g3
g4
((lp591
tp592
Rp593
sg8
I00
sg9
g589
ssS'appropriating'
p594
(dp595
g3
g4
((lp596
tp597
Rp598
sg8
I00
sg9
g594
ssS'hyperromantic'
p599
(dp600
g3
g4
((lp601
tp602
Rp603
sg8
I00
sg9
g599
ssS'philodendrons'
p604
(dp605
g3
g4
((lp606
tp607
Rp608
sg8
I00
sg9
g604
ssS'minirecession'
p609
(dp610
g3
g4
((lp611
tp612
Rp613
sg8
I00
sg9
g609
ssS'nonchurchgoer'
p614
(dp615
g3
g4
((lp616
tp617
Rp618
sg8
I00
sg9
g614
ssS'anticipations'
p619
(dp620
g3
g4
((lp621
tp622
Rp623
sg8
I00
sg9
g619
ssS'sociabilities'
p624
(dp625
g3
g4
((lp626
tp627
Rp628
sg8
I00
sg9
g624
ssS'insubstantial'
p629
(dp630
g3
g4
((lp631
tp632
Rp633
sg8
I00
sg9
g629
ssS'manageability'
p634
(dp635
g3
g4
((lp636
tp637
Rp638
sg8
I00
sg9
g634
ssS'imperturbable'
p639
(dp640
g3
g4
((lp641
tp642
Rp643
sg8
I00
sg9
g639
ssS'reinstituting'
p644
(dp645
g3
g4
((lp646
tp647
Rp648
sg8
I00
sg9
g644
ssS'sterilization'
p649
(dp650
g3
g4
((lp651
tp652
Rp653
sg8
I00
sg9
g649
ssS'quintessences'
p654
(dp655
g3
g4
((lp656
tp657
Rp658
sg8
I00
sg9
g654
ssS'controverting'
p659
(dp660
g3
g4
((lp661
tp662
Rp663
sg8
I00
sg9
g659
ssS'pontificating'
p664
(dp665
g3
g4
((lp666
tp667
Rp668
sg8
I00
sg9
g664
ssS'serendipitous'
p669
(dp670
g3
g4
((lp671
tp672
Rp673
sg8
I00
sg9
g669
ssS'merchandisers'
p674
(dp675
g3
g4
((lp676
tp677
Rp678
sg8
I00
sg9
g674
ssS'cartilaginous'
p679
(dp680
g3
g4
((lp681
tp682
Rp683
sg8
I00
sg9
g679
ssS'eventualities'
p684
(dp685
g3
g4
((lp686
tp687
Rp688
sg8
I00
sg9
g684
ssS'prophetically'
p689
(dp690
g3
g4
((lp691
tp692
Rp693
sg8
I00
sg9
g689
ssS'subindustries'
p694
(dp695
g3
g4
((lp696
tp697
Rp698
sg8
I00
sg9
g694
ssS'unintelligent'
p699
(dp700
g3
g4
((lp701
tp702
Rp703
sg8
I00
sg9
g699
ssS'recirculating'
p704
(dp705
g3
g4
((lp706
tp707
Rp708
sg8
I00
sg9
g704
ssS'noncompliance'
p709
(dp710
g3
g4
((lp711
tp712
Rp713
sg8
I00
sg9
g709
ssS'confiscations'
p714
(dp715
g3
g4
((lp716
tp717
Rp718
sg8
I00
sg9
g714
ssS'primitiveness'
p719
(dp720
g3
g4
((lp721
tp722
Rp723
sg8
I00
sg9
g719
ssS'overpopulated'
p724
(dp725
g3
g4
((lp726
tp727
Rp728
sg8
I00
sg9
g724
ssS'mystification'
p729
(dp730
g3
g4
((lp731
tp732
Rp733
sg8
I00
sg9
g729
ssS'extortionists'
p734
(dp735
g3
g4
((lp736
tp737
Rp738
sg8
I00
sg9
g734
ssS'prepositional'
p739
(dp740
g3
g4
((lp741
tp742
Rp743
sg8
I00
sg9
g739
ssS'nonconductors'
p744
(dp745
g3
g4
((lp746
tp747
Rp748
sg8
I00
sg9
g744
ssS'substantially'
p749
(dp750
g3
g4
((lp751
tp752
Rp753
sg8
I00
sg9
g749
ssS'businesswomen'
p754
(dp755
g3
g4
((lp756
S'businesswoman'
p757
atp758
Rp759
sg8
I00
sg9
g754
ssS'transferences'
p760
(dp761
g3
g4
((lp762
tp763
Rp764
sg8
I00
sg9
g760
ssS'thoroughfares'
p765
(dp766
g3
g4
((lp767
tp768
Rp769
sg8
I00
sg9
g765
ssS'inadvertently'
p770
(dp771
g3
g4
((lp772
tp773
Rp774
sg8
I00
sg9
g770
ssS'presweetening'
p775
(dp776
g3
g4
((lp777
tp778
Rp779
sg8
I00
sg9
g775
ssS'protuberances'
p780
(dp781
g3
g4
((lp782
tp783
Rp784
sg8
I00
sg9
g780
ssS'semiconductor'
p785
(dp786
g3
g4
((lp787
tp788
Rp789
sg8
I00
sg9
g785
ssS'reciprocation'
p790
(dp791
g3
g4
((lp792
tp793
Rp794
sg8
I00
sg9
g790
ssS'ingenuousness'
p795
(dp796
g3
g4
((lp797
S'ingeniousness'
p798
atp799
Rp800
sg8
I00
sg9
g795
ssS'uncleannesses'
p801
(dp802
g3
g4
((lp803
tp804
Rp805
sg8
I00
sg9
g801
ssS'democratizing'
p806
(dp807
g3
g4
((lp808
tp809
Rp810
sg8
I00
sg9
g806
ssS'interchanging'
p811
(dp812
g3
g4
((lp813
tp814
Rp815
sg8
I00
sg9
g811
ssS'exaggerations'
p816
(dp817
g3
g4
((lp818
tp819
Rp820
sg8
I00
sg9
g816
ssS'merchandising'
p821
(dp822
g3
g4
((lp823
tp824
Rp825
sg8
I00
sg9
g821
ssS'blunderbusses'
p826
(dp827
g3
g4
((lp828
tp829
Rp830
sg8
I00
sg9
g826
ssS'suppositories'
p831
(dp832
g3
g4
((lp833
tp834
Rp835
sg8
I00
sg9
g831
ssS'misquotations'
p836
(dp837
g3
g4
((lp838
tp839
Rp840
sg8
I00
sg9
g836
ssS'anticigarette'
p841
(dp842
g3
g4
((lp843
tp844
Rp845
sg8
I00
sg9
g841
ssS'credibilities'
p846
(dp847
g3
g4
((lp848
tp849
Rp850
sg8
I00
sg9
g846
ssS'condemnations'
p851
(dp852
g3
g4
((lp853
tp854
Rp855
sg8
I00
sg9
g851
ssS'preclearances'
p856
(dp857
g3
g4
((lp858
tp859
Rp860
sg8
I00
sg9
g856
ssS'ineffectively'
p861
(dp862
g3
g4
((lp863
tp864
Rp865
sg8
I00
sg9
g861
ssS'horticultures'
p866
(dp867
g3
g4
((lp868
tp869
Rp870
sg8
I00
sg9
g866
ssS'conservations'
p871
(dp872
g3
g4
((lp873
tp874
Rp875
sg8
I00
sg9
g871
ssS'omnipresences'
p876
(dp877
g3
g4
((lp878
tp879
Rp880
sg8
I00
sg9
g876
ssS'humanitarians'
p881
(dp882
g3
g4
((lp883
tp884
Rp885
sg8
I00
sg9
g881
ssS'philosophical'
p886
(dp887
g3
g4
((lp888
tp889
Rp890
sg8
I00
sg9
g886
ssS'tangibilities'
p891
(dp892
g3
g4
((lp893
tp894
Rp895
sg8
I00
sg9
g891
ssS'idealizations'
p896
(dp897
g3
g4
((lp898
tp899
Rp900
sg8
I00
sg9
g896
ssS'impassivities'
p901
(dp902
g3
g4
((lp903
tp904
Rp905
sg8
I00
sg9
g901
ssS'rechristening'
p906
(dp907
g3
g4
((lp908
tp909
Rp910
sg8
I00
sg9
g906
ssS'degenerations'
p911
(dp912
g3
g4
((lp913
S'regenerations'
p914
atp915
Rp916
sg8
I00
sg9
g911
ssS'calcification'
p917
(dp918
g3
g4
((lp919
tp920
Rp921
sg8
I00
sg9
g917
ssS'indeterminate'
p922
(dp923
g3
g4
((lp924
tp925
Rp926
sg8
I00
sg9
g922
ssS'approximately'
p927
(dp928
g3
g4
((lp929
tp930
Rp931
sg8
I00
sg9
g927
ssS'perturbations'
p932
(dp933
g3
g4
((lp934
tp935
Rp936
sg8
I00
sg9
g932
ssS'overemotional'
p937
(dp938
g3
g4
((lp939
tp940
Rp941
sg8
I00
sg9
g937
ssS'childlessness'
p942
(dp943
g3
g4
((lp944
tp945
Rp946
sg8
I00
sg9
g942
ssS'overreactions'
p947
(dp948
g3
g4
((lp949
tp950
Rp951
sg8
I00
sg9
g947
ssS'outdistancing'
p952
(dp953
g3
g4
((lp954
tp955
Rp956
sg8
I00
sg9
g952
ssS'grandchildren'
p957
(dp958
g3
g4
((lp959
tp960
Rp961
sg8
I00
sg9
g957
ssS'reclassifying'
p962
(dp963
g3
g4
((lp964
tp965
Rp966
sg8
I00
sg9
g962
ssS'conspicuously'
p967
(dp968
g3
g4
((lp969
tp970
Rp971
sg8
I00
sg9
g967
ssS'agriculturist'
p972
(dp973
g3
g4
((lp974
tp975
Rp976
sg8
I00
sg9
g972
ssS'postsecondary'
p977
(dp978
g3
g4
((lp979
tp980
Rp981
sg8
I00
sg9
g977
ssS'unexplainable'
p982
(dp983
g3
g4
((lp984
tp985
Rp986
sg8
I00
sg9
g982
ssS'instrumentals'
p987
(dp988
g3
g4
((lp989
tp990
Rp991
sg8
I00
sg9
g987
ssS'anniversaries'
p992
(dp993
g3
g4
((lp994
tp995
Rp996
sg8
I00
sg9
g992
ssS'disaffections'
p997
(dp998
g3
g4
((lp999
tp1000
Rp1001
sg8
I00
sg9
g997
ssS'garrulousness'
p1002
(dp1003
g3
g4
((lp1004
tp1005
Rp1006
sg8
I00
sg9
g1002
ssS'hypervigilant'
p1007
(dp1008
g3
g4
((lp1009
tp1010
Rp1011
sg8
I00
sg9
g1007
ssS'minirebellion'
p1012
(dp1013
g3
g4
((lp1014
tp1015
Rp1016
sg8
I00
sg9
g1012
ssS'northwesterly'
p1017
(dp1018
g3
g4
((lp1019
tp1020
Rp1021
sg8
I00
sg9
g1017
ssS'hallucination'
p1022
(dp1023
g3
g4
((lp1024
tp1025
Rp1026
sg8
I00
sg9
g1022
ssS'transpiration'
p1027
(dp1028
g3
g4
((lp1029
tp1030
Rp1031
sg8
I00
sg9
g1027
ssS'quartermaster'
p1032
(dp1033
g3
g4
((lp1034
tp1035
Rp1036
sg8
I00
sg9
g1032
ssS'assertiveness'
p1037
(dp1038
g3
g4
((lp1039
tp1040
Rp1041
sg8
I00
sg9
g1037
ssS'nonconforming'
p1042
(dp1043
g3
g4
((lp1044
tp1045
Rp1046
sg8
I00
sg9
g1042
ssS'overregulates'
p1047
(dp1048
g3
g4
((lp1049
S'overregulated'
p1050
atp1051
Rp1052
sg8
I00
sg9
g1047
ssS'overcorrected'
p1053
(dp1054
g3
g4
((lp1055
tp1056
Rp1057
sg8
I00
sg9
g1053
ssg1050
(dp1058
g3
g4
((lp1059
g1047
atp1060
Rp1061
sg8
I00
sg9
g1050
ssS'readabilities'
p1062
(dp1063
g3
g4
((lp1064
tp1065
Rp1066
sg8
I00
sg9
g1062
ssS'sharecroppers'
p1067
(dp1068
g3
g4
((lp1069
tp1070
Rp1071
sg8
I00
sg9
g1067
ssS'pumpernickels'
p1072
(dp1073
g3
g4
((lp1074
tp1075
Rp1076
sg8
I00
sg9
g1072
ssS'communicative'
p1077
(dp1078
g3
g4
((lp1079
tp1080
Rp1081
sg8
I00
sg9
g1077
ssS'predominantly'
p1082
(dp1083
g3
g4
((lp1084
tp1085
Rp1086
sg8
I00
sg9
g1082
ssS'effectiveness'
p1087
(dp1088
g3
g4
((lp1089
tp1090
Rp1091
sg8
I00
sg9
g1087
ssS'checkerboards'
p1092
(dp1093
g3
g4
((lp1094
tp1095
Rp1096
sg8
I00
sg9
g1092
ssS'disorganizing'
p1097
(dp1098
g3
g4
((lp1099
tp1100
Rp1101
sg8
I00
sg9
g1097
ssS'miscalculated'
p1102
(dp1103
g3
g4
((lp1104
S'miscalculates'
p1105
atp1106
Rp1107
sg8
I00
sg9
g1102
ssS'doublecrosses'
p1108
(dp1109
g3
g4
((lp1110
S'doublecrossed'
p1111
atp1112
Rp1113
sg8
I00
sg9
g1108
ssS'multisyllabic'
p1114
(dp1115
g3
g4
((lp1116
tp1117
Rp1118
sg8
I00
sg9
g1114
ssS'affirmatively'
p1119
(dp1120
g3
g4
((lp1121
tp1122
Rp1123
sg8
I00
sg9
g1119
ssS'receptivities'
p1124
(dp1125
g3
g4
((lp1126
tp1127
Rp1128
sg8
I00
sg9
g1124
ssg1111
(dp1129
g3
g4
((lp1130
g1108
atp1131
Rp1132
sg8
I00
sg9
g1111
ssS'inconsistency'
p1133
(dp1134
g3
g4
((lp1135
tp1136
Rp1137
sg8
I00
sg9
g1133
ssg1105
(dp1138
g3
g4
((lp1139
g1102
atp1140
Rp1141
sg8
I00
sg9
g1105
ssS'reimbursement'
p1142
(dp1143
g3
g4
((lp1144
tp1145
Rp1146
sg8
I00
sg9
g1142
ssS'neighborhoods'
p1147
(dp1148
g3
g4
((lp1149
tp1150
Rp1151
sg8
I00
sg9
g1147
ssS'bloodsuckings'
p1152
(dp1153
g3
g4
((lp1154
tp1155
Rp1156
sg8
I00
sg9
g1152
ssS'dispensations'
p1157
(dp1158
g3
g4
((lp1159
tp1160
Rp1161
sg8
I00
sg9
g1157
ssS'temperamental'
p1162
(dp1163
g3
g4
((lp1164
tp1165
Rp1166
sg8
I00
sg9
g1162
ssS'objectiveness'
p1167
(dp1168
g3
g4
((lp1169
tp1170
Rp1171
sg8
I00
sg9
g1167
ssS'promiscuously'
p1172
(dp1173
g3
g4
((lp1174
tp1175
Rp1176
sg8
I00
sg9
g1172
ssS'photographies'
p1177
(dp1178
g3
g4
((lp1179
tp1180
Rp1181
sg8
I00
sg9
g1177
ssS'herpetologist'
p1182
(dp1183
g3
g4
((lp1184
tp1185
Rp1186
sg8
I00
sg9
g1182
ssS'preproduction'
p1187
(dp1188
g3
g4
((lp1189
tp1190
Rp1191
sg8
I00
sg9
g1187
ssS'extradiocesan'
p1192
(dp1193
g3
g4
((lp1194
tp1195
Rp1196
sg8
I00
sg9
g1192
ssS'veterinarians'
p1197
(dp1198
g3
g4
((lp1199
tp1200
Rp1201
sg8
I00
sg9
g1197
ssS'indominitably'
p1202
(dp1203
g3
g4
((lp1204
S'indominitable'
p1205
atp1206
Rp1207
sg8
I00
sg9
g1202
ssS'governorships'
p1208
(dp1209
g3
g4
((lp1210
tp1211
Rp1212
sg8
I00
sg9
g1208
ssS'carnivorously'
p1213
(dp1214
g3
g4
((lp1215
tp1216
Rp1217
sg8
I00
sg9
g1213
ssS'vicariousness'
p1218
(dp1219
g3
g4
((lp1220
tp1221
Rp1222
sg8
I00
sg9
g1218
ssS'industriously'
p1223
(dp1224
g3
g4
((lp1225
tp1226
Rp1227
sg8
I00
sg9
g1223
ssS'circularities'
p1228
(dp1229
g3
g4
((lp1230
tp1231
Rp1232
sg8
I00
sg9
g1228
ssg1205
(dp1233
g3
g4
((lp1234
g1202
atp1235
Rp1236
sg8
I00
sg9
g1205
ssS'disconnecting'
p1237
(dp1238
g3
g4
((lp1239
tp1240
Rp1241
sg8
I00
sg9
g1237
ssS'overelaborate'
p1242
(dp1243
g3
g4
((lp1244
tp1245
Rp1246
sg8
I00
sg9
g1242
ssS'proselytizing'
p1247
(dp1248
g3
g4
((lp1249
tp1250
Rp1251
sg8
I00
sg9
g1247
ssS'ecclesiastics'
p1252
(dp1253
g3
g4
((lp1254
tp1255
Rp1256
sg8
I00
sg9
g1252
ssS'photoelectric'
p1257
(dp1258
g3
g4
((lp1259
tp1260
Rp1261
sg8
I00
sg9
g1257
ssS'thoroughbreds'
p1262
(dp1263
g3
g4
((lp1264
tp1265
Rp1266
sg8
I00
sg9
g1262
ssS'reorchestrate'
p1267
(dp1268
g3
g4
((lp1269
tp1270
Rp1271
sg8
I00
sg9
g1267
ssS'chronological'
p1272
(dp1273
g3
g4
((lp1274
tp1275
Rp1276
sg8
I00
sg9
g1272
ssS'immortalities'
p1277
(dp1278
g3
g4
((lp1279
tp1280
Rp1281
sg8
I00
sg9
g1277
ssS'reintroducing'
p1282
(dp1283
g3
g4
((lp1284
tp1285
Rp1286
sg8
I00
sg9
g1282
ssS'precombustion'
p1287
(dp1288
g3
g4
((lp1289
tp1290
Rp1291
sg8
I00
sg9
g1287
ssS'reproductions'
p1292
(dp1293
g3
g4
((lp1294
tp1295
Rp1296
sg8
I00
sg9
g1292
ssS'prognosticate'
p1297
(dp1298
g3
g4
((lp1299
tp1300
Rp1301
sg8
I00
sg9
g1297
ssS'interruptions'
p1302
(dp1303
g3
g4
((lp1304
tp1305
Rp1306
sg8
I00
sg9
g1302
ssS'incorporating'
p1307
(dp1308
g3
g4
((lp1309
tp1310
Rp1311
sg8
I00
sg9
g1307
ssS'overborrowing'
p1312
(dp1313
g3
g4
((lp1314
tp1315
Rp1316
sg8
I00
sg9
g1312
ssS'overamplified'
p1317
(dp1318
g3
g4
((lp1319
S'overamplifies'
p1320
atp1321
Rp1322
sg8
I00
sg9
g1317
ssS'wistfulnesses'
p1323
(dp1324
g3
g4
((lp1325
tp1326
Rp1327
sg8
I00
sg9
g1323
ssS'inappropriate'
p1328
(dp1329
g3
g4
((lp1330
tp1331
Rp1332
sg8
I00
sg9
g1328
ssS'antilittering'
p1333
(dp1334
g3
g4
((lp1335
tp1336
Rp1337
sg8
I00
sg9
g1333
ssS'interterminal'
p1338
(dp1339
g3
g4
((lp1340
tp1341
Rp1342
sg8
I00
sg9
g1338
ssS'minisubmarine'
p1343
(dp1344
g3
g4
((lp1345
tp1346
Rp1347
sg8
I00
sg9
g1343
ssg1320
(dp1348
g3
g4
((lp1349
g1317
atp1350
Rp1351
sg8
I00
sg9
g1320
ssS'lucrativeness'
p1352
(dp1353
g3
g4
((lp1354
tp1355
Rp1356
sg8
I00
sg9
g1352
ssS'hypertensions'
p1357
(dp1358
g3
g4
((lp1359
tp1360
Rp1361
sg8
I00
sg9
g1357
ssg319
(dp1362
g3
g4
((lp1363
g316
atp1364
Rp1365
sg8
I00
sg9
g319
ssS'uprightnesses'
p1366
(dp1367
g3
g4
((lp1368
tp1369
Rp1370
sg8
I00
sg9
g1366
ssS'protectorates'
p1371
(dp1372
g3
g4
((lp1373
tp1374
Rp1375
sg8
I00
sg9
g1371
ssS'verbalization'
p1376
(dp1377
g3
g4
((lp1378
tp1379
Rp1380
sg8
I00
sg9
g1376
ssS'rejuvenations'
p1381
(dp1382
g3
g4
((lp1383
tp1384
Rp1385
sg8
I00
sg9
g1381
ssS'adventuresome'
p1386
(dp1387
g3
g4
((lp1388
tp1389
Rp1390
sg8
I00
sg9
g1386
ssS'amalgamations'
p1391
(dp1392
g3
g4
((lp1393
tp1394
Rp1395
sg8
I00
sg9
g1391
ssS'accomplishers'
p1396
(dp1397
g3
g4
((lp1398
tp1399
Rp1400
sg8
I00
sg9
g1396
ssS'platitudinous'
p1401
(dp1402
g3
g4
((lp1403
tp1404
Rp1405
sg8
I00
sg9
g1401
ssS'overestimates'
p1406
(dp1407
g3
g4
((lp1408
S'overestimated'
p1409
atp1410
Rp1411
sg8
I00
sg9
g1406
ssS'fluoridations'
p1412
(dp1413
g3
g4
((lp1414
tp1415
Rp1416
sg8
I00
sg9
g1412
ssS'conflagration'
p1417
(dp1418
g3
g4
((lp1419
tp1420
Rp1421
sg8
I00
sg9
g1417
ssS'contamination'
p1422
(dp1423
g3
g4
((lp1424
tp1425
Rp1426
sg8
I00
sg9
g1422
ssS'neurotoxicity'
p1427
(dp1428
g3
g4
((lp1429
tp1430
Rp1431
sg8
I00
sg9
g1427
ssg1409
(dp1432
g3
g4
((lp1433
g1406
atp1434
Rp1435
sg8
I00
sg9
g1409
ssS'accountancies'
p1436
(dp1437
g3
g4
((lp1438
tp1439
Rp1440
sg8
I00
sg9
g1436
ssS'oceanographer'
p1441
(dp1442
g3
g4
((lp1443
tp1444
Rp1445
sg8
I00
sg9
g1441
ssS'psychologists'
p1446
(dp1447
g3
g4
((lp1448
tp1449
Rp1450
sg8
I00
sg9
g1446
ssS'valedictorian'
p1451
(dp1452
g3
g4
((lp1453
tp1454
Rp1455
sg8
I00
sg9
g1451
ssS'metaphysician'
p1456
(dp1457
g3
g4
((lp1458
tp1459
Rp1460
sg8
I00
sg9
g1456
ssS'reaccumulated'
p1461
(dp1462
g3
g4
((lp1463
S'reaccumulates'
p1464
atp1465
Rp1466
sg8
I00
sg9
g1461
ssS'anesthetizing'
p1467
(dp1468
g3
g4
((lp1469
tp1470
Rp1471
sg8
I00
sg9
g1467
ssS'chancellories'
p1472
(dp1473
g3
g4
((lp1474
S'chancelleries'
p1475
atp1476
Rp1477
sg8
I00
sg9
g1472
ssS'subordinating'
p1478
(dp1479
g3
g4
((lp1480
tp1481
Rp1482
sg8
I00
sg9
g1478
ssg1464
(dp1483
g3
g4
((lp1484
g1461
atp1485
Rp1486
sg8
I00
sg9
g1464
ssS'superabundant'
p1487
(dp1488
g3
g4
((lp1489
tp1490
Rp1491
sg8
I00
sg9
g1487
ssS'antipersonnel'
p1492
(dp1493
g3
g4
((lp1494
tp1495
Rp1496
sg8
I00
sg9
g1492
ssS'assassination'
p1497
(dp1498
g3
g4
((lp1499
tp1500
Rp1501
sg8
I00
sg9
g1497
ssS'irresponsible'
p1502
(dp1503
g3
g4
((lp1504
S'irresponsibly'
p1505
atp1506
Rp1507
sg8
I00
sg9
g1502
ssS'nonconformist'
p1508
(dp1509
g3
g4
((lp1510
tp1511
Rp1512
sg8
I00
sg9
g1508
ssS'condescending'
p1513
(dp1514
g3
g4
((lp1515
tp1516
Rp1517
sg8
I00
sg9
g1513
ssS'comprehension'
p1518
(dp1519
g3
g4
((lp1520
tp1521
Rp1522
sg8
I00
sg9
g1518
ssg1505
(dp1523
g3
g4
((lp1524
g1502
atp1525
Rp1526
sg8
I00
sg9
g1505
ssS'intermixtures'
p1527
(dp1528
g3
g4
((lp1529
tp1530
Rp1531
sg8
I00
sg9
g1527
ssS'cleanlinesses'
p1532
(dp1533
g3
g4
((lp1534
tp1535
Rp1536
sg8
I00
sg9
g1532
ssS'multifilament'
p1537
(dp1538
g3
g4
((lp1539
tp1540
Rp1541
sg8
I00
sg9
g1537
ssS'vulcanization'
p1542
(dp1543
g3
g4
((lp1544
tp1545
Rp1546
sg8
I00
sg9
g1542
ssS'brotherliness'
p1547
(dp1548
g3
g4
((lp1549
tp1550
Rp1551
sg8
I00
sg9
g1547
ssS'disgracefully'
p1552
(dp1553
g3
g4
((lp1554
tp1555
Rp1556
sg8
I00
sg9
g1552
ssS'chrysanthemum'
p1557
(dp1558
g3
g4
((lp1559
tp1560
Rp1561
sg8
I00
sg9
g1557
ssS'overresponded'
p1562
(dp1563
g3
g4
((lp1564
tp1565
Rp1566
sg8
I00
sg9
g1562
ssS'extravasating'
p1567
(dp1568
g3
g4
((lp1569
tp1570
Rp1571
sg8
I00
sg9
g1567
ssS'rededications'
p1572
(dp1573
g3
g4
((lp1574
tp1575
Rp1576
sg8
I00
sg9
g1572
ssS'bicentennials'
p1577
(dp1578
g3
g4
((lp1579
tp1580
Rp1581
sg8
I00
sg9
g1577
ssS'electrocution'
p1582
(dp1583
g3
g4
((lp1584
tp1585
Rp1586
sg8
I00
sg9
g1582
ssS'sprightliness'
p1587
(dp1588
g3
g4
((lp1589
tp1590
Rp1591
sg8
I00
sg9
g1587
ssS'indeterminacy'
p1592
(dp1593
g3
g4
((lp1594
tp1595
Rp1596
sg8
I00
sg9
g1592
ssS'nondeferrable'
p1597
(dp1598
g3
g4
((lp1599
tp1600
Rp1601
sg8
I00
sg9
g1597
ssS'hypermilitant'
p1602
(dp1603
g3
g4
((lp1604
tp1605
Rp1606
sg8
I00
sg9
g1602
ssS'deliberations'
p1607
(dp1608
g3
g4
((lp1609
tp1610
Rp1611
sg8
I00
sg9
g1607
ssS'participatory'
p1612
(dp1613
g3
g4
((lp1614
tp1615
Rp1616
sg8
I00
sg9
g1612
ssg251
(dp1617
g3
g4
((lp1618
g250
ag247
atp1619
Rp1620
sg8
I00
sg9
g251
ssS'hallucinogens'
p1621
(dp1622
g3
g4
((lp1623
tp1624
Rp1625
sg8
I00
sg9
g1621
ssS'contingencies'
p1626
(dp1627
g3
g4
((lp1628
tp1629
Rp1630
sg8
I00
sg9
g1626
ssS'spontaneously'
p1631
(dp1632
g3
g4
((lp1633
tp1634
Rp1635
sg8
I00
sg9
g1631
ssS'prizefighters'
p1636
(dp1637
g3
g4
((lp1638
tp1639
Rp1640
sg8
I00
sg9
g1636
ssS'hematologists'
p1641
(dp1642
g3
g4
((lp1643
tp1644
Rp1645
sg8
I00
sg9
g1641
ssS'counterthrust'
p1646
(dp1647
g3
g4
((lp1648
tp1649
Rp1650
sg8
I00
sg9
g1646
ssS'antirecession'
p1651
(dp1652
g3
g4
((lp1653
tp1654
Rp1655
sg8
I00
sg9
g1651
ssS'coconspirator'
p1656
(dp1657
g3
g4
((lp1658
tp1659
Rp1660
sg8
I00
sg9
g1656
ssS'overspreading'
p1661
(dp1662
g3
g4
((lp1663
tp1664
Rp1665
sg8
I00
sg9
g1661
ssS'desquamations'
p1666
(dp1667
g3
g4
((lp1668
tp1669
Rp1670
sg8
I00
sg9
g1666
ssS'malnutritions'
p1671
(dp1672
g3
g4
((lp1673
tp1674
Rp1675
sg8
I00
sg9
g1671
ssS'uninterrupted'
p1676
(dp1677
g3
g4
((lp1678
tp1679
Rp1680
sg8
I00
sg9
g1676
ssS'stupefactions'
p1681
(dp1682
g3
g4
((lp1683
tp1684
Rp1685
sg8
I00
sg9
g1681
ssS'ramifications'
p1686
(dp1687
g3
g4
((lp1688
S'ratifications'
p1689
atp1690
Rp1691
sg8
I00
sg9
g1686
ssS'impersonators'
p1692
(dp1693
g3
g4
((lp1694
tp1695
Rp1696
sg8
I00
sg9
g1692
ssS'vitrification'
p1697
(dp1698
g3
g4
((lp1699
tp1700
Rp1701
sg8
I00
sg9
g1697
ssS'matriculation'
p1702
(dp1703
g3
g4
((lp1704
tp1705
Rp1706
sg8
I00
sg9
g1702
ssS'unfamiliarity'
p1707
(dp1708
g3
g4
((lp1709
tp1710
Rp1711
sg8
I00
sg9
g1707
ssS'circumventing'
p1712
(dp1713
g3
g4
((lp1714
tp1715
Rp1716
sg8
I00
sg9
g1712
ssS'pronunciation'
p1717
(dp1718
g3
g4
((lp1719
tp1720
Rp1721
sg8
I00
sg9
g1717
ssS'sovereignties'
p1722
(dp1723
g3
g4
((lp1724
tp1725
Rp1726
sg8
I00
sg9
g1722
ssS'agreeableness'
p1727
(dp1728
g3
g4
((lp1729
tp1730
Rp1731
sg8
I00
sg9
g1727
ssS'reassessments'
p1732
(dp1733
g3
g4
((lp1734
tp1735
Rp1736
sg8
I00
sg9
g1732
ssS'reformatories'
p1737
(dp1738
g3
g4
((lp1739
tp1740
Rp1741
sg8
I00
sg9
g1737
ssS'archaeologies'
p1742
(dp1743
g3
g4
((lp1744
tp1745
Rp1746
sg8
I00
sg9
g1742
ssS'antihistamine'
p1747
(dp1748
g3
g4
((lp1749
tp1750
Rp1751
sg8
I00
sg9
g1747
ssS'hyperreactive'
p1752
(dp1753
g3
g4
((lp1754
tp1755
Rp1756
sg8
I00
sg9
g1752
ssS'superpowerful'
p1757
(dp1758
g3
g4
((lp1759
tp1760
Rp1761
sg8
I00
sg9
g1757
ssS'photographers'
p1762
(dp1763
g3
g4
((lp1764
tp1765
Rp1766
sg8
I00
sg9
g1762
ssS'regurgitation'
p1767
(dp1768
g3
g4
((lp1769
tp1770
Rp1771
sg8
I00
sg9
g1767
ssS'noncommercial'
p1772
(dp1773
g3
g4
((lp1774
tp1775
Rp1776
sg8
I00
sg9
g1772
ssS'discoloration'
p1777
(dp1778
g3
g4
((lp1779
tp1780
Rp1781
sg8
I00
sg9
g1777
ssS'normalization'
p1782
(dp1783
g3
g4
((lp1784
tp1785
Rp1786
sg8
I00
sg9
g1782
ssS'incredulously'
p1787
(dp1788
g3
g4
((lp1789
tp1790
Rp1791
sg8
I00
sg9
g1787
ssS'conciliations'
p1792
(dp1793
g3
g4
((lp1794
tp1795
Rp1796
sg8
I00
sg9
g1792
ssS'pertinacities'
p1797
(dp1798
g3
g4
((lp1799
tp1800
Rp1801
sg8
I00
sg9
g1797
ssS'mistreatments'
p1802
(dp1803
g3
g4
((lp1804
tp1805
Rp1806
sg8
I00
sg9
g1802
ssS'augmentations'
p1807
(dp1808
g3
g4
((lp1809
tp1810
Rp1811
sg8
I00
sg9
g1807
ssS'comanagements'
p1812
(dp1813
g3
g4
((lp1814
tp1815
Rp1816
sg8
I00
sg9
g1812
ssS'misrepresents'
p1817
(dp1818
g3
g4
((lp1819
tp1820
Rp1821
sg8
I00
sg9
g1817
ssS'entanglements'
p1822
(dp1823
g3
g4
((lp1824
tp1825
Rp1826
sg8
I00
sg9
g1822
ssS'consciousness'
p1827
(dp1828
g3
g4
((lp1829
tp1830
Rp1831
sg8
I00
sg9
g1827
ssS'imperialistic'
p1832
(dp1833
g3
g4
((lp1834
tp1835
Rp1836
sg8
I00
sg9
g1832
ssS'pronounceable'
p1837
(dp1838
g3
g4
((lp1839
tp1840
Rp1841
sg8
I00
sg9
g1837
ssS'uncooperative'
p1842
(dp1843
g3
g4
((lp1844
tp1845
Rp1846
sg8
I00
sg9
g1842
ssS'mademoiselles'
p1847
(dp1848
g3
g4
((lp1849
tp1850
Rp1851
sg8
I00
sg9
g1847
ssS'visualization'
p1852
(dp1853
g3
g4
((lp1854
tp1855
Rp1856
sg8
I00
sg9
g1852
ssS'stratospheres'
p1857
(dp1858
g3
g4
((lp1859
tp1860
Rp1861
sg8
I00
sg9
g1857
ssS'perpetrations'
p1862
(dp1863
g3
g4
((lp1864
S'perpetuations'
p1865
atp1866
Rp1867
sg8
I00
sg9
g1862
ssS'satisfactions'
p1868
(dp1869
g3
g4
((lp1870
tp1871
Rp1872
sg8
I00
sg9
g1868
ssS'impregability'
p1873
(dp1874
g3
g4
((lp1875
tp1876
Rp1877
sg8
I00
sg9
g1873
ssS'overemphasize'
p1878
(dp1879
g3
g4
((lp1880
tp1881
Rp1882
sg8
I00
sg9
g1878
ssS'homogeneities'
p1883
(dp1884
g3
g4
((lp1885
tp1886
Rp1887
sg8
I00
sg9
g1883
ssS'cardiologists'
p1888
(dp1889
g3
g4
((lp1890
tp1891
Rp1892
sg8
I00
sg9
g1888
ssS'technological'
p1893
(dp1894
g3
g4
((lp1895
tp1896
Rp1897
sg8
I00
sg9
g1893
ssS'carefulnesses'
p1898
(dp1899
g3
g4
((lp1900
tp1901
Rp1902
sg8
I00
sg9
g1898
ssS'alternatively'
p1903
(dp1904
g3
g4
((lp1905
tp1906
Rp1907
sg8
I00
sg9
g1903
ssS'incorrectness'
p1908
(dp1909
g3
g4
((lp1910
tp1911
Rp1912
sg8
I00
sg9
g1908
ssS'survivorships'
p1913
(dp1914
g3
g4
((lp1915
tp1916
Rp1917
sg8
I00
sg9
g1913
ssS'unequivocally'
p1918
(dp1919
g3
g4
((lp1920
tp1921
Rp1922
sg8
I00
sg9
g1918
ssS'culminatation'
p1923
(dp1924
g3
g4
((lp1925
tp1926
Rp1927
sg8
I00
sg9
g1923
ssS'overintensity'
p1928
(dp1929
g3
g4
((lp1930
tp1931
Rp1932
sg8
I00
sg9
g1928
ssS'reconsidering'
p1933
(dp1934
g3
g4
((lp1935
tp1936
Rp1937
sg8
I00
sg9
g1933
ssS'psychological'
p1938
(dp1939
g3
g4
((lp1940
tp1941
Rp1942
sg8
I00
sg9
g1938
ssS'preponderates'
p1943
(dp1944
g3
g4
((lp1945
S'preponderated'
p1946
atp1947
Rp1948
sg8
I00
sg9
g1943
ssS'intrusiveness'
p1949
(dp1950
g3
g4
((lp1951
tp1952
Rp1953
sg8
I00
sg9
g1949
ssS'impertinently'
p1954
(dp1955
g3
g4
((lp1956
tp1957
Rp1958
sg8
I00
sg9
g1954
ssg1946
(dp1959
g3
g4
((lp1960
g1943
atp1961
Rp1962
sg8
I00
sg9
g1946
ssS'disillusioned'
p1963
(dp1964
g3
g4
((lp1965
tp1966
Rp1967
sg8
I00
sg9
g1963
ssS'shepherdesses'
p1968
(dp1969
g3
g4
((lp1970
tp1971
Rp1972
sg8
I00
sg9
g1968
ssS'raucousnesses'
p1973
(dp1974
g3
g4
((lp1975
tp1976
Rp1977
sg8
I00
sg9
g1973
ssS'accoutrements'
p1978
(dp1979
g3
g4
((lp1980
tp1981
Rp1982
sg8
I00
sg9
g1978
ssS'nearsightedly'
p1983
(dp1984
g3
g4
((lp1985
tp1986
Rp1987
sg8
I00
sg9
g1983
ssS'disfigurement'
p1988
(dp1989
g3
g4
((lp1990
tp1991
Rp1992
sg8
I00
sg9
g1988
ssS'obliviousness'
p1993
(dp1994
g3
g4
((lp1995
tp1996
Rp1997
sg8
I00
sg9
g1993
ssS'contaminating'
p1998
(dp1999
g3
g4
((lp2000
tp2001
Rp2002
sg8
I00
sg9
g1998
ssS'reincorporate'
p2003
(dp2004
g3
g4
((lp2005
tp2006
Rp2007
sg8
I00
sg9
g2003
ssS'versatilities'
p2008
(dp2009
g3
g4
((lp2010
tp2011
Rp2012
sg8
I00
sg9
g2008
ssS'noncumulative'
p2013
(dp2014
g3
g4
((lp2015
tp2016
Rp2017
sg8
I00
sg9
g2013
ssS'humanizations'
p2018
(dp2019
g3
g4
((lp2020
tp2021
Rp2022
sg8
I00
sg9
g2018
ssS'bewilderments'
p2023
(dp2024
g3
g4
((lp2025
tp2026
Rp2027
sg8
I00
sg9
g2023
ssS'telegraphists'
p2028
(dp2029
g3
g4
((lp2030
tp2031
Rp2032
sg8
I00
sg9
g2028
ssS'subordination'
p2033
(dp2034
g3
g4
((lp2035
tp2036
Rp2037
sg8
I00
sg9
g2033
ssS'participation'
p2038
(dp2039
g3
g4
((lp2040
tp2041
Rp2042
sg8
I00
sg9
g2038
ssS'thundershower'
p2043
(dp2044
g3
g4
((lp2045
tp2046
Rp2047
sg8
I00
sg9
g2043
ssS'antirealistic'
p2048
(dp2049
g3
g4
((lp2050
tp2051
Rp2052
sg8
I00
sg9
g2048
ssS'overstimulate'
p2053
(dp2054
g3
g4
((lp2055
tp2056
Rp2057
sg8
I00
sg9
g2053
ssS'reidentifying'
p2058
(dp2059
g3
g4
((lp2060
tp2061
Rp2062
sg8
I00
sg9
g2058
ssS'restructuring'
p2063
(dp2064
g3
g4
((lp2065
tp2066
Rp2067
sg8
I00
sg9
g2063
ssS'confrontation'
p2068
(dp2069
g3
g4
((lp2070
tp2071
Rp2072
sg8
I00
sg9
g2068
ssS'architectural'
p2073
(dp2074
g3
g4
((lp2075
tp2076
Rp2077
sg8
I00
sg9
g2073
ssS'manufacturing'
p2078
(dp2079
g3
g4
((lp2080
tp2081
Rp2082
sg8
I00
sg9
g2078
ssS'codifications'
p2083
(dp2084
g3
g4
((lp2085
S'modifications'
p2086
atp2087
Rp2088
sg8
I00
sg9
g2083
ssS'spiritualists'
p2089
(dp2090
g3
g4
((lp2091
S'spiritualisms'
p2092
atp2093
Rp2094
sg8
I00
sg9
g2089
ssS'masturbations'
p2095
(dp2096
g3
g4
((lp2097
tp2098
Rp2099
sg8
I00
sg9
g2095
ssS'intercultural'
p2100
(dp2101
g3
g4
((lp2102
tp2103
Rp2104
sg8
I00
sg9
g2100
ssS'officeholders'
p2105
(dp2106
g3
g4
((lp2107
tp2108
Rp2109
sg8
I00
sg9
g2105
ssS'beastlinesses'
p2110
(dp2111
g3
g4
((lp2112
tp2113
Rp2114
sg8
I00
sg9
g2110
ssS'automatically'
p2115
(dp2116
g3
g4
((lp2117
tp2118
Rp2119
sg8
I00
sg9
g2115
ssS'fibrillations'
p2120
(dp2121
g3
g4
((lp2122
tp2123
Rp2124
sg8
I00
sg9
g2120
ssS'electrocuting'
p2125
(dp2126
g3
g4
((lp2127
tp2128
Rp2129
sg8
I00
sg9
g2125
ssS'problematical'
p2130
(dp2131
g3
g4
((lp2132
tp2133
Rp2134
sg8
I00
sg9
g2130
ssS'handicrafsmen'
p2135
(dp2136
g3
g4
((lp2137
S'handicrafsman'
p2138
atp2139
Rp2140
sg8
I00
sg9
g2135
ssS'intermarriage'
p2141
(dp2142
g3
g4
((lp2143
tp2144
Rp2145
sg8
I00
sg9
g2141
ssS'responsiblity'
p2146
(dp2147
g3
g4
((lp2148
tp2149
Rp2150
sg8
I00
sg9
g2146
ssS'informalities'
p2151
(dp2152
g3
g4
((lp2153
tp2154
Rp2155
sg8
I00
sg9
g2151
ssS'antireligious'
p2156
(dp2157
g3
g4
((lp2158
tp2159
Rp2160
sg8
I00
sg9
g2156
ssS'indispensable'
p2161
(dp2162
g3
g4
((lp2163
S'indispensably'
p2164
atp2165
Rp2166
sg8
I00
sg9
g2161
ssg2164
(dp2167
g3
g4
((lp2168
g2161
atp2169
Rp2170
sg8
I00
sg9
g2164
ssS'unpretentious'
p2171
(dp2172
g3
g4
((lp2173
tp2174
Rp2175
sg8
I00
sg9
g2171
ssS'whippoorwills'
p2176
(dp2177
g3
g4
((lp2178
tp2179
Rp2180
sg8
I00
sg9
g2176
ssS'interrelation'
p2181
(dp2182
g3
g4
((lp2183
tp2184
Rp2185
sg8
I00
sg9
g2181
ssS'manufacturers'
p2186
(dp2187
g3
g4
((lp2188
tp2189
Rp2190
sg8
I00
sg9
g2186
ssS'inappreciably'
p2191
(dp2192
g3
g4
((lp2193
S'inappreciable'
p2194
atp2195
Rp2196
sg8
I00
sg9
g2191
ssS'airconditions'
p2197
(dp2198
g3
g4
((lp2199
tp2200
Rp2201
sg8
I00
sg9
g2197
ssS'notifications'
p2202
(dp2203
g3
g4
((lp2204
tp2205
Rp2206
sg8
I00
sg9
g2202
ssS'incorporation'
p2207
(dp2208
g3
g4
((lp2209
tp2210
Rp2211
sg8
I00
sg9
g2207
ssS'comprehending'
p2212
(dp2213
g3
g4
((lp2214
tp2215
Rp2216
sg8
I00
sg9
g2212
ssS'foolishnesses'
p2217
(dp2218
g3
g4
((lp2219
tp2220
Rp2221
sg8
I00
sg9
g2217
ssS'nonrestricted'
p2222
(dp2223
g3
g4
((lp2224
tp2225
Rp2226
sg8
I00
sg9
g2222
ssS'overanxieties'
p2227
(dp2228
g3
g4
((lp2229
tp2230
Rp2231
sg8
I00
sg9
g2227
ssS'complications'
p2232
(dp2233
g3
g4
((lp2234
tp2235
Rp2236
sg8
I00
sg9
g2232
ssS'postradiation'
p2237
(dp2238
g3
g4
((lp2239
tp2240
Rp2241
sg8
I00
sg9
g2237
ssS'resuscitating'
p2242
(dp2243
g3
g4
((lp2244
tp2245
Rp2246
sg8
I00
sg9
g2242
ssS'prostitutions'
p2247
(dp2248
g3
g4
((lp2249
tp2250
Rp2251
sg8
I00
sg9
g2247
ssS'specificities'
p2252
(dp2253
g3
g4
((lp2254
tp2255
Rp2256
sg8
I00
sg9
g2252
ssS'strengthening'
p2257
(dp2258
g3
g4
((lp2259
tp2260
Rp2261
sg8
I00
sg9
g2257
ssS'exhilarations'
p2262
(dp2263
g3
g4
((lp2264
tp2265
Rp2266
sg8
I00
sg9
g2262
ssS'mollification'
p2267
(dp2268
g3
g4
((lp2269
tp2270
Rp2271
sg8
I00
sg9
g2267
ssS'opportunistic'
p2272
(dp2273
g3
g4
((lp2274
tp2275
Rp2276
sg8
I00
sg9
g2272
ssS'nonsubscriber'
p2277
(dp2278
g3
g4
((lp2279
tp2280
Rp2281
sg8
I00
sg9
g2277
ssS'regurgitating'
p2282
(dp2283
g3
g4
((lp2284
tp2285
Rp2286
sg8
I00
sg9
g2282
ssS'signification'
p2287
(dp2288
g3
g4
((lp2289
tp2290
Rp2291
sg8
I00
sg9
g2287
ssS'distributions'
p2292
(dp2293
g3
g4
((lp2294
tp2295
Rp2296
sg8
I00
sg9
g2292
ssS'interferences'
p2297
(dp2298
g3
g4
((lp2299
tp2300
Rp2301
sg8
I00
sg9
g2297
ssS'propagandists'
p2302
(dp2303
g3
g4
((lp2304
tp2305
Rp2306
sg8
I00
sg9
g2302
ssS'uselessnesses'
p2307
(dp2308
g3
g4
((lp2309
tp2310
Rp2311
sg8
I00
sg9
g2307
ssS'authoritative'
p2312
(dp2313
g3
g4
((lp2314
tp2315
Rp2316
sg8
I00
sg9
g2312
ssS'capitulations'
p2317
(dp2318
g3
g4
((lp2319
tp2320
Rp2321
sg8
I00
sg9
g2317
ssS'playfulnesses'
p2322
(dp2323
g3
g4
((lp2324
tp2325
Rp2326
sg8
I00
sg9
g2322
ssS'ominousnesses'
p2327
(dp2328
g3
g4
((lp2329
tp2330
Rp2331
sg8
I00
sg9
g2327
ssS'extravasation'
p2332
(dp2333
g3
g4
((lp2334
tp2335
Rp2336
sg8
I00
sg9
g2332
ssS'drunkennesses'
p2337
(dp2338
g3
g4
((lp2339
tp2340
Rp2341
sg8
I00
sg9
g2337
ssS'reinoculating'
p2342
(dp2343
g3
g4
((lp2344
tp2345
Rp2346
sg8
I00
sg9
g2342
ssS'demonstrative'
p2347
(dp2348
g3
g4
((lp2349
tp2350
Rp2351
sg8
I00
sg9
g2347
ssS'miscellaneous'
p2352
(dp2353
g3
g4
((lp2354
tp2355
Rp2356
sg8
I00
sg9
g2352
ssS'improvisation'
p2357
(dp2358
g3
g4
((lp2359
tp2360
Rp2361
sg8
I00
sg9
g2357
ssS'insurrections'
p2362
(dp2363
g3
g4
((lp2364
tp2365
Rp2366
sg8
I00
sg9
g2362
ssS'countenancing'
p2367
(dp2368
g3
g4
((lp2369
tp2370
Rp2371
sg8
I00
sg9
g2367
ssS'preconceiving'
p2372
(dp2373
g3
g4
((lp2374
tp2375
Rp2376
sg8
I00
sg9
g2372
ssS'radioactivity'
p2377
(dp2378
g3
g4
((lp2379
tp2380
Rp2381
sg8
I00
sg9
g2377
ssS'intermountain'
p2382
(dp2383
g3
g4
((lp2384
tp2385
Rp2386
sg8
I00
sg9
g2382
ssS'frightfulness'
p2387
(dp2388
g3
g4
((lp2389
tp2390
Rp2391
sg8
I00
sg9
g2387
ssS'improvidences'
p2392
(dp2393
g3
g4
((lp2394
tp2395
Rp2396
sg8
I00
sg9
g2392
ssS'musicianships'
p2397
(dp2398
g3
g4
((lp2399
tp2400
Rp2401
sg8
I00
sg9
g2397
ssS'genuinenesses'
p2402
(dp2403
g3
g4
((lp2404
tp2405
Rp2406
sg8
I00
sg9
g2402
ssS'irrecoverably'
p2407
(dp2408
g3
g4
((lp2409
S'irrecoverable'
p2410
atp2411
Rp2412
sg8
I00
sg9
g2407
ssS'reformulating'
p2413
(dp2414
g3
g4
((lp2415
tp2416
Rp2417
sg8
I00
sg9
g2413
ssS'multibranched'
p2418
(dp2419
g3
g4
((lp2420
tp2421
Rp2422
sg8
I00
sg9
g2418
ssg2410
(dp2423
g3
g4
((lp2424
g2407
atp2425
Rp2426
sg8
I00
sg9
g2410
ssS'amplification'
p2427
(dp2428
g3
g4
((lp2429
tp2430
Rp2431
sg8
I00
sg9
g2427
ssS'clarification'
p2432
(dp2433
g3
g4
((lp2434
tp2435
Rp2436
sg8
I00
sg9
g2432
ssS'reprehensible'
p2437
(dp2438
g3
g4
((lp2439
S'reprehensibly'
p2440
atp2441
Rp2442
sg8
I00
sg9
g2437
ssS'contemplating'
p2443
(dp2444
g3
g4
((lp2445
S'comtemplating'
p2446
atp2447
Rp2448
sg8
I00
sg9
g2443
ssS'unconcernedly'
p2449
(dp2450
g3
g4
((lp2451
tp2452
Rp2453
sg8
I00
sg9
g2449
ssS'circumstances'
p2454
(dp2455
g3
g4
((lp2456
tp2457
Rp2458
sg8
I00
sg9
g2454
ssS'misstatements'
p2459
(dp2460
g3
g4
((lp2461
tp2462
Rp2463
sg8
I00
sg9
g2459
ssS'handkerchiefs'
p2464
(dp2465
g3
g4
((lp2466
tp2467
Rp2468
sg8
I00
sg9
g2464
ssS'consolidation'
p2469
(dp2470
g3
g4
((lp2471
tp2472
Rp2473
sg8
I00
sg9
g2469
ssS'inadvertences'
p2474
(dp2475
g3
g4
((lp2476
tp2477
Rp2478
sg8
I00
sg9
g2474
ssS'reinvestigate'
p2479
(dp2480
g3
g4
((lp2481
tp2482
Rp2483
sg8
I00
sg9
g2479
ssS'consistencies'
p2484
(dp2485
g3
g4
((lp2486
tp2487
Rp2488
sg8
I00
sg9
g2484
ssS'foregathering'
p2489
(dp2490
g3
g4
((lp2491
tp2492
Rp2493
sg8
I00
sg9
g2489
ssS'matriculating'
p2494
(dp2495
g3
g4
((lp2496
tp2497
Rp2498
sg8
I00
sg9
g2494
ssS'formaldehydes'
p2499
(dp2500
g3
g4
((lp2501
tp2502
Rp2503
sg8
I00
sg9
g2499
ssS'resplendently'
p2504
(dp2505
g3
g4
((lp2506
tp2507
Rp2508
sg8
I00
sg9
g2504
ssS'mawkishnesses'
p2509
(dp2510
g3
g4
((lp2511
tp2512
Rp2513
sg8
I00
sg9
g2509
ssS'inviolability'
p2514
(dp2515
g3
g4
((lp2516
tp2517
Rp2518
sg8
I00
sg9
g2514
ssS'overorganized'
p2519
(dp2520
g3
g4
((lp2521
S'overorganizes'
p2522
atp2523
Rp2524
sg8
I00
sg9
g2519
ssS'insignificant'
p2525
(dp2526
g3
g4
((lp2527
tp2528
Rp2529
sg8
I00
sg9
g2525
ssS'purifications'
p2530
(dp2531
g3
g4
((lp2532
tp2533
Rp2534
sg8
I00
sg9
g2530
ssg2522
(dp2535
g3
g4
((lp2536
g2519
atp2537
Rp2538
sg8
I00
sg9
g2522
ssS'entomological'
p2539
(dp2540
g3
g4
((lp2541
tp2542
Rp2543
sg8
I00
sg9
g2539
ssS'genuflections'
p2544
(dp2545
g3
g4
((lp2546
tp2547
Rp2548
sg8
I00
sg9
g2544
ssS'victimization'
p2549
(dp2550
g3
g4
((lp2551
tp2552
Rp2553
sg8
I00
sg9
g2549
ssS'subscriptions'
p2554
(dp2555
g3
g4
((lp2556
tp2557
Rp2558
sg8
I00
sg9
g2554
ssS'illustrations'
p2559
(dp2560
g3
g4
((lp2561
tp2562
Rp2563
sg8
I00
sg9
g2559
ssS'international'
p2564
(dp2565
g3
g4
((lp2566
tp2567
Rp2568
sg8
I00
sg9
g2564
ssS'prescriptions'
p2569
(dp2570
g3
g4
((lp2571
S'proscriptions'
p2572
atp2573
Rp2574
sg8
I00
sg9
g2569
ssS'hopefulnesses'
p2575
(dp2576
g3
g4
((lp2577
tp2578
Rp2579
sg8
I00
sg9
g2575
ssS'involuntarily'
p2580
(dp2581
g3
g4
((lp2582
tp2583
Rp2584
sg8
I00
sg9
g2580
ssS'maltreatments'
p2585
(dp2586
g3
g4
((lp2587
tp2588
Rp2589
sg8
I00
sg9
g2585
ssS'overidealizes'
p2590
(dp2591
g3
g4
((lp2592
S'overidealized'
p2593
atp2594
Rp2595
sg8
I00
sg9
g2590
ssS'counterreform'
p2596
(dp2597
g3
g4
((lp2598
tp2599
Rp2600
sg8
I00
sg9
g2596
ssS'somnambulists'
p2601
(dp2602
g3
g4
((lp2603
tp2604
Rp2605
sg8
I00
sg9
g2601
ssS'terminologies'
p2606
(dp2607
g3
g4
((lp2608
tp2609
Rp2610
sg8
I00
sg9
g2606
ssS'assassinating'
p2611
(dp2612
g3
g4
((lp2613
tp2614
Rp2615
sg8
I00
sg9
g2611
ssS'seasicknesses'
p2616
(dp2617
g3
g4
((lp2618
tp2619
Rp2620
sg8
I00
sg9
g2616
ssS'petrifactions'
p2621
(dp2622
g3
g4
((lp2623
tp2624
Rp2625
sg8
I00
sg9
g2621
ssS'reabstracting'
p2626
(dp2627
g3
g4
((lp2628
tp2629
Rp2630
sg8
I00
sg9
g2626
ssS'antiapartheid'
p2631
(dp2632
g3
g4
((lp2633
tp2634
Rp2635
sg8
I00
sg9
g2631
ssS'verifications'
p2636
(dp2637
g3
g4
((lp2638
tp2639
Rp2640
sg8
I00
sg9
g2636
ssS'actualization'
p2641
(dp2642
g3
g4
((lp2643
tp2644
Rp2645
sg8
I00
sg9
g2641
ssS'interrelating'
p2646
(dp2647
g3
g4
((lp2648
tp2649
Rp2650
sg8
I00
sg9
g2646
ssS'matrimonially'
p2651
(dp2652
g3
g4
((lp2653
tp2654
Rp2655
sg8
I00
sg9
g2651
ssS'inquisitively'
p2656
(dp2657
g3
g4
((lp2658
tp2659
Rp2660
sg8
I00
sg9
g2656
ssg500
(dp2661
g3
g4
((lp2662
g497
atp2663
Rp2664
sg8
I00
sg9
g500
ssS'noninfectious'
p2665
(dp2666
g3
g4
((lp2667
tp2668
Rp2669
sg8
I00
sg9
g2665
ssS'ferociousness'
p2670
(dp2671
g3
g4
((lp2672
tp2673
Rp2674
sg8
I00
sg9
g2670
ssS'selfishnesses'
p2675
(dp2676
g3
g4
((lp2677
tp2678
Rp2679
sg8
I00
sg9
g2675
ssS'nondegradable'
p2680
(dp2681
g3
g4
((lp2682
tp2683
Rp2684
sg8
I00
sg9
g2680
ssS'stenographers'
p2685
(dp2686
g3
g4
((lp2687
tp2688
Rp2689
sg8
I00
sg9
g2685
ssS'resuscitation'
p2690
(dp2691
g3
g4
((lp2692
tp2693
Rp2694
sg8
I00
sg9
g2690
ssS'granularities'
p2695
(dp2696
g3
g4
((lp2697
tp2698
Rp2699
sg8
I00
sg9
g2695
ssS'quarterbacked'
p2700
(dp2701
g3
g4
((lp2702
tp2703
Rp2704
sg8
I00
sg9
g2700
ssS'condescension'
p2705
(dp2706
g3
g4
((lp2707
tp2708
Rp2709
sg8
I00
sg9
g2705
ssS'retrospection'
p2710
(dp2711
g3
g4
((lp2712
tp2713
Rp2714
sg8
I00
sg9
g2710
ssS'wrongheadedly'
p2715
(dp2716
g3
g4
((lp2717
tp2718
Rp2719
sg8
I00
sg9
g2715
ssS'dermatologist'
p2720
(dp2721
g3
g4
((lp2722
tp2723
Rp2724
sg8
I00
sg9
g2720
ssS'misconception'
p2725
(dp2726
g3
g4
((lp2727
tp2728
Rp2729
sg8
I00
sg9
g2725
ssS'sharpshooting'
p2730
(dp2731
g3
g4
((lp2732
tp2733
Rp2734
sg8
I00
sg9
g2730
ssS'organizations'
p2735
(dp2736
g3
g4
((lp2737
tp2738
Rp2739
sg8
I00
sg9
g2735
ssS'instructional'
p2740
(dp2741
g3
g4
((lp2742
tp2743
Rp2744
sg8
I00
sg9
g2740
ssS'preponderance'
p2745
(dp2746
g3
g4
((lp2747
tp2748
Rp2749
sg8
I00
sg9
g2745
ssS'hydrochloride'
p2750
(dp2751
g3
g4
((lp2752
tp2753
Rp2754
sg8
I00
sg9
g2750
ssS'indescribable'
p2755
(dp2756
g3
g4
((lp2757
S'indescribably'
p2758
atp2759
Rp2760
sg8
I00
sg9
g2755
ssS'preliminaries'
p2761
(dp2762
g3
g4
((lp2763
tp2764
Rp2765
sg8
I00
sg9
g2761
ssg2758
(dp2766
g3
g4
((lp2767
g2755
atp2768
Rp2769
sg8
I00
sg9
g2758
ssS'subdepartment'
p2770
(dp2771
g3
g4
((lp2772
tp2773
Rp2774
sg8
I00
sg9
g2770
ssS'predominating'
p2775
(dp2776
g3
g4
((lp2777
tp2778
Rp2779
sg8
I00
sg9
g2775
ssS'invigorations'
p2780
(dp2781
g3
g4
((lp2782
tp2783
Rp2784
sg8
I00
sg9
g2780
ssS'unconditional'
p2785
(dp2786
g3
g4
((lp2787
tp2788
Rp2789
sg8
I00
sg9
g2785
ssS'metallurgical'
p2790
(dp2791
g3
g4
((lp2792
tp2793
Rp2794
sg8
I00
sg9
g2790
ssS'righteousness'
p2795
(dp2796
g3
g4
((lp2797
tp2798
Rp2799
sg8
I00
sg9
g2795
ssS'significances'
p2800
(dp2801
g3
g4
((lp2802
tp2803
Rp2804
sg8
I00
sg9
g2800
ssS'cosignatories'
p2805
(dp2806
g3
g4
((lp2807
tp2808
Rp2809
sg8
I00
sg9
g2805
ssS'overproducing'
p2810
(dp2811
g3
g4
((lp2812
tp2813
Rp2814
sg8
I00
sg9
g2810
ssS'parliamentary'
p2815
(dp2816
g3
g4
((lp2817
tp2818
Rp2819
sg8
I00
sg9
g2815
ssS'meteorologies'
p2820
(dp2821
g3
g4
((lp2822
tp2823
Rp2824
sg8
I00
sg9
g2820
ssS'overextension'
p2825
(dp2826
g3
g4
((lp2827
tp2828
Rp2829
sg8
I00
sg9
g2825
ssS'continuousity'
p2830
(dp2831
g3
g4
((lp2832
tp2833
Rp2834
sg8
I00
sg9
g2830
ssS'mismanagement'
p2835
(dp2836
g3
g4
((lp2837
tp2838
Rp2839
sg8
I00
sg9
g2835
ssS'irresolutions'
p2840
(dp2841
g3
g4
((lp2842
tp2843
Rp2844
sg8
I00
sg9
g2840
ssS'interrogative'
p2845
(dp2846
g3
g4
((lp2847
tp2848
Rp2849
sg8
I00
sg9
g2845
ssS'infringements'
p2850
(dp2851
g3
g4
((lp2852
tp2853
Rp2854
sg8
I00
sg9
g2850
ssS'displacements'
p2855
(dp2856
g3
g4
((lp2857
tp2858
Rp2859
sg8
I00
sg9
g2855
ssS'minicomputers'
p2860
(dp2861
g3
g4
((lp2862
tp2863
Rp2864
sg8
I00
sg9
g2860
ssS'propitiations'
p2865
(dp2866
g3
g4
((lp2867
tp2868
Rp2869
sg8
I00
sg9
g2865
ssS'subcommission'
p2870
(dp2871
g3
g4
((lp2872
tp2873
Rp2874
sg8
I00
sg9
g2870
ssS'cohabitations'
p2875
(dp2876
g3
g4
((lp2877
tp2878
Rp2879
sg8
I00
sg9
g2875
ssS'heartbreaking'
p2880
(dp2881
g3
g4
((lp2882
tp2883
Rp2884
sg8
I00
sg9
g2880
ssS'psychoanalyze'
p2885
(dp2886
g3
g4
((lp2887
tp2888
Rp2889
sg8
I00
sg9
g2885
ssS'heterosexuals'
p2890
(dp2891
g3
g4
((lp2892
tp2893
Rp2894
sg8
I00
sg9
g2890
ssS'compatibility'
p2895
(dp2896
g3
g4
((lp2897
S'compatability'
p2898
atp2899
Rp2900
sg8
I00
sg9
g2895
ssS'indifferently'
p2901
(dp2902
g3
g4
((lp2903
tp2904
Rp2905
sg8
I00
sg9
g2901
ssS'infallibility'
p2906
(dp2907
g3
g4
((lp2908
tp2909
Rp2910
sg8
I00
sg9
g2906
ssS'disheartening'
p2911
(dp2912
g3
g4
((lp2913
tp2914
Rp2915
sg8
I00
sg9
g2911
ssS'interactively'
p2916
(dp2917
g3
g4
((lp2918
tp2919
Rp2920
sg8
I00
sg9
g2916
ssS'nationalistic'
p2921
(dp2922
g3
g4
((lp2923
tp2924
Rp2925
sg8
I00
sg9
g2921
ssS'condensations'
p2926
(dp2927
g3
g4
((lp2928
tp2929
Rp2930
sg8
I00
sg9
g2926
ssS'progressively'
p2931
(dp2932
g3
g4
((lp2933
tp2934
Rp2935
sg8
I00
sg9
g2931
ssS'dermatologies'
p2936
(dp2937
g3
g4
((lp2938
tp2939
Rp2940
sg8
I00
sg9
g2936
ssS'topographical'
p2941
(dp2942
g3
g4
((lp2943
S'typographical'
p2944
atp2945
Rp2946
sg8
I00
sg9
g2941
ssS'idiosyncratic'
p2947
(dp2948
g3
g4
((lp2949
tp2950
Rp2951
sg8
I00
sg9
g2947
ssS'illuminations'
p2952
(dp2953
g3
g4
((lp2954
tp2955
Rp2956
sg8
I00
sg9
g2952
ssS'recrimination'
p2957
(dp2958
g3
g4
((lp2959
tp2960
Rp2961
sg8
I00
sg9
g2957
ssS'infertilities'
p2962
(dp2963
g3
g4
((lp2964
tp2965
Rp2966
sg8
I00
sg9
g2962
ssS'nonaffiliated'
p2967
(dp2968
g3
g4
((lp2969
tp2970
Rp2971
sg8
I00
sg9
g2967
ssS'lithographies'
p2972
(dp2973
g3
g4
((lp2974
tp2975
Rp2976
sg8
I00
sg9
g2972
ssS'nonparametric'
p2977
(dp2978
g3
g4
((lp2979
tp2980
Rp2981
sg8
I00
sg9
g2977
ssS'introductions'
p2982
(dp2983
g3
g4
((lp2984
tp2985
Rp2986
sg8
I00
sg9
g2982
ssS'ungentlemanly'
p2987
(dp2988
g3
g4
((lp2989
tp2990
Rp2991
sg8
I00
sg9
g2987
ssS'consolidating'
p2992
(dp2993
g3
g4
((lp2994
tp2995
Rp2996
sg8
I00
sg9
g2992
ssS'microorganism'
p2997
(dp2998
g3
g4
((lp2999
tp3000
Rp3001
sg8
I00
sg9
g2997
ssS'paradoxically'
p3002
(dp3003
g3
g4
((lp3004
tp3005
Rp3006
sg8
I00
sg9
g3002
ssS'objectivities'
p3007
(dp3008
g3
g4
((lp3009
tp3010
Rp3011
sg8
I00
sg9
g3007
ssS'microcomputer'
p3012
(dp3013
g3
g4
((lp3014
tp3015
Rp3016
sg8
I00
sg9
g3012
ssS'insidiousness'
p3017
(dp3018
g3
g4
((lp3019
tp3020
Rp3021
sg8
I00
sg9
g3017
ssS'overglamorize'
p3022
(dp3023
g3
g4
((lp3024
tp3025
Rp3026
sg8
I00
sg9
g3022
ssS'consequential'
p3027
(dp3028
g3
g4
((lp3029
tp3030
Rp3031
sg8
I00
sg9
g3027
ssS'muscularities'
p3032
(dp3033
g3
g4
((lp3034
tp3035
Rp3036
sg8
I00
sg9
g3032
ssS'transparently'
p3037
(dp3038
g3
g4
((lp3039
tp3040
Rp3041
sg8
I00
sg9
g3037
ssS'expansiveness'
p3042
(dp3043
g3
g4
((lp3044
tp3045
Rp3046
sg8
I00
sg9
g3042
ssS'prolongations'
p3047
(dp3048
g3
g4
((lp3049
tp3050
Rp3051
sg8
I00
sg9
g3047
ssS'conversations'
p3052
(dp3053
g3
g4
((lp3054
tp3055
Rp3056
sg8
I00
sg9
g3052
ssS'preanesthetic'
p3057
(dp3058
g3
g4
((lp3059
tp3060
Rp3061
sg8
I00
sg9
g3057
ssS'inconsequence'
p3062
(dp3063
g3
g4
((lp3064
tp3065
Rp3066
sg8
I00
sg9
g3062
ssS'momentousment'
p3067
(dp3068
g3
g4
((lp3069
tp3070
Rp3071
sg8
I00
sg9
g3067
ssS'hotheadedness'
p3072
(dp3073
g3
g4
((lp3074
tp3075
Rp3076
sg8
I00
sg9
g3072
ssS'republicanism'
p3077
(dp3078
g3
g4
((lp3079
tp3080
Rp3081
sg8
I00
sg9
g3077
ssS'orderlinesses'
p3082
(dp3083
g3
g4
((lp3084
tp3085
Rp3086
sg8
I00
sg9
g3082
ssS'multidwelling'
p3087
(dp3088
g3
g4
((lp3089
tp3090
Rp3091
sg8
I00
sg9
g3087
ssS'sensibilities'
p3092
(dp3093
g3
g4
((lp3094
tp3095
Rp3096
sg8
I00
sg9
g3092
ssS'possibilities'
p3097
(dp3098
g3
g4
((lp3099
tp3100
Rp3101
sg8
I00
sg9
g3097
ssS'monosyllablic'
p3102
(dp3103
g3
g4
((lp3104
tp3105
Rp3106
sg8
I00
sg9
g3102
ssS'cannibalistic'
p3107
(dp3108
g3
g4
((lp3109
tp3110
Rp3111
sg8
I00
sg9
g3107
ssS'instabilities'
p3112
(dp3113
g3
g4
((lp3114
tp3115
Rp3116
sg8
I00
sg9
g3112
ssS'personalizing'
p3117
(dp3118
g3
g4
((lp3119
tp3120
Rp3121
sg8
I00
sg9
g3117
ssS'significantly'
p3122
(dp3123
g3
g4
((lp3124
tp3125
Rp3126
sg8
I00
sg9
g3122
ssS'arbitrariness'
p3127
(dp3128
g3
g4
((lp3129
tp3130
Rp3131
sg8
I00
sg9
g3127
ssS'convalescence'
p3132
(dp3133
g3
g4
((lp3134
tp3135
Rp3136
sg8
I00
sg9
g3132
ssS'astonishments'
p3137
(dp3138
g3
g4
((lp3139
tp3140
Rp3141
sg8
I00
sg9
g3137
ssS'unemployments'
p3142
(dp3143
g3
g4
((lp3144
tp3145
Rp3146
sg8
I00
sg9
g3142
ssS'perspirations'
p3147
(dp3148
g3
g4
((lp3149
tp3150
Rp3151
sg8
I00
sg9
g3147
ssS'inconceivably'
p3152
(dp3153
g3
g4
((lp3154
S'inconceivable'
p3155
atp3156
Rp3157
sg8
I00
sg9
g3152
ssS'parallelogram'
p3158
(dp3159
g3
g4
((lp3160
tp3161
Rp3162
sg8
I00
sg9
g3158
ssS'investigation'
p3163
(dp3164
g3
g4
((lp3165
tp3166
Rp3167
sg8
I00
sg9
g3163
ssS'reexamination'
p3168
(dp3169
g3
g4
((lp3170
tp3171
Rp3172
sg8
I00
sg9
g3168
ssS'preadolescent'
p3173
(dp3174
g3
g4
((lp3175
tp3176
Rp3177
sg8
I00
sg9
g3173
ssS'recalculating'
p3178
(dp3179
g3
g4
((lp3180
tp3181
Rp3182
sg8
I00
sg9
g3178
ssS'disintegrated'
p3183
(dp3184
g3
g4
((lp3185
S'disintegrates'
p3186
atp3187
Rp3188
sg8
I00
sg9
g3183
ssS'postoperative'
p3189
(dp3190
g3
g4
((lp3191
tp3192
Rp3193
sg8
I00
sg9
g3189
ssS'singularities'
p3194
(dp3195
g3
g4
((lp3196
tp3197
Rp3198
sg8
I00
sg9
g3194
ssS'eccentrically'
p3199
(dp3200
g3
g4
((lp3201
tp3202
Rp3203
sg8
I00
sg9
g3199
ssg3186
(dp3204
g3
g4
((lp3205
g3183
atp3206
Rp3207
sg8
I00
sg9
g3186
ssS'restrictively'
p3208
(dp3209
g3
g4
((lp3210
tp3211
Rp3212
sg8
I00
sg9
g3208
ssS'commonwealths'
p3213
(dp3214
g3
g4
((lp3215
tp3216
Rp3217
sg8
I00
sg9
g3213
ssS'accommodation'
p3218
(dp3219
g3
g4
((lp3220
tp3221
Rp3222
sg8
I00
sg9
g3218
ssS'perfectnesses'
p3223
(dp3224
g3
g4
((lp3225
tp3226
Rp3227
sg8
I00
sg9
g3223
ssS'contemplation'
p3228
(dp3229
g3
g4
((lp3230
tp3231
Rp3232
sg8
I00
sg9
g3228
ssS'overmedicated'
p3233
(dp3234
g3
g4
((lp3235
S'overmedicates'
p3236
atp3237
Rp3238
sg8
I00
sg9
g3233
ssS'corroborating'
p3239
(dp3240
g3
g4
((lp3241
tp3242
Rp3243
sg8
I00
sg9
g3239
ssg3236
(dp3244
g3
g4
((lp3245
g3233
atp3246
Rp3247
sg8
I00
sg9
g3236
ssS'preconception'
p3248
(dp3249
g3
g4
((lp3250
tp3251
Rp3252
sg8
I00
sg9
g3248
ssS'underexposing'
p3253
(dp3254
g3
g4
((lp3255
tp3256
Rp3257
sg8
I00
sg9
g3253
ssS'excommunicate'
p3258
(dp3259
g3
g4
((lp3260
tp3261
Rp3262
sg8
I00
sg9
g3258
ssS'sarcastically'
p3263
(dp3264
g3
g4
((lp3265
tp3266
Rp3267
sg8
I00
sg9
g3263
ssS'philosophizes'
p3268
(dp3269
g3
g4
((lp3270
S'philosophized'
p3271
atp3272
Rp3273
sg8
I00
sg9
g3268
ssS'commercialize'
p3274
(dp3275
g3
g4
((lp3276
tp3277
Rp3278
sg8
I00
sg9
g3274
ssg3271
(dp3279
g3
g4
((lp3280
g3268
atp3281
Rp3282
sg8
I00
sg9
g3271
ssS'commissioners'
p3283
(dp3284
g3
g4
((lp3285
tp3286
Rp3287
sg8
I00
sg9
g3283
ssS'awkwardnesses'
p3288
(dp3289
g3
g4
((lp3290
tp3291
Rp3292
sg8
I00
sg9
g3288
ssS'disinterested'
p3293
(dp3294
g3
g4
((lp3295
tp3296
Rp3297
sg8
I00
sg9
g3293
ssS'personalities'
p3298
(dp3299
g3
g4
((lp3300
tp3301
Rp3302
sg8
I00
sg9
g3298
ssS'soliloquizing'
p3303
(dp3304
g3
g4
((lp3305
tp3306
Rp3307
sg8
I00
sg9
g3303
ssS'appreciations'
p3308
(dp3309
g3
g4
((lp3310
tp3311
Rp3312
sg8
I00
sg9
g3308
ssS'insincerities'
p3313
(dp3314
g3
g4
((lp3315
tp3316
Rp3317
sg8
I00
sg9
g3313
ssS'reconsolidate'
p3318
(dp3319
g3
g4
((lp3320
tp3321
Rp3322
sg8
I00
sg9
g3318
ssS'instantaneous'
p3323
(dp3324
g3
g4
((lp3325
tp3326
Rp3327
sg8
I00
sg9
g3323
ssS'outspokenness'
p3328
(dp3329
g3
g4
((lp3330
tp3331
Rp3332
sg8
I00
sg9
g3328
ssS'microscopical'
p3333
(dp3334
g3
g4
((lp3335
tp3336
Rp3337
sg8
I00
sg9
g3333
ssg2944
(dp3338
g3
g4
((lp3339
g2941
atp3340
Rp3341
sg8
I00
sg9
g2944
ssS'protestations'
p3342
(dp3343
g3
g4
((lp3344
tp3345
Rp3346
sg8
I00
sg9
g3342
ssS'hyperuricemia'
p3347
(dp3348
g3
g4
((lp3349
tp3350
Rp3351
sg8
I00
sg9
g3347
ssS'preservatives'
p3352
(dp3353
g3
g4
((lp3354
tp3355
Rp3356
sg8
I00
sg9
g3352
ssS'inexpressible'
p3357
(dp3358
g3
g4
((lp3359
S'inexpressibly'
p3360
atp3361
Rp3362
sg8
I00
sg9
g3357
ssS'viscountesses'
p3363
(dp3364
g3
g4
((lp3365
tp3366
Rp3367
sg8
I00
sg9
g3363
ssg3360
(dp3368
g3
g4
((lp3369
g3357
atp3370
Rp3371
sg8
I00
sg9
g3360
ssS'intrinsically'
p3372
(dp3373
g3
g4
((lp3374
tp3375
Rp3376
sg8
I00
sg9
g3372
ssS'unfortunately'
p3377
(dp3378
g3
g4
((lp3379
tp3380
Rp3381
sg8
I00
sg9
g3377
ssS'alphanumerics'
p3382
(dp3383
g3
g4
((lp3384
tp3385
Rp3386
sg8
I00
sg9
g3382
ssS'judiciousness'
p3387
(dp3388
g3
g4
((lp3389
tp3390
Rp3391
sg8
I00
sg9
g3387
ssS'galvanization'
p3392
(dp3393
g3
g4
((lp3394
tp3395
Rp3396
sg8
I00
sg9
g3392
ssS'receptionists'
p3397
(dp3398
g3
g4
((lp3399
tp3400
Rp3401
sg8
I00
sg9
g3397
ssS'amphitheaters'
p3402
(dp3403
g3
g4
((lp3404
tp3405
Rp3406
sg8
I00
sg9
g3402
ssS'racketeerings'
p3407
(dp3408
g3
g4
((lp3409
tp3410
Rp3411
sg8
I00
sg9
g3407
ssS'improbability'
p3412
(dp3413
g3
g4
((lp3414
tp3415
Rp3416
sg8
I00
sg9
g3412
ssS'incontestably'
p3417
(dp3418
g3
g4
((lp3419
S'incontestable'
p3420
atp3421
Rp3422
sg8
I00
sg9
g3417
ssS'southernwards'
p3423
(dp3424
g3
g4
((lp3425
tp3426
Rp3427
sg8
I00
sg9
g3423
ssg3420
(dp3428
g3
g4
((lp3429
g3417
atp3430
Rp3431
sg8
I00
sg9
g3420
ssS'binationalism'
p3432
(dp3433
g3
g4
((lp3434
tp3435
Rp3436
sg8
I00
sg9
g3432
ssS'clarinettists'
p3437
(dp3438
g3
g4
((lp3439
tp3440
Rp3441
sg8
I00
sg9
g3437
ssS'elaborateness'
p3442
(dp3443
g3
g4
((lp3444
tp3445
Rp3446
sg8
I00
sg9
g3442
ssS'commissioning'
p3447
(dp3448
g3
g4
((lp3449
tp3450
Rp3451
sg8
I00
sg9
g3447
ssS'abnormalities'
p3452
(dp3453
g3
g4
((lp3454
tp3455
Rp3456
sg8
I00
sg9
g3452
ssS'mispronounces'
p3457
(dp3458
g3
g4
((lp3459
S'mispronounced'
p3460
atp3461
Rp3462
sg8
I00
sg9
g3457
ssS'astonishingly'
p3463
(dp3464
g3
g4
((lp3465
tp3466
Rp3467
sg8
I00
sg9
g3463
ssS'sanctimonious'
p3468
(dp3469
g3
g4
((lp3470
tp3471
Rp3472
sg8
I00
sg9
g3468
ssS'transcription'
p3473
(dp3474
g3
g4
((lp3475
tp3476
Rp3477
sg8
I00
sg9
g3473
ssS'physiologists'
p3478
(dp3479
g3
g4
((lp3480
tp3481
Rp3482
sg8
I00
sg9
g3478
ssg3460
(dp3483
g3
g4
((lp3484
g3457
atp3485
Rp3486
sg8
I00
sg9
g3460
ssS'interbusiness'
p3487
(dp3488
g3
g4
((lp3489
tp3490
Rp3491
sg8
I00
sg9
g3487
ssS'resurrections'
p3492
(dp3493
g3
g4
((lp3494
tp3495
Rp3496
sg8
I00
sg9
g3492
ssS'supplications'
p3497
(dp3498
g3
g4
((lp3499
tp3500
Rp3501
sg8
I00
sg9
g3497
ssS'straightening'
p3502
(dp3503
g3
g4
((lp3504
tp3505
Rp3506
sg8
I00
sg9
g3502
ssS'healthfulness'
p3507
(dp3508
g3
g4
((lp3509
tp3510
Rp3511
sg8
I00
sg9
g3507
ssS'appurtenances'
p3512
(dp3513
g3
g4
((lp3514
tp3515
Rp3516
sg8
I00
sg9
g3512
ssS'intergalactic'
p3517
(dp3518
g3
g4
((lp3519
tp3520
Rp3521
sg8
I00
sg9
g3517
ssS'restimulating'
p3522
(dp3523
g3
g4
((lp3524
tp3525
Rp3526
sg8
I00
sg9
g3522
ssg1475
(dp3527
g3
g4
((lp3528
g1472
atp3529
Rp3530
sg8
I00
sg9
g1475
ssS'impoverishing'
p3531
(dp3532
g3
g4
((lp3533
tp3534
Rp3535
sg8
I00
sg9
g3531
ssS'antivandalism'
p3536
(dp3537
g3
g4
((lp3538
tp3539
Rp3540
sg8
I00
sg9
g3536
ssS'centripetally'
p3541
(dp3542
g3
g4
((lp3543
tp3544
Rp3545
sg8
I00
sg9
g3541
ssS'breakthroughs'
p3546
(dp3547
g3
g4
((lp3548
tp3549
Rp3550
sg8
I00
sg9
g3546
ssS'spontaneities'
p3551
(dp3552
g3
g4
((lp3553
tp3554
Rp3555
sg8
I00
sg9
g3551
ssS'coproductions'
p3556
(dp3557
g3
g4
((lp3558
tp3559
Rp3560
sg8
I00
sg9
g3556
ssg2194
(dp3561
g3
g4
((lp3562
g2191
atp3563
Rp3564
sg8
I00
sg9
g2194
ssS'understudying'
p3565
(dp3566
g3
g4
((lp3567
tp3568
Rp3569
sg8
I00
sg9
g3565
ssS'horsemanships'
p3570
(dp3571
g3
g4
((lp3572
tp3573
Rp3574
sg8
I00
sg9
g3570
ssS'introversions'
p3575
(dp3576
g3
g4
((lp3577
tp3578
Rp3579
sg8
I00
sg9
g3575
ssS'certification'
p3580
(dp3581
g3
g4
((lp3582
tp3583
Rp3584
sg8
I00
sg9
g3580
ssS'countereffort'
p3585
(dp3586
g3
g4
((lp3587
tp3588
Rp3589
sg8
I00
sg9
g3585
ssS'counterpoints'
p3590
(dp3591
g3
g4
((lp3592
tp3593
Rp3594
sg8
I00
sg9
g3590
ssS'pretelevision'
p3595
(dp3596
g3
g4
((lp3597
tp3598
Rp3599
sg8
I00
sg9
g3595
ssS'transistorize'
p3600
(dp3601
g3
g4
((lp3602
tp3603
Rp3604
sg8
I00
sg9
g3600
ssS'anticollision'
p3605
(dp3606
g3
g4
((lp3607
tp3608
Rp3609
sg8
I00
sg9
g3605
ssS'industrialize'
p3610
(dp3611
g3
g4
((lp3612
tp3613
Rp3614
sg8
I00
sg9
g3610
ssS'marchionesses'
p3615
(dp3616
g3
g4
((lp3617
tp3618
Rp3619
sg8
I00
sg9
g3615
ssS'preternatural'
p3620
(dp3621
g3
g4
((lp3622
tp3623
Rp3624
sg8
I00
sg9
g3620
ssS'nonrefillable'
p3625
(dp3626
g3
g4
((lp3627
tp3628
Rp3629
sg8
I00
sg9
g3625
ssS'disconcerting'
p3630
(dp3631
g3
g4
((lp3632
tp3633
Rp3634
sg8
I00
sg9
g3630
ssS'gerrymandered'
p3635
(dp3636
g3
g4
((lp3637
tp3638
Rp3639
sg8
I00
sg9
g3635
ssS'sensitivities'
p3640
(dp3641
g3
g4
((lp3642
tp3643
Rp3644
sg8
I00
sg9
g3640
ssS'administrants'
p3645
(dp3646
g3
g4
((lp3647
tp3648
Rp3649
sg8
I00
sg9
g3645
ssS'roguishnesses'
p3650
(dp3651
g3
g4
((lp3652
tp3653
Rp3654
sg8
I00
sg9
g3650
ssS'misconceiving'
p3655
(dp3656
g3
g4
((lp3657
tp3658
Rp3659
sg8
I00
sg9
g3655
ssS'resuscitators'
p3660
(dp3661
g3
g4
((lp3662
tp3663
Rp3664
sg8
I00
sg9
g3660
ssS'interregional'
p3665
(dp3666
g3
g4
((lp3667
tp3668
Rp3669
sg8
I00
sg9
g3665
ssS'unconsciously'
p3670
(dp3671
g3
g4
((lp3672
tp3673
Rp3674
sg8
I00
sg9
g3670
ssS'mechanization'
p3675
(dp3676
g3
g4
((lp3677
tp3678
Rp3679
sg8
I00
sg9
g3675
ssS'symmetrically'
p3680
(dp3681
g3
g4
((lp3682
tp3683
Rp3684
sg8
I00
sg9
g3680
ssS'disentangling'
p3685
(dp3686
g3
g4
((lp3687
tp3688
Rp3689
sg8
I00
sg9
g3685
ssS'attentiveness'
p3690
(dp3691
g3
g4
((lp3692
tp3693
Rp3694
sg8
I00
sg9
g3690
ssS'momentousness'
p3695
(dp3696
g3
g4
((lp3697
tp3698
Rp3699
sg8
I00
sg9
g3695
ssS'superheroines'
p3700
(dp3701
g3
g4
((lp3702
tp3703
Rp3704
sg8
I00
sg9
g3700
ssg757
(dp3705
g3
g4
((lp3706
g754
atp3707
Rp3708
sg8
I00
sg9
g757
ssS'overfatiguing'
p3709
(dp3710
g3
g4
((lp3711
tp3712
Rp3713
sg8
I00
sg9
g3709
ssS'craftsmanship'
p3714
(dp3715
g3
g4
((lp3716
S'craftsmenship'
p3717
atp3718
Rp3719
sg8
I00
sg9
g3714
ssS'ichthyologist'
p3720
(dp3721
g3
g4
((lp3722
tp3723
Rp3724
sg8
I00
sg9
g3720
ssS'despondencies'
p3725
(dp3726
g3
g4
((lp3727
tp3728
Rp3729
sg8
I00
sg9
g3725
ssS'underclothing'
p3730
(dp3731
g3
g4
((lp3732
tp3733
Rp3734
sg8
I00
sg9
g3730
ssS'malformations'
p3735
(dp3736
g3
g4
((lp3737
tp3738
Rp3739
sg8
I00
sg9
g3735
ssS'presentiments'
p3740
(dp3741
g3
g4
((lp3742
tp3743
Rp3744
sg8
I00
sg9
g3740
ssS'preregistered'
p3745
(dp3746
g3
g4
((lp3747
tp3748
Rp3749
sg8
I00
sg9
g3745
ssS'implacability'
p3750
(dp3751
g3
g4
((lp3752
tp3753
Rp3754
sg8
I00
sg9
g3750
ssS'raffishnesses'
p3755
(dp3756
g3
g4
((lp3757
tp3758
Rp3759
sg8
I00
sg9
g3755
ssS'physiognomies'
p3760
(dp3761
g3
g4
((lp3762
tp3763
Rp3764
sg8
I00
sg9
g3760
ssS'repressurized'
p3765
(dp3766
g3
g4
((lp3767
S'repressurizes'
p3768
atp3769
Rp3770
sg8
I00
sg9
g3765
ssS'overachievers'
p3771
(dp3772
g3
g4
((lp3773
tp3774
Rp3775
sg8
I00
sg9
g3771
ssS'exterminating'
p3776
(dp3777
g3
g4
((lp3778
tp3779
Rp3780
sg8
I00
sg9
g3776
ssS'corroboration'
p3781
(dp3782
g3
g4
((lp3783
tp3784
Rp3785
sg8
I00
sg9
g3781
ssS'subcontracted'
p3786
(dp3787
g3
g4
((lp3788
tp3789
Rp3790
sg8
I00
sg9
g3786
ssS'extragalactic'
p3791
(dp3792
g3
g4
((lp3793
tp3794
Rp3795
sg8
I00
sg9
g3791
ssS'dismemberment'
p3796
(dp3797
g3
g4
((lp3798
tp3799
Rp3800
sg8
I00
sg9
g3796
ssS'preelectronic'
p3801
(dp3802
g3
g4
((lp3803
tp3804
Rp3805
sg8
I00
sg9
g3801
ssS'renouncements'
p3806
(dp3807
g3
g4
((lp3808
tp3809
Rp3810
sg8
I00
sg9
g3806
ssS'untrustworthy'
p3811
(dp3812
g3
g4
((lp3813
tp3814
Rp3815
sg8
I00
sg9
g3811
ssS'phraseologies'
p3816
(dp3817
g3
g4
((lp3818
tp3819
Rp3820
sg8
I00
sg9
g3816
ssS'recriminating'
p3821
(dp3822
g3
g4
((lp3823
tp3824
Rp3825
sg8
I00
sg9
g3821
ssS'overharvested'
p3826
(dp3827
g3
g4
((lp3828
tp3829
Rp3830
sg8
I00
sg9
g3826
ssS'disinfectants'
p3831
(dp3832
g3
g4
((lp3833
tp3834
Rp3835
sg8
I00
sg9
g3831
ssS'repletenesses'
p3836
(dp3837
g3
g4
((lp3838
tp3839
Rp3840
sg8
I00
sg9
g3836
ssS'circumference'
p3841
(dp3842
g3
g4
((lp3843
tp3844
Rp3845
sg8
I00
sg9
g3841
ssS'estrangements'
p3846
(dp3847
g3
g4
((lp3848
tp3849
Rp3850
sg8
I00
sg9
g3846
ssS'congregations'
p3851
(dp3852
g3
g4
((lp3853
tp3854
Rp3855
sg8
I00
sg9
g3851
ssS'extravagances'
p3856
(dp3857
g3
g4
((lp3858
tp3859
Rp3860
sg8
I00
sg9
g3856
ssS'noncandidates'
p3861
(dp3862
g3
g4
((lp3863
tp3864
Rp3865
sg8
I00
sg9
g3861
ssS'overpressures'
p3866
(dp3867
g3
g4
((lp3868
tp3869
Rp3870
sg8
I00
sg9
g3866
ssS'reverberation'
p3871
(dp3872
g3
g4
((lp3873
tp3874
Rp3875
sg8
I00
sg9
g3871
ssS'orchestration'
p3876
(dp3877
g3
g4
((lp3878
tp3879
Rp3880
sg8
I00
sg9
g3876
ssS'maintainances'
p3881
(dp3882
g3
g4
((lp3883
tp3884
Rp3885
sg8
I00
sg9
g3881
ssS'rehabilitated'
p3886
(dp3887
g3
g4
((lp3888
S'rehabilitates'
p3889
atp3890
Rp3891
sg8
I00
sg9
g3886
ssS'familiarities'
p3892
(dp3893
g3
g4
((lp3894
tp3895
Rp3896
sg8
I00
sg9
g3892
ssS'newsmagazines'
p3897
(dp3898
g3
g4
((lp3899
tp3900
Rp3901
sg8
I00
sg9
g3897
ssS'extravagantly'
p3902
(dp3903
g3
g4
((lp3904
tp3905
Rp3906
sg8
I00
sg9
g3902
ssS'unenlightened'
p3907
(dp3908
g3
g4
((lp3909
tp3910
Rp3911
sg8
I00
sg9
g3907
ssS'mortification'
p3912
(dp3913
g3
g4
((lp3914
S'fortification'
p3915
atp3916
Rp3917
sg8
I00
sg9
g3912
ssS'swashbuckling'
p3918
(dp3919
g3
g4
((lp3920
tp3921
Rp3922
sg8
I00
sg9
g3918
ssS'companionship'
p3923
(dp3924
g3
g4
((lp3925
tp3926
Rp3927
sg8
I00
sg9
g3923
ssS'suitabilities'
p3928
(dp3929
g3
g4
((lp3930
tp3931
Rp3932
sg8
I00
sg9
g3928
ssS'undercurrents'
p3933
(dp3934
g3
g4
((lp3935
tp3936
Rp3937
sg8
I00
sg9
g3933
ssS'nothingnesses'
p3938
(dp3939
g3
g4
((lp3940
tp3941
Rp3942
sg8
I00
sg9
g3938
ssS'overreliances'
p3943
(dp3944
g3
g4
((lp3945
tp3946
Rp3947
sg8
I00
sg9
g3943
ssS'discontinuing'
p3948
(dp3949
g3
g4
((lp3950
tp3951
Rp3952
sg8
I00
sg9
g3948
ssS'depreciations'
p3953
(dp3954
g3
g4
((lp3955
tp3956
Rp3957
sg8
I00
sg9
g3953
ssS'glockenspiels'
p3958
(dp3959
g3
g4
((lp3960
tp3961
Rp3962
sg8
I00
sg9
g3958
ssS'psychotherapy'
p3963
(dp3964
g3
g4
((lp3965
tp3966
Rp3967
sg8
I00
sg9
g3963
ssS'lycanthropies'
p3968
(dp3969
g3
g4
((lp3970
tp3971
Rp3972
sg8
I00
sg9
g3968
ssg2092
(dp3973
g3
g4
((lp3974
g2089
atp3975
Rp3976
sg8
I00
sg9
g2092
ssS'sharpshooters'
p3977
(dp3978
g3
g4
((lp3979
tp3980
Rp3981
sg8
I00
sg9
g3977
ssS'impertinences'
p3982
(dp3983
g3
g4
((lp3984
tp3985
Rp3986
sg8
I00
sg9
g3982
ssS'incredulities'
p3987
(dp3988
g3
g4
((lp3989
tp3990
Rp3991
sg8
I00
sg9
g3987
ssS'ventriloquism'
p3992
(dp3993
g3
g4
((lp3994
S'ventriloquist'
p3995
atp3996
Rp3997
sg8
I00
sg9
g3992
ssS'nonelectronic'
p3998
(dp3999
g3
g4
((lp4000
tp4001
Rp4002
sg8
I00
sg9
g3998
ssS'admissibility'
p4003
(dp4004
g3
g4
((lp4005
tp4006
Rp4007
sg8
I00
sg9
g4003
ssS'accommodating'
p4008
(dp4009
g3
g4
((lp4010
tp4011
Rp4012
sg8
I00
sg9
g4008
ssS'postgraduates'
p4013
(dp4014
g3
g4
((lp4015
tp4016
Rp4017
sg8
I00
sg9
g4013
ssS'familiarizing'
p4018
(dp4019
g3
g4
((lp4020
tp4021
Rp4022
sg8
I00
sg9
g4018
ssS'investigating'
p4023
(dp4024
g3
g4
((lp4025
tp4026
Rp4027
sg8
I00
sg9
g4023
ssS'transgressors'
p4028
(dp4029
g3
g4
((lp4030
tp4031
Rp4032
sg8
I00
sg9
g4028
ssg3995
(dp4033
g3
g4
((lp4034
g3992
atp4035
Rp4036
sg8
I00
sg9
g3995
ssg3889
(dp4037
g3
g4
((lp4038
g3886
atp4039
Rp4040
sg8
I00
sg9
g3889
ssS'baccalaureate'
p4041
(dp4042
g3
g4
((lp4043
tp4044
Rp4045
sg8
I00
sg9
g4041
ssS'injudiciously'
p4046
(dp4047
g3
g4
((lp4048
tp4049
Rp4050
sg8
I00
sg9
g4046
ssS'misapprehends'
p4051
(dp4052
g3
g4
((lp4053
tp4054
Rp4055
sg8
I00
sg9
g4051
ssS'multifunction'
p4056
(dp4057
g3
g4
((lp4058
tp4059
Rp4060
sg8
I00
sg9
g4056
ssS'cartographers'
p4061
(dp4062
g3
g4
((lp4063
tp4064
Rp4065
sg8
I00
sg9
g4061
ssS'hermaphrodite'
p4066
(dp4067
g3
g4
((lp4068
tp4069
Rp4070
sg8
I00
sg9
g4066
ssS'wakefulnesses'
p4071
(dp4072
g3
g4
((lp4073
tp4074
Rp4075
sg8
I00
sg9
g4071
ssS'alliterations'
p4076
(dp4077
g3
g4
((lp4078
tp4079
Rp4080
sg8
I00
sg9
g4076
ssS'pluralization'
p4081
(dp4082
g3
g4
((lp4083
tp4084
Rp4085
sg8
I00
sg9
g4081
ssS'acquaintances'
p4086
(dp4087
g3
g4
((lp4088
tp4089
Rp4090
sg8
I00
sg9
g4086
ssS'underestimate'
p4091
(dp4092
g3
g4
((lp4093
tp4094
Rp4095
sg8
I00
sg9
g4091
ssS'adjudications'
p4096
(dp4097
g3
g4
((lp4098
tp4099
Rp4100
sg8
I00
sg9
g4096
ssS'caddishnesses'
p4101
(dp4102
g3
g4
((lp4103
tp4104
Rp4105
sg8
I00
sg9
g4101
ssS'infuriatingly'
p4106
(dp4107
g3
g4
((lp4108
tp4109
Rp4110
sg8
I00
sg9
g4106
ssS'disadvantages'
p4111
(dp4112
g3
g4
((lp4113
tp4114
Rp4115
sg8
I00
sg9
g4111
ssS'incarceration'
p4116
(dp4117
g3
g4
((lp4118
tp4119
Rp4120
sg8
I00
sg9
g4116
ssS'antiterrorism'
p4121
(dp4122
g3
g4
((lp4123
S'antiterrorist'
p4124
atp4125
Rp4126
sg8
I00
sg9
g4121
ssS'advertisement'
p4127
(dp4128
g3
g4
((lp4129
tp4130
Rp4131
sg8
I00
sg9
g4127
ssg4124
(dp4132
g3
g4
((lp4133
g4121
atp4134
Rp4135
sg8
I00
sg9
g4124
ssg3768
(dp4136
g3
g4
((lp4137
g3765
atp4138
Rp4139
sg8
I00
sg9
g3768
ssS'officiousness'
p4140
(dp4141
g3
g4
((lp4142
tp4143
Rp4144
sg8
I00
sg9
g4140
ssS'psychiatrists'
p4145
(dp4146
g3
g4
((lp4147
tp4148
Rp4149
sg8
I00
sg9
g4145
ssS'miniterritory'
p4150
(dp4151
g3
g4
((lp4152
tp4153
Rp4154
sg8
I00
sg9
g4150
ssS'oversensitive'
p4155
(dp4156
g3
g4
((lp4157
tp4158
Rp4159
sg8
I00
sg9
g4155
ssS'falsification'
p4160
(dp4161
g3
g4
((lp4162
tp4163
Rp4164
sg8
I00
sg9
g4160
ssS'valedictories'
p4165
(dp4166
g3
g4
((lp4167
tp4168
Rp4169
sg8
I00
sg9
g4165
ssS'reaccrediting'
p4170
(dp4171
g3
g4
((lp4172
tp4173
Rp4174
sg8
I00
sg9
g4170
ssS'peculiarities'
p4175
(dp4176
g3
g4
((lp4177
tp4178
Rp4179
sg8
I00
sg9
g4175
ssS'viciousnesses'
p4180
(dp4181
g3
g4
((lp4182
tp4183
Rp4184
sg8
I00
sg9
g4180
ssS'introspecting'
p4185
(dp4186
g3
g4
((lp4187
tp4188
Rp4189
sg8
I00
sg9
g4185
ssS'nonconclusive'
p4190
(dp4191
g3
g4
((lp4192
tp4193
Rp4194
sg8
I00
sg9
g4190
ssS'knowledgeable'
p4195
(dp4196
g3
g4
((lp4197
tp4198
Rp4199
sg8
I00
sg9
g4195
ssS'desegregating'
p4200
(dp4201
g3
g4
((lp4202
S'resegregating'
p4203
atp4204
Rp4205
sg8
I00
sg9
g4200
ssS'overconfident'
p4206
(dp4207
g3
g4
((lp4208
tp4209
Rp4210
sg8
I00
sg9
g4206
ssS'unceremonious'
p4211
(dp4212
g3
g4
((lp4213
tp4214
Rp4215
sg8
I00
sg9
g4211
ssS'obsolescences'
p4216
(dp4217
g3
g4
((lp4218
tp4219
Rp4220
sg8
I00
sg9
g4216
ssS'nervousnesses'
p4221
(dp4222
g3
g4
((lp4223
tp4224
Rp4225
sg8
I00
sg9
g4221
ssS'unambiguously'
p4226
(dp4227
g3
g4
((lp4228
tp4229
Rp4230
sg8
I00
sg9
g4226
ssS'liquefactions'
p4231
(dp4232
g3
g4
((lp4233
tp4234
Rp4235
sg8
I00
sg9
g4231
ssS'fretfulnesses'
p4236
(dp4237
g3
g4
((lp4238
tp4239
Rp4240
sg8
I00
sg9
g4236
ssS'predetermines'
p4241
(dp4242
g3
g4
((lp4243
S'predetermined'
p4244
atp4245
Rp4246
sg8
I00
sg9
g4241
ssS'counteracting'
p4247
(dp4248
g3
g4
((lp4249
tp4250
Rp4251
sg8
I00
sg9
g4247
ssS'overconcerned'
p4252
(dp4253
g3
g4
((lp4254
tp4255
Rp4256
sg8
I00
sg9
g4252
ssg250
(dp4257
g3
g4
((lp4258
g251
ag247
atp4259
Rp4260
sg8
I00
sg9
g250
ssS'delinquencies'
p4261
(dp4262
g3
g4
((lp4263
tp4264
Rp4265
sg8
I00
sg9
g4261
ssS'anticommunist'
p4266
(dp4267
g3
g4
((lp4268
S'anticommunism'
p4269
atp4270
Rp4271
sg8
I00
sg9
g4266
ssS'copartnership'
p4272
(dp4273
g3
g4
((lp4274
tp4275
Rp4276
sg8
I00
sg9
g4272
ssg4244
(dp4277
g3
g4
((lp4278
g4241
atp4279
Rp4280
sg8
I00
sg9
g4244
ssg4269
(dp4281
g3
g4
((lp4282
g4266
atp4283
Rp4284
sg8
I00
sg9
g4269
ssS'unjustifiable'
p4285
(dp4286
g3
g4
((lp4287
tp4288
Rp4289
sg8
I00
sg9
g4285
ssS'underexposure'
p4290
(dp4291
g3
g4
((lp4292
tp4293
Rp4294
sg8
I00
sg9
g4290
ssS'disqualifying'
p4295
(dp4296
g3
g4
((lp4297
tp4298
Rp4299
sg8
I00
sg9
g4295
ssS'revaccination'
p4300
(dp4301
g3
g4
((lp4302
tp4303
Rp4304
sg8
I00
sg9
g4300
ssS'mathematician'
p4305
(dp4306
g3
g4
((lp4307
tp4308
Rp4309
sg8
I00
sg9
g4305
ssS'physiotherapy'
p4310
(dp4311
g3
g4
((lp4312
tp4313
Rp4314
sg8
I00
sg9
g4310
ssS'premeditating'
p4315
(dp4316
g3
g4
((lp4317
tp4318
Rp4319
sg8
I00
sg9
g4315
ssS'assimilations'
p4320
(dp4321
g3
g4
((lp4322
tp4323
Rp4324
sg8
I00
sg9
g4320
ssS'prophylactics'
p4325
(dp4326
g3
g4
((lp4327
tp4328
Rp4329
sg8
I00
sg9
g4325
ssS'sentimentally'
p4330
(dp4331
g3
g4
((lp4332
tp4333
Rp4334
sg8
I00
sg9
g4330
ssS'supplementary'
p4335
(dp4336
g3
g4
((lp4337
tp4338
Rp4339
sg8
I00
sg9
g4335
ssS'counterdemand'
p4340
(dp4341
g3
g4
((lp4342
tp4343
Rp4344
sg8
I00
sg9
g4340
ssS'questionnaire'
p4345
(dp4346
g3
g4
((lp4347
tp4348
Rp4349
sg8
I00
sg9
g4345
ssS'forwardnesses'
p4350
(dp4351
g3
g4
((lp4352
tp4353
Rp4354
sg8
I00
sg9
g4350
ssS'typicalnesses'
p4355
(dp4356
g3
g4
((lp4357
tp4358
Rp4359
sg8
I00
sg9
g4355
ssS'preallocating'
p4360
(dp4361
g3
g4
((lp4362
tp4363
Rp4364
sg8
I00
sg9
g4360
ssS'inflexibility'
p4365
(dp4366
g3
g4
((lp4367
tp4368
Rp4369
sg8
I00
sg9
g4365
ssS'developmental'
p4370
(dp4371
g3
g4
((lp4372
tp4373
Rp4374
sg8
I00
sg9
g4370
ssS'strangulation'
p4375
(dp4376
g3
g4
((lp4377
tp4378
Rp4379
sg8
I00
sg9
g4375
ssS'fatuousnesses'
p4380
(dp4381
g3
g4
((lp4382
tp4383
Rp4384
sg8
I00
sg9
g4380
ssS'hardheartedly'
p4385
(dp4386
g3
g4
((lp4387
tp4388
Rp4389
sg8
I00
sg9
g4385
ssS'pneumatically'
p4390
(dp4391
g3
g4
((lp4392
tp4393
Rp4394
sg8
I00
sg9
g4390
ssS'heartsickness'
p4395
(dp4396
g3
g4
((lp4397
tp4398
Rp4399
sg8
I00
sg9
g4395
ssS'patriotically'
p4400
(dp4401
g3
g4
((lp4402
tp4403
Rp4404
sg8
I00
sg9
g4400
ssS'reverberating'
p4405
(dp4406
g3
g4
((lp4407
tp4408
Rp4409
sg8
I00
sg9
g4405
ssS'decomposition'
p4410
(dp4411
g3
g4
((lp4412
tp4413
Rp4414
sg8
I00
sg9
g4410
ssS'necessitating'
p4415
(dp4416
g3
g4
((lp4417
tp4418
Rp4419
sg8
I00
sg9
g4415
ssS'ornamentation'
p4420
(dp4421
g3
g4
((lp4422
tp4423
Rp4424
sg8
I00
sg9
g4420
ssS'handicrafters'
p4425
(dp4426
g3
g4
((lp4427
tp4428
Rp4429
sg8
I00
sg9
g4425
ssS'opprobriously'
p4430
(dp4431
g3
g4
((lp4432
tp4433
Rp4434
sg8
I00
sg9
g4430
ssS'flowerinesses'
p4435
(dp4436
g3
g4
((lp4437
tp4438
Rp4439
sg8
I00
sg9
g4435
ssS'sedimentation'
p4440
(dp4441
g3
g4
((lp4442
tp4443
Rp4444
sg8
I00
sg9
g4440
ssS'hallucinative'
p4445
(dp4446
g3
g4
((lp4447
tp4448
Rp4449
sg8
I00
sg9
g4445
ssS'interrogators'
p4450
(dp4451
g3
g4
((lp4452
S'interrogatory'
p4453
atp4454
Rp4455
sg8
I00
sg9
g4450
ssS'uninhibitedly'
p4456
(dp4457
g3
g4
((lp4458
tp4459
Rp4460
sg8
I00
sg9
g4456
ssS'interjections'
p4461
(dp4462
g3
g4
((lp4463
S'intersections'
p4464
atp4465
Rp4466
sg8
I00
sg9
g4461
ssS'symbolization'
p4467
(dp4468
g3
g4
((lp4469
tp4470
Rp4471
sg8
I00
sg9
g4467
ssS'nonobservance'
p4472
(dp4473
g3
g4
((lp4474
tp4475
Rp4476
sg8
I00
sg9
g4472
ssS'shiftlessness'
p4477
(dp4478
g3
g4
((lp4479
tp4480
Rp4481
sg8
I00
sg9
g4477
ssS'winsomenesses'
p4482
(dp4483
g3
g4
((lp4484
tp4485
Rp4486
sg8
I00
sg9
g4482
ssS'hieroglyphics'
p4487
(dp4488
g3
g4
((lp4489
tp4490
Rp4491
sg8
I00
sg9
g4487
ssS'helpfulnesses'
p4492
(dp4493
g3
g4
((lp4494
tp4495
Rp4496
sg8
I00
sg9
g4492
ssS'individualize'
p4497
(dp4498
g3
g4
((lp4499
tp4500
Rp4501
sg8
I00
sg9
g4497
ssS'chiropractics'
p4502
(dp4503
g3
g4
((lp4504
tp4505
Rp4506
sg8
I00
sg9
g4502
ssS'rediscovering'
p4507
(dp4508
g3
g4
((lp4509
tp4510
Rp4511
sg8
I00
sg9
g4507
ssS'communication'
p4512
(dp4513
g3
g4
((lp4514
tp4515
Rp4516
sg8
I00
sg9
g4512
ssS'rectification'
p4517
(dp4518
g3
g4
((lp4519
tp4520
Rp4521
sg8
I00
sg9
g4517
ssS'rhapsodically'
p4522
(dp4523
g3
g4
((lp4524
tp4525
Rp4526
sg8
I00
sg9
g4522
ssS'theoretically'
p4527
(dp4528
g3
g4
((lp4529
tp4530
Rp4531
sg8
I00
sg9
g4527
ssS'reinvigorated'
p4532
(dp4533
g3
g4
((lp4534
S'reinvigorates'
p4535
atp4536
Rp4537
sg8
I00
sg9
g4532
ssS'paraphernalia'
p4538
(dp4539
g3
g4
((lp4540
tp4541
Rp4542
sg8
I00
sg9
g4538
ssS'crookednesses'
p4543
(dp4544
g3
g4
((lp4545
tp4546
Rp4547
sg8
I00
sg9
g4543
ssg4535
(dp4548
g3
g4
((lp4549
g4532
atp4550
Rp4551
sg8
I00
sg9
g4535
ssS'attainability'
p4552
(dp4553
g3
g4
((lp4554
tp4555
Rp4556
sg8
I00
sg9
g4552
ssS'retranslating'
p4557
(dp4558
g3
g4
((lp4559
tp4560
Rp4561
sg8
I00
sg9
g4557
ssS'deteriorating'
p4562
(dp4563
g3
g4
((lp4564
tp4565
Rp4566
sg8
I00
sg9
g4562
ssS'circumcisions'
p4567
(dp4568
g3
g4
((lp4569
tp4570
Rp4571
sg8
I00
sg9
g4567
ssS'sophisticated'
p4572
(dp4573
g3
g4
((lp4574
S'sophisticates'
p4575
atp4576
Rp4577
sg8
I00
sg9
g4572
ssS'intermissions'
p4578
(dp4579
g3
g4
((lp4580
tp4581
Rp4582
sg8
I00
sg9
g4578
ssS'overrepresent'
p4583
(dp4584
g3
g4
((lp4585
tp4586
Rp4587
sg8
I00
sg9
g4583
ssg4575
(dp4588
g3
g4
((lp4589
g4572
atp4590
Rp4591
sg8
I00
sg9
g4575
ssS'recalcitrance'
p4592
(dp4593
g3
g4
((lp4594
tp4595
Rp4596
sg8
I00
sg9
g4592
ssS'fluoroscopist'
p4597
(dp4598
g3
g4
((lp4599
tp4600
Rp4601
sg8
I00
sg9
g4597
ssS'extermination'
p4602
(dp4603
g3
g4
((lp4604
tp4605
Rp4606
sg8
I00
sg9
g4602
ssS'migratational'
p4607
(dp4608
g3
g4
((lp4609
tp4610
Rp4611
sg8
I00
sg9
g4607
ssS'multitalented'
p4612
(dp4613
g3
g4
((lp4614
tp4615
Rp4616
sg8
I00
sg9
g4612
ssS'operationally'
p4617
(dp4618
g3
g4
((lp4619
tp4620
Rp4621
sg8
I00
sg9
g4617
ssS'ineffectually'
p4622
(dp4623
g3
g4
((lp4624
tp4625
Rp4626
sg8
I00
sg9
g4622
ssS'pretournament'
p4627
(dp4628
g3
g4
((lp4629
tp4630
Rp4631
sg8
I00
sg9
g4627
ssS'mollycoddling'
p4632
(dp4633
g3
g4
((lp4634
tp4635
Rp4636
sg8
I00
sg9
g4632
ssS'insurmounable'
p4637
(dp4638
g3
g4
((lp4639
S'insurmounably'
p4640
atp4641
Rp4642
sg8
I00
sg9
g4637
ssS'statesmanlike'
p4643
(dp4644
g3
g4
((lp4645
tp4646
Rp4647
sg8
I00
sg9
g4643
ssS'hypercalcemia'
p4648
(dp4649
g3
g4
((lp4650
tp4651
Rp4652
sg8
I00
sg9
g4648
ssS'preconference'
p4653
(dp4654
g3
g4
((lp4655
tp4656
Rp4657
sg8
I00
sg9
g4653
ssg4640
(dp4658
g3
g4
((lp4659
g4637
atp4660
Rp4661
sg8
I00
sg9
g4640
ssS'incarcerating'
p4662
(dp4663
g3
g4
((lp4664
tp4665
Rp4666
sg8
I00
sg9
g4662
ssS'confederacies'
p4667
(dp4668
g3
g4
((lp4669
tp4670
Rp4671
sg8
I00
sg9
g4667
ssS'apocalyptical'
p4672
(dp4673
g3
g4
((lp4674
tp4675
Rp4676
sg8
I00
sg9
g4672
ssS'interspersing'
p4677
(dp4678
g3
g4
((lp4679
tp4680
Rp4681
sg8
I00
sg9
g4677
ssS'minerological'
p4682
(dp4683
g3
g4
((lp4684
tp4685
Rp4686
sg8
I00
sg9
g4682
ssS'nonsegregated'
p4687
(dp4688
g3
g4
((lp4689
tp4690
Rp4691
sg8
I00
sg9
g4687
ssS'introspection'
p4692
(dp4693
g3
g4
((lp4694
tp4695
Rp4696
sg8
I00
sg9
g4692
ssS'intrepidities'
p4697
(dp4698
g3
g4
((lp4699
tp4700
Rp4701
sg8
I00
sg9
g4697
ssS'announcements'
p4702
(dp4703
g3
g4
((lp4704
tp4705
Rp4706
sg8
I00
sg9
g4702
ssS'overexhausted'
p4707
(dp4708
g3
g4
((lp4709
tp4710
Rp4711
sg8
I00
sg9
g4707
ssS'preoccupation'
p4712
(dp4713
g3
g4
((lp4714
tp4715
Rp4716
sg8
I00
sg9
g4712
ssS'motorcyclists'
p4717
(dp4718
g3
g4
((lp4719
tp4720
Rp4721
sg8
I00
sg9
g4717
ssS'reincarnating'
p4722
(dp4723
g3
g4
((lp4724
tp4725
Rp4726
sg8
I00
sg9
g4722
ssS'extraversions'
p4727
(dp4728
g3
g4
((lp4729
tp4730
Rp4731
sg8
I00
sg9
g4727
ssS'collaborative'
p4732
(dp4733
g3
g4
((lp4734
tp4735
Rp4736
sg8
I00
sg9
g4732
ssS'nonspecialist'
p4737
(dp4738
g3
g4
((lp4739
tp4740
Rp4741
sg8
I00
sg9
g4737
ssS'lexicographer'
p4742
(dp4743
g3
g4
((lp4744
tp4745
Rp4746
sg8
I00
sg9
g4742
ssS'embellishment'
p4747
(dp4748
g3
g4
((lp4749
tp4750
Rp4751
sg8
I00
sg9
g4747
ssS'nonresponsive'
p4752
(dp4753
g3
g4
((lp4754
tp4755
Rp4756
sg8
I00
sg9
g4752
ssS'preconditions'
p4757
(dp4758
g3
g4
((lp4759
tp4760
Rp4761
sg8
I00
sg9
g4757
ssS'massachusetts'
p4762
(dp4763
g3
g4
((lp4764
tp4765
Rp4766
sg8
I00
sg9
g4762
ssS'unquestioning'
p4767
(dp4768
g3
g4
((lp4769
tp4770
Rp4771
sg8
I00
sg9
g4767
ssS'horseradishes'
p4772
(dp4773
g3
g4
((lp4774
tp4775
Rp4776
sg8
I00
sg9
g4772
ssS'vaporizations'
p4777
(dp4778
g3
g4
((lp4779
tp4780
Rp4781
sg8
I00
sg9
g4777
ssS'bibliographer'
p4782
(dp4783
g3
g4
((lp4784
tp4785
Rp4786
sg8
I00
sg9
g4782
ssS'consternation'
p4787
(dp4788
g3
g4
((lp4789
tp4790
Rp4791
sg8
I00
sg9
g4787
ssS'overcommiting'
p4792
(dp4793
g3
g4
((lp4794
tp4795
Rp4796
sg8
I00
sg9
g4792
ssS'unselfishness'
p4797
(dp4798
g3
g4
((lp4799
tp4800
Rp4801
sg8
I00
sg9
g4797
ssS'renegotiating'
p4802
(dp4803
g3
g4
((lp4804
tp4805
Rp4806
sg8
I00
sg9
g4802
ssS'impossibility'
p4807
(dp4808
g3
g4
((lp4809
tp4810
Rp4811
sg8
I00
sg9
g4807
ssS'nonappearance'
p4812
(dp4813
g3
g4
((lp4814
tp4815
Rp4816
sg8
I00
sg9
g4812
ssS'emancipations'
p4817
(dp4818
g3
g4
((lp4819
tp4820
Rp4821
sg8
I00
sg9
g4817
ssS'evasivenesses'
p4822
(dp4823
g3
g4
((lp4824
tp4825
Rp4826
sg8
I00
sg9
g4822
ssS'nitroglycerin'
p4827
(dp4828
g3
g4
((lp4829
tp4830
Rp4831
sg8
I00
sg9
g4827
ssS'colloquialism'
p4832
(dp4833
g3
g4
((lp4834
tp4835
Rp4836
sg8
I00
sg9
g4832
ssS'remonstrating'
p4837
(dp4838
g3
g4
((lp4839
S'demonstrating'
p4840
atp4841
Rp4842
sg8
I00
sg9
g4837
ssS'revaccinating'
p4843
(dp4844
g3
g4
((lp4845
tp4846
Rp4847
sg8
I00
sg9
g4843
ssS'chlorinations'
p4848
(dp4849
g3
g4
((lp4850
tp4851
Rp4852
sg8
I00
sg9
g4848
ssS'inexhaustible'
p4853
(dp4854
g3
g4
((lp4855
S'inexhaustibly'
p4856
atp4857
Rp4858
sg8
I00
sg9
g4853
ssS'superintended'
p4859
(dp4860
g3
g4
((lp4861
tp4862
Rp4863
sg8
I00
sg9
g4859
ssS'opportunities'
p4864
(dp4865
g3
g4
((lp4866
tp4867
Rp4868
sg8
I00
sg9
g4864
ssg4856
(dp4869
g3
g4
((lp4870
g4853
atp4871
Rp4872
sg8
I00
sg9
g4856
ssS'modernization'
p4873
(dp4874
g3
g4
((lp4875
tp4876
Rp4877
sg8
I00
sg9
g4873
ssS'premeditation'
p4878
(dp4879
g3
g4
((lp4880
tp4881
Rp4882
sg8
I00
sg9
g4878
ssS'mobilizations'
p4883
(dp4884
g3
g4
((lp4885
tp4886
Rp4887
sg8
I00
sg9
g4883
ssS'restivenesses'
p4888
(dp4889
g3
g4
((lp4890
tp4891
Rp4892
sg8
I00
sg9
g4888
ssS'chiropractors'
p4893
(dp4894
g3
g4
((lp4895
tp4896
Rp4897
sg8
I00
sg9
g4893
ssS'documentaries'
p4898
(dp4899
g3
g4
((lp4900
tp4901
Rp4902
sg8
I00
sg9
g4898
ssS'reminiscently'
p4903
(dp4904
g3
g4
((lp4905
tp4906
Rp4907
sg8
I00
sg9
g4903
ssS'lecherousness'
p4908
(dp4909
g3
g4
((lp4910
tp4911
Rp4912
sg8
I00
sg9
g4908
ssS'taciturnities'
p4913
(dp4914
g3
g4
((lp4915
tp4916
Rp4917
sg8
I00
sg9
g4913
ssS'concatenating'
p4918
(dp4919
g3
g4
((lp4920
tp4921
Rp4922
sg8
I00
sg9
g4918
ssS'faultfindings'
p4923
(dp4924
g3
g4
((lp4925
tp4926
Rp4927
sg8
I00
sg9
g4923
ssS'neurosurgeons'
p4928
(dp4929
g3
g4
((lp4930
tp4931
Rp4932
sg8
I00
sg9
g4928
ssS'overstretches'
p4933
(dp4934
g3
g4
((lp4935
S'overstretched'
p4936
atp4937
Rp4938
sg8
I00
sg9
g4933
ssS'juxtaposition'
p4939
(dp4940
g3
g4
((lp4941
tp4942
Rp4943
sg8
I00
sg9
g4939
ssS'choreographic'
p4944
(dp4945
g3
g4
((lp4946
tp4947
Rp4948
sg8
I00
sg9
g4944
ssS'disagreements'
p4949
(dp4950
g3
g4
((lp4951
tp4952
Rp4953
sg8
I00
sg9
g4949
ssS'conceptualize'
p4954
(dp4955
g3
g4
((lp4956
tp4957
Rp4958
sg8
I00
sg9
g4954
ssg4936
(dp4959
g3
g4
((lp4960
g4933
atp4961
Rp4962
sg8
I00
sg9
g4936
ssS'perambulating'
p4963
(dp4964
g3
g4
((lp4965
tp4966
Rp4967
sg8
I00
sg9
g4963
ssS'inopportunely'
p4968
(dp4969
g3
g4
((lp4970
tp4971
Rp4972
sg8
I00
sg9
g4968
ssS'adulterations'
p4973
(dp4974
g3
g4
((lp4975
tp4976
Rp4977
sg8
I00
sg9
g4973
ssS'posttreatment'
p4978
(dp4979
g3
g4
((lp4980
tp4981
Rp4982
sg8
I00
sg9
g4978
ssS'discriminates'
p4983
(dp4984
g3
g4
((lp4985
S'discriminated'
p4986
atp4987
Rp4988
sg8
I00
sg9
g4983
ssg4986
(dp4989
g3
g4
((lp4990
g4983
atp4991
Rp4992
sg8
I00
sg9
g4986
ssS'hemispherical'
p4993
(dp4994
g3
g4
((lp4995
tp4996
Rp4997
sg8
I00
sg9
g4993
ssS'poliomyelitis'
p4998
(dp4999
g3
g4
((lp5000
tp5001
Rp5002
sg8
I00
sg9
g4998
ssS'huckleberries'
p5003
(dp5004
g3
g4
((lp5005
tp5006
Rp5007
sg8
I00
sg9
g5003
ssS'psychosomatic'
p5008
(dp5009
g3
g4
((lp5010
tp5011
Rp5012
sg8
I00
sg9
g5008
ssS'imperceptible'
p5013
(dp5014
g3
g4
((lp5015
S'imperceptibly'
p5016
atp5017
Rp5018
sg8
I00
sg9
g5013
ssS'immunologists'
p5019
(dp5020
g3
g4
((lp5021
tp5022
Rp5023
sg8
I00
sg9
g5019
ssg5016
(dp5024
g3
g4
((lp5025
g5013
atp5026
Rp5027
sg8
I00
sg9
g5016
ssS'semifinalists'
p5028
(dp5029
g3
g4
((lp5030
tp5031
Rp5032
sg8
I00
sg9
g5028
ssS'disagreeables'
p5033
(dp5034
g3
g4
((lp5035
tp5036
Rp5037
sg8
I00
sg9
g5033
ssS'nullification'
p5038
(dp5039
g3
g4
((lp5040
tp5041
Rp5042
sg8
I00
sg9
g5038
ssS'clairvoyances'
p5043
(dp5044
g3
g4
((lp5045
tp5046
Rp5047
sg8
I00
sg9
g5043
ssS'amortizations'
p5048
(dp5049
g3
g4
((lp5050
tp5051
Rp5052
sg8
I00
sg9
g5048
ssS'desegregation'
p5053
(dp5054
g3
g4
((lp5055
tp5056
Rp5057
sg8
I00
sg9
g5053
ssS'reemphasizing'
p5058
(dp5059
g3
g4
((lp5060
tp5061
Rp5062
sg8
I00
sg9
g5058
ssS'installations'
p5063
(dp5064
g3
g4
((lp5065
tp5066
Rp5067
sg8
I00
sg9
g5063
ssS'overstatement'
p5068
(dp5069
g3
g4
((lp5070
tp5071
Rp5072
sg8
I00
sg9
g5068
ssS'nonsensically'
p5073
(dp5074
g3
g4
((lp5075
tp5076
Rp5077
sg8
I00
sg9
g5073
ssS'obstetricians'
p5078
(dp5079
g3
g4
((lp5080
tp5081
Rp5082
sg8
I00
sg9
g5078
ssS'laureateships'
p5083
(dp5084
g3
g4
((lp5085
tp5086
Rp5087
sg8
I00
sg9
g5083
ssS'oleomargarine'
p5088
(dp5089
g3
g4
((lp5090
tp5091
Rp5092
sg8
I00
sg9
g5088
ssS'dilapidations'
p5093
(dp5094
g3
g4
((lp5095
tp5096
Rp5097
sg8
I00
sg9
g5093
ssS'consecrations'
p5098
(dp5099
g3
g4
((lp5100
tp5101
Rp5102
sg8
I00
sg9
g5098
ssS'reactionaries'
p5103
(dp5104
g3
g4
((lp5105
tp5106
Rp5107
sg8
I00
sg9
g5103
ssS'parenthetical'
p5108
(dp5109
g3
g4
((lp5110
tp5111
Rp5112
sg8
I00
sg9
g5108
ssS'marksmanships'
p5113
(dp5114
g3
g4
((lp5115
tp5116
Rp5117
sg8
I00
sg9
g5113
ssS'biodegradable'
p5118
(dp5119
g3
g4
((lp5120
tp5121
Rp5122
sg8
I00
sg9
g5118
ssS'annihilations'
p5123
(dp5124
g3
g4
((lp5125
tp5126
Rp5127
sg8
I00
sg9
g5123
ssS'compensations'
p5128
(dp5129
g3
g4
((lp5130
tp5131
Rp5132
sg8
I00
sg9
g5128
ssS'somersaulting'
p5133
(dp5134
g3
g4
((lp5135
tp5136
Rp5137
sg8
I00
sg9
g5133
ssS'monkishnesses'
p5138
(dp5139
g3
g4
((lp5140
tp5141
Rp5142
sg8
I00
sg9
g5138
ssS'probabilities'
p5143
(dp5144
g3
g4
((lp5145
tp5146
Rp5147
sg8
I00
sg9
g5143
ssS'recontaminate'
p5148
(dp5149
g3
g4
((lp5150
tp5151
Rp5152
sg8
I00
sg9
g5148
ssS'leukophoresis'
p5153
(dp5154
g3
g4
((lp5155
tp5156
Rp5157
sg8
I00
sg9
g5153
ssS'overexplained'
p5158
(dp5159
g3
g4
((lp5160
tp5161
Rp5162
sg8
I00
sg9
g5158
ssS'socialization'
p5163
(dp5164
g3
g4
((lp5165
tp5166
Rp5167
sg8
I00
sg9
g5163
ssS'aimlessnesses'
p5168
(dp5169
g3
g4
((lp5170
tp5171
Rp5172
sg8
I00
sg9
g5168
ssS'magnification'
p5173
(dp5174
g3
g4
((lp5175
tp5176
Rp5177
sg8
I00
sg9
g5173
ssS'blessednesses'
p5178
(dp5179
g3
g4
((lp5180
tp5181
Rp5182
sg8
I00
sg9
g5178
ssS'elusivenesses'
p5183
(dp5184
g3
g4
((lp5185
tp5186
Rp5187
sg8
I00
sg9
g5183
ssS'archbishopric'
p5188
(dp5189
g3
g4
((lp5190
tp5191
Rp5192
sg8
I00
sg9
g5188
ssS'codiscoverers'
p5193
(dp5194
g3
g4
((lp5195
tp5196
Rp5197
sg8
I00
sg9
g5193
ssS'predelinquent'
p5198
(dp5199
g3
g4
((lp5200
tp5201
Rp5202
sg8
I00
sg9
g5198
ssS'reactivations'
p5203
(dp5204
g3
g4
((lp5205
tp5206
Rp5207
sg8
I00
sg9
g5203
ssS'disinfections'
p5208
(dp5209
g3
g4
((lp5210
tp5211
Rp5212
sg8
I00
sg9
g5208
ssS'apprehensions'
p5213
(dp5214
g3
g4
((lp5215
tp5216
Rp5217
sg8
I00
sg9
g5213
ssS'nonscientific'
p5218
(dp5219
g3
g4
((lp5220
tp5221
Rp5222
sg8
I00
sg9
g5218
ssS'confessionals'
p5223
(dp5224
g3
g4
((lp5225
tp5226
Rp5227
sg8
I00
sg9
g5223
ssS'memorizations'
p5228
(dp5229
g3
g4
((lp5230
tp5231
Rp5232
sg8
I00
sg9
g5228
ssS'frustratingly'
p5233
(dp5234
g3
g4
((lp5235
tp5236
Rp5237
sg8
I00
sg9
g5233
ssS'lymphocytosis'
p5238
(dp5239
g3
g4
((lp5240
tp5241
Rp5242
sg8
I00
sg9
g5238
ssg266
(dp5243
g3
g4
((lp5244
g263
atp5245
Rp5246
sg8
I00
sg9
g266
ssS'civilizations'
p5247
(dp5248
g3
g4
((lp5249
tp5250
Rp5251
sg8
I00
sg9
g5247
ssS'reincarnation'
p5252
(dp5253
g3
g4
((lp5254
tp5255
Rp5256
sg8
I00
sg9
g5252
ssS'exploitations'
p5257
(dp5258
g3
g4
((lp5259
tp5260
Rp5261
sg8
I00
sg9
g5257
ssS'metamorphosis'
p5262
(dp5263
g3
g4
((lp5264
S'metamorphoses'
p5265
atp5266
Rp5267
sg8
I00
sg9
g5262
ssS'hypercritical'
p5268
(dp5269
g3
g4
((lp5270
tp5271
Rp5272
sg8
I00
sg9
g5268
ssS'reproachfully'
p5273
(dp5274
g3
g4
((lp5275
tp5276
Rp5277
sg8
I00
sg9
g5273
ssS'unappreciated'
p5278
(dp5279
g3
g4
((lp5280
tp5281
Rp5282
sg8
I00
sg9
g5278
ssS'nonaccredited'
p5283
(dp5284
g3
g4
((lp5285
tp5286
Rp5287
sg8
I00
sg9
g5283
ssS'statisticians'
p5288
(dp5289
g3
g4
((lp5290
tp5291
Rp5292
sg8
I00
sg9
g5288
ssS'effectualness'
p5293
(dp5294
g3
g4
((lp5295
tp5296
Rp5297
sg8
I00
sg9
g5293
ssS'preindustrial'
p5298
(dp5299
g3
g4
((lp5300
tp5301
Rp5302
sg8
I00
sg9
g5298
ssS'rapaciousness'
p5303
(dp5304
g3
g4
((lp5305
tp5306
Rp5307
sg8
I00
sg9
g5303
ssg1865
(dp5308
g3
g4
((lp5309
g1862
atp5310
Rp5311
sg8
I00
sg9
g1865
ssS'acknowledging'
p5312
(dp5313
g3
g4
((lp5314
tp5315
Rp5316
sg8
I00
sg9
g5312
ssS'alphabetizers'
p5317
(dp5318
g3
g4
((lp5319
tp5320
Rp5321
sg8
I00
sg9
g5317
ssS'communicating'
p5322
(dp5323
g3
g4
((lp5324
tp5325
Rp5326
sg8
I00
sg9
g5322
ssS'headquartered'
p5327
(dp5328
g3
g4
((lp5329
tp5330
Rp5331
sg8
I00
sg9
g5327
ssS'preprocessing'
p5332
(dp5333
g3
g4
((lp5334
tp5335
Rp5336
sg8
I00
sg9
g5332
ssS'peacekeepings'
p5337
(dp5338
g3
g4
((lp5339
tp5340
Rp5341
sg8
I00
sg9
g5337
ssS'instransitive'
p5342
(dp5343
g3
g4
((lp5344
tp5345
Rp5346
sg8
I00
sg9
g5342
ssg3155
(dp5347
g3
g4
((lp5348
g3152
atp5349
Rp5350
sg8
I00
sg9
g3155
ssS'concentrating'
p5351
(dp5352
g3
g4
((lp5353
tp5354
Rp5355
sg8
I00
sg9
g5351
ssS'chastisements'
p5356
(dp5357
g3
g4
((lp5358
tp5359
Rp5360
sg8
I00
sg9
g5356
ssS'summarization'
p5361
(dp5362
g3
g4
((lp5363
tp5364
Rp5365
sg8
I00
sg9
g5361
ssS'prerequisites'
p5366
(dp5367
g3
g4
((lp5368
tp5369
Rp5370
sg8
I00
sg9
g5366
ssS'beatification'
p5371
(dp5372
g3
g4
((lp5373
tp5374
Rp5375
sg8
I00
sg9
g5371
ssS'conglomerates'
p5376
(dp5377
g3
g4
((lp5378
S'conglomerated'
p5379
atp5380
Rp5381
sg8
I00
sg9
g5376
ssS'documentation'
p5382
(dp5383
g3
g4
((lp5384
tp5385
Rp5386
sg8
I00
sg9
g5382
ssS'deterioration'
p5387
(dp5388
g3
g4
((lp5389
tp5390
Rp5391
sg8
I00
sg9
g5387
ssS'functionaries'
p5392
(dp5393
g3
g4
((lp5394
tp5395
Rp5396
sg8
I00
sg9
g5392
ssS'impermissible'
p5397
(dp5398
g3
g4
((lp5399
tp5400
Rp5401
sg8
I00
sg9
g5397
ssS'foolhardiness'
p5402
(dp5403
g3
g4
((lp5404
tp5405
Rp5406
sg8
I00
sg9
g5402
ssg5379
(dp5407
g3
g4
((lp5408
g5376
atp5409
Rp5410
sg8
I00
sg9
g5379
ssS'nonindustrial'
p5411
(dp5412
g3
g4
((lp5413
tp5414
Rp5415
sg8
I00
sg9
g5411
ssS'materialistic'
p5416
(dp5417
g3
g4
((lp5418
tp5419
Rp5420
sg8
I00
sg9
g5416
ssS'nonexistences'
p5421
(dp5422
g3
g4
((lp5423
tp5424
Rp5425
sg8
I00
sg9
g5421
ssS'primitivities'
p5426
(dp5427
g3
g4
((lp5428
tp5429
Rp5430
sg8
I00
sg9
g5426
ssS'coauthorships'
p5431
(dp5432
g3
g4
((lp5433
tp5434
Rp5435
sg8
I00
sg9
g5431
ssS'interpersonal'
p5436
(dp5437
g3
g4
((lp5438
tp5439
Rp5440
sg8
I00
sg9
g5436
ssS'respiratories'
p5441
(dp5442
g3
g4
((lp5443
tp5444
Rp5445
sg8
I00
sg9
g5441
ssS'intelligently'
p5446
(dp5447
g3
g4
((lp5448
tp5449
Rp5450
sg8
I00
sg9
g5446
ssS'reminiscences'
p5451
(dp5452
g3
g4
((lp5453
tp5454
Rp5455
sg8
I00
sg9
g5451
ssS'repossessions'
p5456
(dp5457
g3
g4
((lp5458
tp5459
Rp5460
sg8
I00
sg9
g5456
ssS'interquartile'
p5461
(dp5462
g3
g4
((lp5463
tp5464
Rp5465
sg8
I00
sg9
g5461
ssS'tantalizingly'
p5466
(dp5467
g3
g4
((lp5468
tp5469
Rp5470
sg8
I00
sg9
g5466
ssS'disfranchises'
p5471
(dp5472
g3
g4
((lp5473
S'disfranchised'
p5474
atp5475
Rp5476
sg8
I00
sg9
g5471
ssS'continuations'
p5477
(dp5478
g3
g4
((lp5479
tp5480
Rp5481
sg8
I00
sg9
g5477
ssS'vacuousnesses'
p5482
(dp5483
g3
g4
((lp5484
tp5485
Rp5486
sg8
I00
sg9
g5482
ssS'faithlessness'
p5487
(dp5488
g3
g4
((lp5489
tp5490
Rp5491
sg8
I00
sg9
g5487
ssS'nonproductive'
p5492
(dp5493
g3
g4
((lp5494
tp5495
Rp5496
sg8
I00
sg9
g5492
ssS'reciprocating'
p5497
(dp5498
g3
g4
((lp5499
tp5500
Rp5501
sg8
I00
sg9
g5497
ssS'reacclimatize'
p5502
(dp5503
g3
g4
((lp5504
tp5505
Rp5506
sg8
I00
sg9
g5502
ssg5474
(dp5507
g3
g4
((lp5508
g5471
atp5509
Rp5510
sg8
I00
sg9
g5474
ssS'miserlinesses'
p5511
(dp5512
g3
g4
((lp5513
tp5514
Rp5515
sg8
I00
sg9
g5511
ssS'preretirement'
p5516
(dp5517
g3
g4
((lp5518
tp5519
Rp5520
sg8
I00
sg9
g5516
ssS'egotistically'
p5521
(dp5522
g3
g4
((lp5523
tp5524
Rp5525
sg8
I00
sg9
g5521
ssS'disrespectful'
p5526
(dp5527
g3
g4
((lp5528
tp5529
Rp5530
sg8
I00
sg9
g5526
ssS'indefatigable'
p5531
(dp5532
g3
g4
((lp5533
S'indefatigably'
p5534
atp5535
Rp5536
sg8
I00
sg9
g5531
ssS'insensibility'
p5537
(dp5538
g3
g4
((lp5539
tp5540
Rp5541
sg8
I00
sg9
g5537
ssS'intangibility'
p5542
(dp5543
g3
g4
((lp5544
tp5545
Rp5546
sg8
I00
sg9
g5542
ssg5534
(dp5547
g3
g4
((lp5548
g5531
atp5549
Rp5550
sg8
I00
sg9
g5534
ssS'underhandedly'
p5551
(dp5552
g3
g4
((lp5553
tp5554
Rp5555
sg8
I00
sg9
g5551
ssS'miniaturizing'
p5556
(dp5557
g3
g4
((lp5558
tp5559
Rp5560
sg8
I00
sg9
g5556
ssS'naughtinesses'
p5561
(dp5562
g3
g4
((lp5563
S'haughtinesses'
p5564
atp5565
Rp5566
sg8
I00
sg9
g5561
ssS'irrationality'
p5567
(dp5568
g3
g4
((lp5569
tp5570
Rp5571
sg8
I00
sg9
g5567
ssS'schoolteacher'
p5572
(dp5573
g3
g4
((lp5574
tp5575
Rp5576
sg8
I00
sg9
g5572
ssS'interspersion'
p5577
(dp5578
g3
g4
((lp5579
tp5580
Rp5581
sg8
I00
sg9
g5577
ssS'characterizes'
p5582
(dp5583
g3
g4
((lp5584
S'characterized'
p5585
atp5586
Rp5587
sg8
I00
sg9
g5582
ssS'asphyxiations'
p5588
(dp5589
g3
g4
((lp5590
tp5591
Rp5592
sg8
I00
sg9
g5588
ssS'subcontractor'
p5593
(dp5594
g3
g4
((lp5595
tp5596
Rp5597
sg8
I00
sg9
g5593
ssS'transplanting'
p5598
(dp5599
g3
g4
((lp5600
tp5601
Rp5602
sg8
I00
sg9
g5598
ssS'minicomponent'
p5603
(dp5604
g3
g4
((lp5605
tp5606
Rp5607
sg8
I00
sg9
g5603
ssS'nonaggression'
p5608
(dp5609
g3
g4
((lp5610
tp5611
Rp5612
sg8
I00
sg9
g5608
ssS'energetically'
p5613
(dp5614
g3
g4
((lp5615
tp5616
Rp5617
sg8
I00
sg9
g5613
ssS'obliterations'
p5618
(dp5619
g3
g4
((lp5620
tp5621
Rp5622
sg8
I00
sg9
g5618
ssg5585
(dp5623
g3
g4
((lp5624
g5582
atp5625
Rp5626
sg8
I00
sg9
g5585
ssS'investigators'
p5627
(dp5628
g3
g4
((lp5629
tp5630
Rp5631
sg8
I00
sg9
g5627
ssS'concisenesses'
p5632
(dp5633
g3
g4
((lp5634
tp5635
Rp5636
sg8
I00
sg9
g5632
ssS'arduousnesses'
p5637
(dp5638
g3
g4
((lp5639
tp5640
Rp5641
sg8
I00
sg9
g5637
ssS'exclusiveness'
p5642
(dp5643
g3
g4
((lp5644
tp5645
Rp5646
sg8
I00
sg9
g5642
ssS'impersonation'
p5647
(dp5648
g3
g4
((lp5649
tp5650
Rp5651
sg8
I00
sg9
g5647
ssS'misconstruing'
p5652
(dp5653
g3
g4
((lp5654
tp5655
Rp5656
sg8
I00
sg9
g5652
ssS'oceanographic'
p5657
(dp5658
g3
g4
((lp5659
tp5660
Rp5661
sg8
I00
sg9
g5657
ssS'fermentations'
p5662
(dp5663
g3
g4
((lp5664
tp5665
Rp5666
sg8
I00
sg9
g5662
ssS'retrenchments'
p5667
(dp5668
g3
g4
((lp5669
tp5670
Rp5671
sg8
I00
sg9
g5667
ssS'propagandizes'
p5672
(dp5673
g3
g4
((lp5674
S'propagandized'
p5675
atp5676
Rp5677
sg8
I00
sg9
g5672
ssS'commemorative'
p5678
(dp5679
g3
g4
((lp5680
tp5681
Rp5682
sg8
I00
sg9
g5678
ssS'computerizing'
p5683
(dp5684
g3
g4
((lp5685
tp5686
Rp5687
sg8
I00
sg9
g5683
ssS'intransigents'
p5688
(dp5689
g3
g4
((lp5690
tp5691
Rp5692
sg8
I00
sg9
g5688
ssS'postponements'
p5693
(dp5694
g3
g4
((lp5695
tp5696
Rp5697
sg8
I00
sg9
g5693
ssg5675
(dp5698
g3
g4
((lp5699
g5672
atp5700
Rp5701
sg8
I00
sg9
g5675
ssS'multihospital'
p5702
(dp5703
g3
g4
((lp5704
tp5705
Rp5706
sg8
I00
sg9
g5702
ssS'coproprietors'
p5707
(dp5708
g3
g4
((lp5709
tp5710
Rp5711
sg8
I00
sg9
g5707
ssS'reaccelerates'
p5712
(dp5713
g3
g4
((lp5714
S'reaccelerated'
p5715
atp5716
Rp5717
sg8
I00
sg9
g5712
ssS'herpetologies'
p5718
(dp5719
g3
g4
((lp5720
tp5721
Rp5722
sg8
I00
sg9
g5718
ssS'subequatorial'
p5723
(dp5724
g3
g4
((lp5725
tp5726
Rp5727
sg8
I00
sg9
g5723
ssS'extraordinary'
p5728
(dp5729
g3
g4
((lp5730
tp5731
Rp5732
sg8
I00
sg9
g5728
ssS'experimenting'
p5733
(dp5734
g3
g4
((lp5735
tp5736
Rp5737
sg8
I00
sg9
g5733
ssS'authorization'
p5738
(dp5739
g3
g4
((lp5740
tp5741
Rp5742
sg8
I00
sg9
g5738
ssg2572
(dp5743
g3
g4
((lp5744
g2569
atp5745
Rp5746
sg8
I00
sg9
g2572
ssg5715
(dp5747
g3
g4
((lp5748
g5712
atp5749
Rp5750
sg8
I00
sg9
g5715
ssS'overshadowing'
p5751
(dp5752
g3
g4
((lp5753
tp5754
Rp5755
sg8
I00
sg9
g5751
ssS'bidirectional'
p5756
(dp5757
g3
g4
((lp5758
tp5759
Rp5760
sg8
I00
sg9
g5756
ssS'revolutionary'
p5761
(dp5762
g3
g4
((lp5763
tp5764
Rp5765
sg8
I00
sg9
g5761
ssS'strengtheners'
p5766
(dp5767
g3
g4
((lp5768
tp5769
Rp5770
sg8
I00
sg9
g5766
ssS'remonstration'
p5771
(dp5772
g3
g4
((lp5773
S'demonstration'
p5774
atp5775
Rp5776
sg8
I00
sg9
g5771
ssS'exponentially'
p5777
(dp5778
g3
g4
((lp5779
tp5780
Rp5781
sg8
I00
sg9
g5777
ssS'strangenesses'
p5782
(dp5783
g3
g4
((lp5784
tp5785
Rp5786
sg8
I00
sg9
g5782
ssS'polysyllables'
p5787
(dp5788
g3
g4
((lp5789
tp5790
Rp5791
sg8
I00
sg9
g5787
ssS'consultations'
p5792
(dp5793
g3
g4
((lp5794
tp5795
Rp5796
sg8
I00
sg9
g5792
ssS'precautionary'
p5797
(dp5798
g3
g4
((lp5799
tp5800
Rp5801
sg8
I00
sg9
g5797
ssS'outstandingly'
p5802
(dp5803
g3
g4
((lp5804
tp5805
Rp5806
sg8
I00
sg9
g5802
ssS'overenergetic'
p5807
(dp5808
g3
g4
((lp5809
tp5810
Rp5811
sg8
I00
sg9
g5807
ssS'unaccompanied'
p5812
(dp5813
g3
g4
((lp5814
tp5815
Rp5816
sg8
I00
sg9
g5812
ssS'guilelessness'
p5817
(dp5818
g3
g4
((lp5819
tp5820
Rp5821
sg8
I00
sg9
g5817
ssS'marvelousness'
p5822
(dp5823
g3
g4
((lp5824
tp5825
Rp5826
sg8
I00
sg9
g5822
ssS'prohibitively'
p5827
(dp5828
g3
g4
((lp5829
tp5830
Rp5831
sg8
I00
sg9
g5827
ssS'unwillingness'
p5832
(dp5833
g3
g4
((lp5834
tp5835
Rp5836
sg8
I00
sg9
g5832
ssS'mercurialness'
p5837
(dp5838
g3
g4
((lp5839
tp5840
Rp5841
sg8
I00
sg9
g5837
ssS'overexertions'
p5842
(dp5843
g3
g4
((lp5844
tp5845
Rp5846
sg8
I00
sg9
g5842
ssS'kindergartner'
p5847
(dp5848
g3
g4
((lp5849
tp5850
Rp5851
sg8
I00
sg9
g5847
ssS'photographing'
p5852
(dp5853
g3
g4
((lp5854
tp5855
Rp5856
sg8
I00
sg9
g5852
ssS'perambulation'
p5857
(dp5858
g3
g4
((lp5859
tp5860
Rp5861
sg8
I00
sg9
g5857
ssS'differentiate'
p5862
(dp5863
g3
g4
((lp5864
tp5865
Rp5866
sg8
I00
sg9
g5862
ssS'callousnesses'
p5867
(dp5868
g3
g4
((lp5869
tp5870
Rp5871
sg8
I00
sg9
g5867
ssS'parochialisms'
p5872
(dp5873
g3
g4
((lp5874
tp5875
Rp5876
sg8
I00
sg9
g5872
ssS'heedfulnesses'
p5877
(dp5878
g3
g4
((lp5879
tp5880
Rp5881
sg8
I00
sg9
g5877
ssS'nonreversible'
p5882
(dp5883
g3
g4
((lp5884
tp5885
Rp5886
sg8
I00
sg9
g5882
ssS'waterproofing'
p5887
(dp5888
g3
g4
((lp5889
tp5890
Rp5891
sg8
I00
sg9
g5887
ssS'guardianships'
p5892
(dp5893
g3
g4
((lp5894
tp5895
Rp5896
sg8
I00
sg9
g5892
ssS'wonderfulness'
p5897
(dp5898
g3
g4
((lp5899
tp5900
Rp5901
sg8
I00
sg9
g5897
ssS'zealousnesses'
p5902
(dp5903
g3
g4
((lp5904
tp5905
Rp5906
sg8
I00
sg9
g5902
ssS'countercharge'
p5907
(dp5908
g3
g4
((lp5909
tp5910
Rp5911
sg8
I00
sg9
g5907
ssS'reanesthetize'
p5912
(dp5913
g3
g4
((lp5914
tp5915
Rp5916
sg8
I00
sg9
g5912
ssS'multifarously'
p5917
(dp5918
g3
g4
((lp5919
tp5920
Rp5921
sg8
I00
sg9
g5917
ssS'inventiveness'
p5922
(dp5923
g3
g4
((lp5924
tp5925
Rp5926
sg8
I00
sg9
g5922
ssS'filibusterers'
p5927
(dp5928
g3
g4
((lp5929
tp5930
Rp5931
sg8
I00
sg9
g5927
ssS'refrigerating'
p5932
(dp5933
g3
g4
((lp5934
tp5935
Rp5936
sg8
I00
sg9
g5932
ssS'impregnations'
p5937
(dp5938
g3
g4
((lp5939
tp5940
Rp5941
sg8
I00
sg9
g5937
ssS'contraception'
p5942
(dp5943
g3
g4
((lp5944
tp5945
Rp5946
sg8
I00
sg9
g5942
ssS'refrigerators'
p5947
(dp5948
g3
g4
((lp5949
tp5950
Rp5951
sg8
I00
sg9
g5947
ssS'substantiates'
p5952
(dp5953
g3
g4
((lp5954
S'substantiated'
p5955
atp5956
Rp5957
sg8
I00
sg9
g5952
ssS'precipitating'
p5958
(dp5959
g3
g4
((lp5960
tp5961
Rp5962
sg8
I00
sg9
g5958
ssS'concentration'
p5963
(dp5964
g3
g4
((lp5965
tp5966
Rp5967
sg8
I00
sg9
g5963
ssS'obnoxiousness'
p5968
(dp5969
g3
g4
((lp5970
tp5971
Rp5972
sg8
I00
sg9
g5968
ssg302
(dp5973
g3
g4
((lp5974
g299
atp5975
Rp5976
sg8
I00
sg9
g302
ssS'proliferation'
p5977
(dp5978
g3
g4
((lp5979
tp5980
Rp5981
sg8
I00
sg9
g5977
ssS'precalculated'
p5982
(dp5983
g3
g4
((lp5984
S'precalculates'
p5985
atp5986
Rp5987
sg8
I00
sg9
g5982
ssS'lackadaisical'
p5988
(dp5989
g3
g4
((lp5990
tp5991
Rp5992
sg8
I00
sg9
g5988
ssS'vivaciousness'
p5993
(dp5994
g3
g4
((lp5995
tp5996
Rp5997
sg8
I00
sg9
g5993
ssS'voraciousness'
p5998
(dp5999
g3
g4
((lp6000
tp6001
Rp6002
sg8
I00
sg9
g5998
ssS'indiscernible'
p6003
(dp6004
g3
g4
((lp6005
tp6006
Rp6007
sg8
I00
sg9
g6003
ssg5985
(dp6008
g3
g4
((lp6009
g5982
atp6010
Rp6011
sg8
I00
sg9
g5985
ssS'hypochondriac'
p6012
(dp6013
g3
g4
((lp6014
S'hypochondrias'
p6015
atp6016
Rp6017
sg8
I00
sg9
g6012
ssS'complacencies'
p6018
(dp6019
g3
g4
((lp6020
tp6021
Rp6022
sg8
I00
sg9
g6018
ssS'shuffleboards'
p6023
(dp6024
g3
g4
((lp6025
tp6026
Rp6027
sg8
I00
sg9
g6023
ssS'underpinnings'
p6028
(dp6029
g3
g4
((lp6030
tp6031
Rp6032
sg8
I00
sg9
g6028
ssS'inconvenience'
p6033
(dp6034
g3
g4
((lp6035
tp6036
Rp6037
sg8
I00
sg9
g6033
ssS'entrenchments'
p6038
(dp6039
g3
g4
((lp6040
tp6041
Rp6042
sg8
I00
sg9
g6038
ssg6015
(dp6043
g3
g4
((lp6044
g6012
atp6045
Rp6046
sg8
I00
sg9
g6015
ssg195
(dp6047
g3
g4
((lp6048
g192
atp6049
Rp6050
sg8
I00
sg9
g195
ssS'antibacterial'
p6051
(dp6052
g3
g4
((lp6053
tp6054
Rp6055
sg8
I00
sg9
g6051
ssS'hallucinatory'
p6056
(dp6057
g3
g4
((lp6058
tp6059
Rp6060
sg8
I00
sg9
g6056
ssS'diametrically'
p6061
(dp6062
g3
g4
((lp6063
tp6064
Rp6065
sg8
I00
sg9
g6061
ssS'melodiousness'
p6066
(dp6067
g3
g4
((lp6068
tp6069
Rp6070
sg8
I00
sg9
g6066
ssS'preconvention'
p6071
(dp6072
g3
g4
((lp6073
tp6074
Rp6075
sg8
I00
sg9
g6071
ssS'reestablishes'
p6076
(dp6077
g3
g4
((lp6078
S'reestablished'
p6079
atp6080
Rp6081
sg8
I00
sg9
g6076
ssS'reinforcement'
p6082
(dp6083
g3
g4
((lp6084
tp6085
Rp6086
sg8
I00
sg9
g6082
ssS'massivenesses'
p6087
(dp6088
g3
g4
((lp6089
tp6090
Rp6091
sg8
I00
sg9
g6087
ssS'overimpressed'
p6092
(dp6093
g3
g4
((lp6094
tp6095
Rp6096
sg8
I00
sg9
g6092
ssg6079
(dp6097
g3
g4
((lp6098
g6076
atp6099
Rp6100
sg8
I00
sg9
g6079
ssS'deceitfulness'
p6101
(dp6102
g3
g4
((lp6103
tp6104
Rp6105
sg8
I00
sg9
g6101
ssS'monosyllables'
p6106
(dp6107
g3
g4
((lp6108
tp6109
Rp6110
sg8
I00
sg9
g6106
ssS'antisubmarine'
p6111
(dp6112
g3
g4
((lp6113
tp6114
Rp6115
sg8
I00
sg9
g6111
ssS'transshipment'
p6116
(dp6117
g3
g4
((lp6118
tp6119
Rp6120
sg8
I00
sg9
g6116
ssS'overinvolving'
p6121
(dp6122
g3
g4
((lp6123
tp6124
Rp6125
sg8
I00
sg9
g6121
ssS'originalities'
p6126
(dp6127
g3
g4
((lp6128
tp6129
Rp6130
sg8
I00
sg9
g6126
ssS'nonrefundable'
p6131
(dp6132
g3
g4
((lp6133
tp6134
Rp6135
sg8
I00
sg9
g6131
ssS'acceptability'
p6136
(dp6137
g3
g4
((lp6138
tp6139
Rp6140
sg8
I00
sg9
g6136
ssS'pacifications'
p6141
(dp6142
g3
g4
((lp6143
tp6144
Rp6145
sg8
I00
sg9
g6141
ssS'predilections'
p6146
(dp6147
g3
g4
((lp6148
tp6149
Rp6150
sg8
I00
sg9
g6146
ssS'memorializing'
p6151
(dp6152
g3
g4
((lp6153
tp6154
Rp6155
sg8
I00
sg9
g6151
ssS'diaphragmatic'
p6156
(dp6157
g3
g4
((lp6158
tp6159
Rp6160
sg8
I00
sg9
g6156
ssS'repulsiveness'
p6161
(dp6162
g3
g4
((lp6163
tp6164
Rp6165
sg8
I00
sg9
g6161
ssS'tablespoonful'
p6166
(dp6167
g3
g4
((lp6168
tp6169
Rp6170
sg8
I00
sg9
g6166
ssS'exaggeratedly'
p6171
(dp6172
g3
g4
((lp6173
tp6174
Rp6175
sg8
I00
sg9
g6171
ssS'bellicosities'
p6176
(dp6177
g3
g4
((lp6178
tp6179
Rp6180
sg8
I00
sg9
g6176
ssS'idiomatically'
p6181
(dp6182
g3
g4
((lp6183
tp6184
Rp6185
sg8
I00
sg9
g6181
ssS'rendezvousing'
p6186
(dp6187
g3
g4
((lp6188
tp6189
Rp6190
sg8
I00
sg9
g6186
ssS'reregistering'
p6191
(dp6192
g3
g4
((lp6193
tp6194
Rp6195
sg8
I00
sg9
g6191
ssS'godlessnesses'
p6196
(dp6197
g3
g4
((lp6198
tp6199
Rp6200
sg8
I00
sg9
g6196
ssS'correctnesses'
p6201
(dp6202
g3
g4
((lp6203
tp6204
Rp6205
sg8
I00
sg9
g6201
ssS'reupholstered'
p6206
(dp6207
g3
g4
((lp6208
tp6209
Rp6210
sg8
I00
sg9
g6206
ssS'premenopausal'
p6211
(dp6212
g3
g4
((lp6213
tp6214
Rp6215
sg8
I00
sg9
g6211
ssS'stylishnesses'
p6216
(dp6217
g3
g4
((lp6218
tp6219
Rp6220
sg8
I00
sg9
g6216
ssS'manslaughters'
p6221
(dp6222
g3
g4
((lp6223
tp6224
Rp6225
sg8
I00
sg9
g6221
ssS'incapacitated'
p6226
(dp6227
g3
g4
((lp6228
S'incapacitates'
p6229
atp6230
Rp6231
sg8
I00
sg9
g6226
ssS'preimmunizing'
p6232
(dp6233
g3
g4
((lp6234
tp6235
Rp6236
sg8
I00
sg9
g6232
ssS'imponderables'
p6237
(dp6238
g3
g4
((lp6239
tp6240
Rp6241
sg8
I00
sg9
g6237
ssS'overburdening'
p6242
(dp6243
g3
g4
((lp6244
tp6245
Rp6246
sg8
I00
sg9
g6242
ssS'archaeologist'
p6247
(dp6248
g3
g4
((lp6249
tp6250
Rp6251
sg8
I00
sg9
g6247
ssg6229
(dp6252
g3
g4
((lp6253
g6226
atp6254
Rp6255
sg8
I00
sg9
g6229
ssS'lithographers'
p6256
(dp6257
g3
g4
((lp6258
tp6259
Rp6260
sg8
I00
sg9
g6256
ssS'subterraneous'
p6261
(dp6262
g3
g4
((lp6263
tp6264
Rp6265
sg8
I00
sg9
g6261
ssS'choreographer'
p6266
(dp6267
g3
g4
((lp6268
S'choreographed'
p6269
atp6270
Rp6271
sg8
I00
sg9
g6266
ssS'mischievously'
p6272
(dp6273
g3
g4
((lp6274
tp6275
Rp6276
sg8
I00
sg9
g6272
ssS'prevaricators'
p6277
(dp6278
g3
g4
((lp6279
tp6280
Rp6281
sg8
I00
sg9
g6277
ssS'housewiferies'
p6282
(dp6283
g3
g4
((lp6284
tp6285
Rp6286
sg8
I00
sg9
g6282
ssS'tenuousnesses'
p6287
(dp6288
g3
g4
((lp6289
tp6290
Rp6291
sg8
I00
sg9
g6287
ssg6269
(dp6292
g3
g4
((lp6293
g6266
atp6294
Rp6295
sg8
I00
sg9
g6269
ssS'reciprocities'
p6296
(dp6297
g3
g4
((lp6298
tp6299
Rp6300
sg8
I00
sg9
g6296
ssS'schizophrenia'
p6301
(dp6302
g3
g4
((lp6303
S'schizophrenic'
p6304
atp6305
Rp6306
sg8
I00
sg9
g6301
ssS'justification'
p6307
(dp6308
g3
g4
((lp6309
tp6310
Rp6311
sg8
I00
sg9
g6307
ssS'languidnesses'
p6312
(dp6313
g3
g4
((lp6314
tp6315
Rp6316
sg8
I00
sg9
g6312
ssS'constellation'
p6317
(dp6318
g3
g4
((lp6319
tp6320
Rp6321
sg8
I00
sg9
g6317
ssS'statelinesses'
p6322
(dp6323
g3
g4
((lp6324
tp6325
Rp6326
sg8
I00
sg9
g6322
ssS'cheerlessness'
p6327
(dp6328
g3
g4
((lp6329
tp6330
Rp6331
sg8
I00
sg9
g6327
ssS'counterterror'
p6332
(dp6333
g3
g4
((lp6334
tp6335
Rp6336
sg8
I00
sg9
g6332
ssS'impulsiveness'
p6337
(dp6338
g3
g4
((lp6339
tp6340
Rp6341
sg8
I00
sg9
g6337
ssS'ichthyologies'
p6342
(dp6343
g3
g4
((lp6344
tp6345
Rp6346
sg8
I00
sg9
g6342
ssS'statistically'
p6347
(dp6348
g3
g4
((lp6349
tp6350
Rp6351
sg8
I00
sg9
g6347
ssS'swashbucklers'
p6352
(dp6353
g3
g4
((lp6354
tp6355
Rp6356
sg8
I00
sg9
g6352
ssS'complementary'
p6357
(dp6358
g3
g4
((lp6359
S'complimentary'
p6360
atp6361
Rp6362
sg8
I00
sg9
g6357
ssS'cabinetmaking'
p6363
(dp6364
g3
g4
((lp6365
tp6366
Rp6367
sg8
I00
sg9
g6363
ssS'superstrength'
p6368
(dp6369
g3
g4
((lp6370
tp6371
Rp6372
sg8
I00
sg9
g6368
ssS'immateriality'
p6373
(dp6374
g3
g4
((lp6375
tp6376
Rp6377
sg8
I00
sg9
g6373
ssS'gynecologists'
p6378
(dp6379
g3
g4
((lp6380
tp6381
Rp6382
sg8
I00
sg9
g6378
ssS'dramatization'
p6383
(dp6384
g3
g4
((lp6385
tp6386
Rp6387
sg8
I00
sg9
g6383
ssS'understanding'
p6388
(dp6389
g3
g4
((lp6390
tp6391
Rp6392
sg8
I00
sg9
g6388
ssS'inquisitorial'
p6393
(dp6394
g3
g4
((lp6395
tp6396
Rp6397
sg8
I00
sg9
g6393
ssS'glorification'
p6398
(dp6399
g3
g4
((lp6400
tp6401
Rp6402
sg8
I00
sg9
g6398
ssS'collaborators'
p6403
(dp6404
g3
g4
((lp6405
tp6406
Rp6407
sg8
I00
sg9
g6403
ssS'distinctively'
p6408
(dp6409
g3
g4
((lp6410
tp6411
Rp6412
sg8
I00
sg9
g6408
ssS'felicitations'
p6413
(dp6414
g3
g4
((lp6415
tp6416
Rp6417
sg8
I00
sg9
g6413
ssS'putrefactions'
p6418
(dp6419
g3
g4
((lp6420
tp6421
Rp6422
sg8
I00
sg9
g6418
ssS'abusivenesses'
p6423
(dp6424
g3
g4
((lp6425
tp6426
Rp6427
sg8
I00
sg9
g6423
ssS'sensitiveness'
p6428
(dp6429
g3
g4
((lp6430
tp6431
Rp6432
sg8
I00
sg9
g6428
ssS'antipollution'
p6433
(dp6434
g3
g4
((lp6435
tp6436
Rp6437
sg8
I00
sg9
g6433
ssS'homogeneously'
p6438
(dp6439
g3
g4
((lp6440
tp6441
Rp6442
sg8
I00
sg9
g6438
ssS'overambitious'
p6443
(dp6444
g3
g4
((lp6445
tp6446
Rp6447
sg8
I00
sg9
g6443
ssS'observatories'
p6448
(dp6449
g3
g4
((lp6450
tp6451
Rp6452
sg8
I00
sg9
g6448
ssS'intermarrying'
p6453
(dp6454
g3
g4
((lp6455
tp6456
Rp6457
sg8
I00
sg9
g6453
ssS'pigmentations'
p6458
(dp6459
g3
g4
((lp6460
tp6461
Rp6462
sg8
I00
sg9
g6458
ssS'totalitarians'
p6463
(dp6464
g3
g4
((lp6465
tp6466
Rp6467
sg8
I00
sg9
g6463
ssg5955
(dp6468
g3
g4
((lp6469
g5952
atp6470
Rp6471
sg8
I00
sg9
g5955
ssS'resolidifying'
p6472
(dp6473
g3
g4
((lp6474
tp6475
Rp6476
sg8
I00
sg9
g6472
ssS'rhododendrons'
p6477
(dp6478
g3
g4
((lp6479
tp6480
Rp6481
sg8
I00
sg9
g6477
ssS'refrigeration'
p6482
(dp6483
g3
g4
((lp6484
tp6485
Rp6486
sg8
I00
sg9
g6482
ssS'unhappinesses'
p6487
(dp6488
g3
g4
((lp6489
tp6490
Rp6491
sg8
I00
sg9
g6487
ssS'preexistences'
p6492
(dp6493
g3
g4
((lp6494
tp6495
Rp6496
sg8
I00
sg9
g6492
ssS'interparticle'
p6497
(dp6498
g3
g4
((lp6499
tp6500
Rp6501
sg8
I00
sg9
g6497
ssS'prepurchasing'
p6502
(dp6503
g3
g4
((lp6504
tp6505
Rp6506
sg8
I00
sg9
g6502
ssS'querulousness'
p6507
(dp6508
g3
g4
((lp6509
tp6510
Rp6511
sg8
I00
sg9
g6507
ssS'determination'
p6512
(dp6513
g3
g4
((lp6514
tp6515
Rp6516
sg8
I00
sg9
g6512
ssS'pediatricians'
p6517
(dp6518
g3
g4
((lp6519
tp6520
Rp6521
sg8
I00
sg9
g6517
ssS'extrafamilial'
p6522
(dp6523
g3
g4
((lp6524
tp6525
Rp6526
sg8
I00
sg9
g6522
ssS'unnecessarily'
p6527
(dp6528
g3
g4
((lp6529
tp6530
Rp6531
sg8
I00
sg9
g6527
ssS'steeplechases'
p6532
(dp6533
g3
g4
((lp6534
tp6535
Rp6536
sg8
I00
sg9
g6532
ssS'surreptitious'
p6537
(dp6538
g3
g4
((lp6539
tp6540
Rp6541
sg8
I00
sg9
g6537
ssS'nonchargeable'
p6542
(dp6543
g3
g4
((lp6544
tp6545
Rp6546
sg8
I00
sg9
g6542
ssS'impersonating'
p6547
(dp6548
g3
g4
((lp6549
tp6550
Rp6551
sg8
I00
sg9
g6547
ssS'denominations'
p6552
(dp6553
g3
g4
((lp6554
tp6555
Rp6556
sg8
I00
sg9
g6552
ssS'worldlinesses'
p6557
(dp6558
g3
g4
((lp6559
tp6560
Rp6561
sg8
I00
sg9
g6557
ssS'variabilities'
p6562
(dp6563
g3
g4
((lp6564
tp6565
Rp6566
sg8
I00
sg9
g6562
ssS'moribundities'
p6567
(dp6568
g3
g4
((lp6569
tp6570
Rp6571
sg8
I00
sg9
g6567
ssS'impracticable'
p6572
(dp6573
g3
g4
((lp6574
tp6575
Rp6576
sg8
I00
sg9
g6572
ssS'requisitioned'
p6577
(dp6578
g3
g4
((lp6579
tp6580
Rp6581
sg8
I00
sg9
g6577
ssS'disappointing'
p6582
(dp6583
g3
g4
((lp6584
tp6585
Rp6586
sg8
I00
sg9
g6582
ssS'indifferences'
p6587
(dp6588
g3
g4
((lp6589
tp6590
Rp6591
sg8
I00
sg9
g6587
ssS'postrecession'
p6592
(dp6593
g3
g4
((lp6594
tp6595
Rp6596
sg8
I00
sg9
g6592
ssS'congresswomen'
p6597
(dp6598
g3
g4
((lp6599
S'congresswoman'
p6600
atp6601
Rp6602
sg8
I00
sg9
g6597
ssS'interdictions'
p6603
(dp6604
g3
g4
((lp6605
tp6606
Rp6607
sg8
I00
sg9
g6603
ssS'counterfeited'
p6608
(dp6609
g3
g4
((lp6610
S'counterfeiter'
p6611
atp6612
Rp6613
sg8
I00
sg9
g6608
ssS'authenticated'
p6614
(dp6615
g3
g4
((lp6616
S'authenticates'
p6617
atp6618
Rp6619
sg8
I00
sg9
g6614
ssS'retroactively'
p6620
(dp6621
g3
g4
((lp6622
tp6623
Rp6624
sg8
I00
sg9
g6620
ssS'sportsmanship'
p6625
(dp6626
g3
g4
((lp6627
tp6628
Rp6629
sg8
I00
sg9
g6625
ssS'randomization'
p6630
(dp6631
g3
g4
((lp6632
tp6633
Rp6634
sg8
I00
sg9
g6630
ssg6617
(dp6635
g3
g4
((lp6636
g6614
atp6637
Rp6638
sg8
I00
sg9
g6617
ssg6611
(dp6639
g3
g4
((lp6640
g6608
atp6641
Rp6642
sg8
I00
sg9
g6611
ssS'overtightened'
p6643
(dp6644
g3
g4
((lp6645
tp6646
Rp6647
sg8
I00
sg9
g6643
ssS'interpolation'
p6648
(dp6649
g3
g4
((lp6650
tp6651
Rp6652
sg8
I00
sg9
g6648
ssS'powerlessness'
p6653
(dp6654
g3
g4
((lp6655
tp6656
Rp6657
sg8
I00
sg9
g6653
ssS'noncarbonated'
p6658
(dp6659
g3
g4
((lp6660
tp6661
Rp6662
sg8
I00
sg9
g6658
ssS'ototoxicities'
p6663
(dp6664
g3
g4
((lp6665
tp6666
Rp6667
sg8
I00
sg9
g6663
ssS'comprehensive'
p6668
(dp6669
g3
g4
((lp6670
tp6671
Rp6672
sg8
I00
sg9
g6668
ssS'kindergartens'
p6673
(dp6674
g3
g4
((lp6675
tp6676
Rp6677
sg8
I00
sg9
g6673
ssS'inanimateness'
p6678
(dp6679
g3
g4
((lp6680
tp6681
Rp6682
sg8
I00
sg9
g6678
ssS'supercolossal'
p6683
(dp6684
g3
g4
((lp6685
tp6686
Rp6687
sg8
I00
sg9
g6683
ssS'nondeductible'
p6688
(dp6689
g3
g4
((lp6690
tp6691
Rp6692
sg8
I00
sg9
g6688
ssS'eavesdroppers'
p6693
(dp6694
g3
g4
((lp6695
tp6696
Rp6697
sg8
I00
sg9
g6693
ssS'traditionally'
p6698
(dp6699
g3
g4
((lp6700
tp6701
Rp6702
sg8
I00
sg9
g6698
ssS'overindulging'
p6703
(dp6704
g3
g4
((lp6705
tp6706
Rp6707
sg8
I00
sg9
g6703
ssS'intertropical'
p6708
(dp6709
g3
g4
((lp6710
tp6711
Rp6712
sg8
I00
sg9
g6708
ssS'considerately'
p6713
(dp6714
g3
g4
((lp6715
tp6716
Rp6717
sg8
I00
sg9
g6713
ssS'dissimilarity'
p6718
(dp6719
g3
g4
((lp6720
tp6721
Rp6722
sg8
I00
sg9
g6718
ssS'exterminators'
p6723
(dp6724
g3
g4
((lp6725
tp6726
Rp6727
sg8
I00
sg9
g6723
ssS'overconsuming'
p6728
(dp6729
g3
g4
((lp6730
tp6731
Rp6732
sg8
I00
sg9
g6728
ssS'perspicacious'
p6733
(dp6734
g3
g4
((lp6735
tp6736
Rp6737
sg8
I00
sg9
g6733
ssS'atrociousness'
p6738
(dp6739
g3
g4
((lp6740
tp6741
Rp6742
sg8
I00
sg9
g6738
ssS'inspirational'
p6743
(dp6744
g3
g4
((lp6745
tp6746
Rp6747
sg8
I00
sg9
g6743
ssS'reintegrating'
p6748
(dp6749
g3
g4
((lp6750
tp6751
Rp6752
sg8
I00
sg9
g6748
ssS'forgivenesses'
p6753
(dp6754
g3
g4
((lp6755
tp6756
Rp6757
sg8
I00
sg9
g6753
ssS'bureaucracies'
p6758
(dp6759
g3
g4
((lp6760
tp6761
Rp6762
sg8
I00
sg9
g6758
ssS'impreciseness'
p6763
(dp6764
g3
g4
((lp6765
tp6766
Rp6767
sg8
I00
sg9
g6763
ssS'acquiescences'
p6768
(dp6769
g3
g4
((lp6770
tp6771
Rp6772
sg8
I00
sg9
g6768
ssS'unrelentingly'
p6773
(dp6774
g3
g4
((lp6775
tp6776
Rp6777
sg8
I00
sg9
g6773
ssS'contradicting'
p6778
(dp6779
g3
g4
((lp6780
tp6781
Rp6782
sg8
I00
sg9
g6778
ssS'genitourinary'
p6783
(dp6784
g3
g4
((lp6785
tp6786
Rp6787
sg8
I00
sg9
g6783
ssS'feminizations'
p6788
(dp6789
g3
g4
((lp6790
tp6791
Rp6792
sg8
I00
sg9
g6788
ssS'intoxications'
p6793
(dp6794
g3
g4
((lp6795
tp6796
Rp6797
sg8
I00
sg9
g6793
ssS'hybridization'
p6798
(dp6799
g3
g4
((lp6800
tp6801
Rp6802
sg8
I00
sg9
g6798
ssS'fluorescences'
p6803
(dp6804
g3
g4
((lp6805
tp6806
Rp6807
sg8
I00
sg9
g6803
ssS'dependability'
p6808
(dp6809
g3
g4
((lp6810
tp6811
Rp6812
sg8
I00
sg9
g6808
ssS'ambassadorial'
p6813
(dp6814
g3
g4
((lp6815
tp6816
Rp6817
sg8
I00
sg9
g6813
ssS'bloodcurdling'
p6818
(dp6819
g3
g4
((lp6820
tp6821
Rp6822
sg8
I00
sg9
g6818
ssS'overindulgent'
p6823
(dp6824
g3
g4
((lp6825
tp6826
Rp6827
sg8
I00
sg9
g6823
ssS'precipitation'
p6828
(dp6829
g3
g4
((lp6830
tp6831
Rp6832
sg8
I00
sg9
g6828
ssS'incrimination'
p6833
(dp6834
g3
g4
((lp6835
tp6836
Rp6837
sg8
I00
sg9
g6833
ssS'irretrievable'
p6838
(dp6839
g3
g4
((lp6840
tp6841
Rp6842
sg8
I00
sg9
g6838
ssg2086
(dp6843
g3
g4
((lp6844
g2083
atp6845
Rp6846
sg8
I00
sg9
g2086
ssS'nonhereditary'
p6847
(dp6848
g3
g4
((lp6849
tp6850
Rp6851
sg8
I00
sg9
g6847
ssS'flabbergasted'
p6852
(dp6853
g3
g4
((lp6854
tp6855
Rp6856
sg8
I00
sg9
g6852
ssS'interestingly'
p6857
(dp6858
g3
g4
((lp6859
tp6860
Rp6861
sg8
I00
sg9
g6857
ssS'multicultural'
p6862
(dp6863
g3
g4
((lp6864
tp6865
Rp6866
sg8
I00
sg9
g6862
ssS'mistrustfully'
p6867
(dp6868
g3
g4
((lp6869
tp6870
Rp6871
sg8
I00
sg9
g6867
ssS'premoistening'
p6872
(dp6873
g3
g4
((lp6874
tp6875
Rp6876
sg8
I00
sg9
g6872
ssS'nonadjustable'
p6877
(dp6878
g3
g4
((lp6879
tp6880
Rp6881
sg8
I00
sg9
g6877
ssS'infeasibility'
p6882
(dp6883
g3
g4
((lp6884
tp6885
Rp6886
sg8
I00
sg9
g6882
ssS'accelerations'
p6887
(dp6888
g3
g4
((lp6889
tp6890
Rp6891
sg8
I00
sg9
g6887
ssS'peevishnesses'
p6892
(dp6893
g3
g4
((lp6894
tp6895
Rp6896
sg8
I00
sg9
g6892
ssS'interbreeding'
p6897
(dp6898
g3
g4
((lp6899
tp6900
Rp6901
sg8
I00
sg9
g6897
ssS'mercenariness'
p6902
(dp6903
g3
g4
((lp6904
tp6905
Rp6906
sg8
I00
sg9
g6902
ssS'horticultural'
p6907
(dp6908
g3
g4
((lp6909
tp6910
Rp6911
sg8
I00
sg9
g6907
ssS'overexpanding'
p6912
(dp6913
g3
g4
((lp6914
tp6915
Rp6916
sg8
I00
sg9
g6912
ssS'contentedness'
p6917
(dp6918
g3
g4
((lp6919
tp6920
Rp6921
sg8
I00
sg9
g6917
ssS'geophysicists'
p6922
(dp6923
g3
g4
((lp6924
tp6925
Rp6926
sg8
I00
sg9
g6922
ssS'anticorrosive'
p6927
(dp6928
g3
g4
((lp6929
tp6930
Rp6931
sg8
I00
sg9
g6927
ssS'minisocieties'
p6932
(dp6933
g3
g4
((lp6934
tp6935
Rp6936
sg8
I00
sg9
g6932
ssS'halfheartedly'
p6937
(dp6938
g3
g4
((lp6939
tp6940
Rp6941
sg8
I00
sg9
g6937
ssS'metamorphosed'
p6942
(dp6943
g3
g4
((lp6944
g5265
atp6945
Rp6946
sg8
I00
sg9
g6942
ssS'conditionally'
p6947
(dp6948
g3
g4
((lp6949
tp6950
Rp6951
sg8
I00
sg9
g6947
ssS'orthodontists'
p6952
(dp6953
g3
g4
((lp6954
tp6955
Rp6956
sg8
I00
sg9
g6952
ssg5265
(dp6957
g3
g4
((lp6958
g5262
ag6942
atp6959
Rp6960
sg8
I00
sg9
g5265
ssS'retrogression'
p6961
(dp6962
g3
g4
((lp6963
tp6964
Rp6965
sg8
I00
sg9
g6961
ssS'magnificences'
p6966
(dp6967
g3
g4
((lp6968
tp6969
Rp6970
sg8
I00
sg9
g6966
ssS'insecurations'
p6971
(dp6972
g3
g4
((lp6973
tp6974
Rp6975
sg8
I00
sg9
g6971
ssS'counterargued'
p6976
(dp6977
g3
g4
((lp6978
S'counterargues'
p6979
atp6980
Rp6981
sg8
I00
sg9
g6976
ssS'perpendicular'
p6982
(dp6983
g3
g4
((lp6984
tp6985
Rp6986
sg8
I00
sg9
g6982
ssS'recuperations'
p6987
(dp6988
g3
g4
((lp6989
tp6990
Rp6991
sg8
I00
sg9
g6987
ssS'oversweetened'
p6992
(dp6993
g3
g4
((lp6994
tp6995
Rp6996
sg8
I00
sg9
g6992
ssg2593
(dp6997
g3
g4
((lp6998
g2590
atp6999
Rp7000
sg8
I00
sg9
g2593
ssS'suffocatingly'
p7001
(dp7002
g3
g4
((lp7003
tp7004
Rp7005
sg8
I00
sg9
g7001
ssS'entrepreneurs'
p7006
(dp7007
g3
g4
((lp7008
tp7009
Rp7010
sg8
I00
sg9
g7006
ssS'decongestants'
p7011
(dp7012
g3
g4
((lp7013
tp7014
Rp7015
sg8
I00
sg9
g7011
ssS'unintentional'
p7016
(dp7017
g3
g4
((lp7018
tp7019
Rp7020
sg8
I00
sg9
g7016
ssS'rediscoveries'
p7021
(dp7022
g3
g4
((lp7023
tp7024
Rp7025
sg8
I00
sg9
g7021
ssS'incommunicado'
p7026
(dp7027
g3
g4
((lp7028
tp7029
Rp7030
sg8
I00
sg9
g7026
ssS'gyrocompasses'
p7031
(dp7032
g3
g4
((lp7033
tp7034
Rp7035
sg8
I00
sg9
g7031
ssS'reflexiveness'
p7036
(dp7037
g3
g4
((lp7038
tp7039
Rp7040
sg8
I00
sg9
g7036
ssg6360
(dp7041
g3
g4
((lp7042
g6357
atp7043
Rp7044
sg8
I00
sg9
g6360
ssS'systematizing'
p7045
(dp7046
g3
g4
((lp7047
tp7048
Rp7049
sg8
I00
sg9
g7045
ssS'complementing'
p7050
(dp7051
g3
g4
((lp7052
tp7053
Rp7054
sg8
I00
sg9
g7050
ssS'rehospitalize'
p7055
(dp7056
g3
g4
((lp7057
tp7058
Rp7059
sg8
I00
sg9
g7055
ssS'acquiescently'
p7060
(dp7061
g3
g4
((lp7062
tp7063
Rp7064
sg8
I00
sg9
g7060
ssS'transmittable'
p7065
(dp7066
g3
g4
((lp7067
tp7068
Rp7069
sg8
I00
sg9
g7065
ssS'controversies'
p7070
(dp7071
g3
g4
((lp7072
tp7073
Rp7074
sg8
I00
sg9
g7070
ssS'conscientious'
p7075
(dp7076
g3
g4
((lp7077
tp7078
Rp7079
sg8
I00
sg9
g7075
ssS'ministrations'
p7080
(dp7081
g3
g4
((lp7082
tp7083
Rp7084
sg8
I00
sg9
g7080
ssS'uncertainties'
p7085
(dp7086
g3
g4
((lp7087
tp7088
Rp7089
sg8
I00
sg9
g7085
ssS'dubiousnesses'
p7090
(dp7091
g3
g4
((lp7092
tp7093
Rp7094
sg8
I00
sg9
g7090
ssS'incongruously'
p7095
(dp7096
g3
g4
((lp7097
tp7098
Rp7099
sg8
I00
sg9
g7095
ssS'localizations'
p7100
(dp7101
g3
g4
((lp7102
tp7103
Rp7104
sg8
I00
sg9
g7100
ssS'dissertations'
p7105
(dp7106
g3
g4
((lp7107
tp7108
Rp7109
sg8
I00
sg9
g7105
ssS'immunological'
p7110
(dp7111
g3
g4
((lp7112
tp7113
Rp7114
sg8
I00
sg9
g7110
ssS'insensitivity'
p7115
(dp7116
g3
g4
((lp7117
tp7118
Rp7119
sg8
I00
sg9
g7115
ssS'blandishments'
p7120
(dp7121
g3
g4
((lp7122
tp7123
Rp7124
sg8
I00
sg9
g7120
ssS'incontinences'
p7125
(dp7126
g3
g4
((lp7127
tp7128
Rp7129
sg8
I00
sg9
g7125
ssS'brokenhearted'
p7130
(dp7131
g3
g4
((lp7132
tp7133
Rp7134
sg8
I00
sg9
g7130
ssS'eligibilities'
p7135
(dp7136
g3
g4
((lp7137
tp7138
Rp7139
sg8
I00
sg9
g7135
ssS'commiseration'
p7140
(dp7141
g3
g4
((lp7142
tp7143
Rp7144
sg8
I00
sg9
g7140
ssS'feasibilities'
p7145
(dp7146
g3
g4
((lp7147
tp7148
Rp7149
sg8
I00
sg9
g7145
ssS'ascertainable'
p7150
(dp7151
g3
g4
((lp7152
tp7153
Rp7154
sg8
I00
sg9
g7150
ssS'naturalnesses'
p7155
(dp7156
g3
g4
((lp7157
tp7158
Rp7159
sg8
I00
sg9
g7155
ssS'individuality'
p7160
(dp7161
g3
g4
((lp7162
tp7163
Rp7164
sg8
I00
sg9
g7160
ssS'biophysicists'
p7165
(dp7166
g3
g4
((lp7167
tp7168
Rp7169
sg8
I00
sg9
g7165
ssS'interventions'
p7170
(dp7171
g3
g4
((lp7172
tp7173
Rp7174
sg8
I00
sg9
g7170
ssS'accessibility'
p7175
(dp7176
g3
g4
((lp7177
tp7178
Rp7179
sg8
I00
sg9
g7175
ssS'minihospitals'
p7180
(dp7181
g3
g4
((lp7182
tp7183
Rp7184
sg8
I00
sg9
g7180
ssS'gastronomical'
p7185
(dp7186
g3
g4
((lp7187
tp7188
Rp7189
sg8
I00
sg9
g7185
ssS'effervescence'
p7190
(dp7191
g3
g4
((lp7192
tp7193
Rp7194
sg8
I00
sg9
g7190
ssS'unionizations'
p7195
(dp7196
g3
g4
((lp7197
tp7198
Rp7199
sg8
I00
sg9
g7195
ssS'inaugurations'
p7200
(dp7201
g3
g4
((lp7202
tp7203
Rp7204
sg8
I00
sg9
g7200
ssS'mannishnesses'
p7205
(dp7206
g3
g4
((lp7207
tp7208
Rp7209
sg8
I00
sg9
g7205
ssS'reintegration'
p7210
(dp7211
g3
g4
((lp7212
tp7213
Rp7214
sg8
I00
sg9
g7210
ssS'irreplaceable'
p7215
(dp7216
g3
g4
((lp7217
tp7218
Rp7219
sg8
I00
sg9
g7215
ssS'subtreasuries'
p7220
(dp7221
g3
g4
((lp7222
tp7223
Rp7224
sg8
I00
sg9
g7220
ssS'overinflating'
p7225
(dp7226
g3
g4
((lp7227
tp7228
Rp7229
sg8
I00
sg9
g7225
ssS'recognizances'
p7230
(dp7231
g3
g4
((lp7232
tp7233
Rp7234
sg8
I00
sg9
g7230
ssS'retrogressing'
p7235
(dp7236
g3
g4
((lp7237
tp7238
Rp7239
sg8
I00
sg9
g7235
ssS'inconstancies'
p7240
(dp7241
g3
g4
((lp7242
tp7243
Rp7244
sg8
I00
sg9
g7240
ssS'belligerences'
p7245
(dp7246
g3
g4
((lp7247
tp7248
Rp7249
sg8
I00
sg9
g7245
ssS'proclamations'
p7250
(dp7251
g3
g4
((lp7252
tp7253
Rp7254
sg8
I00
sg9
g7250
ssS'surveillances'
p7255
(dp7256
g3
g4
((lp7257
tp7258
Rp7259
sg8
I00
sg9
g7255
ssS'unenforceable'
p7260
(dp7261
g3
g4
((lp7262
tp7263
Rp7264
sg8
I00
sg9
g7260
ssS'caricaturists'
p7265
(dp7266
g3
g4
((lp7267
tp7268
Rp7269
sg8
I00
sg9
g7265
ssS'cryptographic'
p7270
(dp7271
g3
g4
((lp7272
tp7273
Rp7274
sg8
I00
sg9
g7270
ssS'independently'
p7275
(dp7276
g3
g4
((lp7277
tp7278
Rp7279
sg8
I00
sg9
g7275
ssS'peculatations'
p7280
(dp7281
g3
g4
((lp7282
tp7283
Rp7284
sg8
I00
sg9
g7280
ssS'methodologies'
p7285
(dp7286
g3
g4
((lp7287
tp7288
Rp7289
sg8
I00
sg9
g7285
ssS'unanticipated'
p7290
(dp7291
g3
g4
((lp7292
tp7293
Rp7294
sg8
I00
sg9
g7290
ssS'electromagnet'
p7295
(dp7296
g3
g4
((lp7297
tp7298
Rp7299
sg8
I00
sg9
g7295
ssS'electroplated'
p7300
(dp7301
g3
g4
((lp7302
S'electroplates'
p7303
atp7304
Rp7305
sg8
I00
sg9
g7300
ssS'accumulations'
p7306
(dp7307
g3
g4
((lp7308
tp7309
Rp7310
sg8
I00
sg9
g7306
ssS'dispassionate'
p7311
(dp7312
g3
g4
((lp7313
tp7314
Rp7315
sg8
I00
sg9
g7311
ssS'repatriations'
p7316
(dp7317
g3
g4
((lp7318
tp7319
Rp7320
sg8
I00
sg9
g7316
ssS'offensiveness'
p7321
(dp7322
g3
g4
((lp7323
tp7324
Rp7325
sg8
I00
sg9
g7321
ssg7303
(dp7326
g3
g4
((lp7327
g7300
atp7328
Rp7329
sg8
I00
sg9
g7303
ssS'provincialism'
p7330
(dp7331
g3
g4
((lp7332
tp7333
Rp7334
sg8
I00
sg9
g7330
ssS'multitudinous'
p7335
(dp7336
g3
g4
((lp7337
tp7338
Rp7339
sg8
I00
sg9
g7335
ssS'fluoroscopies'
p7340
(dp7341
g3
g4
((lp7342
tp7343
Rp7344
sg8
I00
sg9
g7340
ssg561
(dp7345
g3
g4
((lp7346
g558
atp7347
Rp7348
sg8
I00
sg9
g561
ssS'contributions'
p7349
(dp7350
g3
g4
((lp7351
tp7352
Rp7353
sg8
I00
sg9
g7349
ssS'prospectively'
p7354
(dp7355
g3
g4
((lp7356
tp7357
Rp7358
sg8
I00
sg9
g7354
ssS'renunciations'
p7359
(dp7360
g3
g4
((lp7361
S'denunciations'
p7362
atp7363
Rp7364
sg8
I00
sg9
g7359
ssS'foreordaining'
p7365
(dp7366
g3
g4
((lp7367
tp7368
Rp7369
sg8
I00
sg9
g7365
ssS'herbivorously'
p7370
(dp7371
g3
g4
((lp7372
tp7373
Rp7374
sg8
I00
sg9
g7370
ssS'transfiguring'
p7375
(dp7376
g3
g4
((lp7377
tp7378
Rp7379
sg8
I00
sg9
g7375
ssS'concomitantly'
p7380
(dp7381
g3
g4
((lp7382
tp7383
Rp7384
sg8
I00
sg9
g7380
ssS'reconnoitered'
p7385
(dp7386
g3
g4
((lp7387
tp7388
Rp7389
sg8
I00
sg9
g7385
ssS'enlightenment'
p7390
(dp7391
g3
g4
((lp7392
tp7393
Rp7394
sg8
I00
sg9
g7390
ssS'overstraining'
p7395
(dp7396
g3
g4
((lp7397
tp7398
Rp7399
sg8
I00
sg9
g7395
ssS'reconcilement'
p7400
(dp7401
g3
g4
((lp7402
tp7403
Rp7404
sg8
I00
sg9
g7400
ssS'oversupplying'
p7405
(dp7406
g3
g4
((lp7407
tp7408
Rp7409
sg8
I00
sg9
g7405
ssS'overinfluence'
p7410
(dp7411
g3
g4
((lp7412
tp7413
Rp7414
sg8
I00
sg9
g7410
ssS'multibarreled'
p7415
(dp7416
g3
g4
((lp7417
tp7418
Rp7419
sg8
I00
sg9
g7415
ssS'reoccurrences'
p7420
(dp7421
g3
g4
((lp7422
tp7423
Rp7424
sg8
I00
sg9
g7420
ssS'trampolinists'
p7425
(dp7426
g3
g4
((lp7427
tp7428
Rp7429
sg8
I00
sg9
g7425
ssS'compassionate'
p7430
(dp7431
g3
g4
((lp7432
tp7433
Rp7434
sg8
I00
sg9
g7430
ssS'anachronistic'
p7435
(dp7436
g3
g4
((lp7437
tp7438
Rp7439
sg8
I00
sg9
g7435
ssS'disbursements'
p7440
(dp7441
g3
g4
((lp7442
tp7443
Rp7444
sg8
I00
sg9
g7440
ssS'interpolating'
p7445
(dp7446
g3
g4
((lp7447
tp7448
Rp7449
sg8
I00
sg9
g7445
ssS'insubordinate'
p7450
(dp7451
g3
g4
((lp7452
tp7453
Rp7454
sg8
I00
sg9
g7450
ssg464
(dp7455
g3
g4
((lp7456
g461
atp7457
Rp7458
sg8
I00
sg9
g464
ssS'artificiality'
p7459
(dp7460
g3
g4
((lp7461
tp7462
Rp7463
sg8
I00
sg9
g7459
ssS'inconsecutive'
p7464
(dp7465
g3
g4
((lp7466
tp7467
Rp7468
sg8
I00
sg9
g7464
ssS'uncomfortably'
p7469
(dp7470
g3
g4
((lp7471
S'uncomfortable'
p7472
atp7473
Rp7474
sg8
I00
sg9
g7469
ssg1689
(dp7475
g3
g4
((lp7476
g1686
atp7477
Rp7478
sg8
I00
sg9
g1689
ssg7472
(dp7479
g3
g4
((lp7480
g7469
atp7481
Rp7482
sg8
I00
sg9
g7472
ssS'precipitately'
p7483
(dp7484
g3
g4
((lp7485
tp7486
Rp7487
sg8
I00
sg9
g7483
ssS'disenchanting'
p7488
(dp7489
g3
g4
((lp7490
tp7491
Rp7492
sg8
I00
sg9
g7488
ssS'undergarments'
p7493
(dp7494
g3
g4
((lp7495
tp7496
Rp7497
sg8
I00
sg9
g7493
ssS'overexuberant'
p7498
(dp7499
g3
g4
((lp7500
tp7501
Rp7502
sg8
I00
sg9
g7498
ssS'sacrificially'
p7503
(dp7504
g3
g4
((lp7505
tp7506
Rp7507
sg8
I00
sg9
g7503
ssS'synthetically'
p7508
(dp7509
g3
g4
((lp7510
tp7511
Rp7512
sg8
I00
sg9
g7508
ssS'lexicographic'
p7513
(dp7514
g3
g4
((lp7515
tp7516
Rp7517
sg8
I00
sg9
g7513
ssS'consummations'
p7518
(dp7519
g3
g4
((lp7520
tp7521
Rp7522
sg8
I00
sg9
g7518
ssS'gubernatorial'
p7523
(dp7524
g3
g4
((lp7525
tp7526
Rp7527
sg8
I00
sg9
g7523
ssg7362
(dp7528
g3
g4
((lp7529
g7359
atp7530
Rp7531
sg8
I00
sg9
g7362
ssS'bibliographic'
p7532
(dp7533
g3
g4
((lp7534
tp7535
Rp7536
sg8
I00
sg9
g7532
ssS'fertilization'
p7537
(dp7538
g3
g4
((lp7539
tp7540
Rp7541
sg8
I00
sg9
g7537
ssS'receiverships'
p7542
(dp7543
g3
g4
((lp7544
tp7545
Rp7546
sg8
I00
sg9
g7542
ssS'questionniare'
p7547
(dp7548
g3
g4
((lp7549
tp7550
Rp7551
sg8
I00
sg9
g7547
ssS'categorically'
p7552
(dp7553
g3
g4
((lp7554
tp7555
Rp7556
sg8
I00
sg9
g7552
ssS'persistencies'
p7557
(dp7558
g3
g4
((lp7559
tp7560
Rp7561
sg8
I00
sg9
g7557
ssS'vegetarianism'
p7562
(dp7563
g3
g4
((lp7564
tp7565
Rp7566
sg8
I00
sg9
g7562
ssS'consideration'
p7567
(dp7568
g3
g4
((lp7569
tp7570
Rp7571
sg8
I00
sg9
g7567
ssS'imperfections'
p7572
(dp7573
g3
g4
((lp7574
tp7575
Rp7576
sg8
I00
sg9
g7572
ssS'interindustry'
p7577
(dp7578
g3
g4
((lp7579
tp7580
Rp7581
sg8
I00
sg9
g7577
ssS'compactnesses'
p7582
(dp7583
g3
g4
((lp7584
tp7585
Rp7586
sg8
I00
sg9
g7582
ssS'incriminating'
p7587
(dp7588
g3
g4
((lp7589
tp7590
Rp7591
sg8
I00
sg9
g7587
ssS'contradiction'
p7592
(dp7593
g3
g4
((lp7594
tp7595
Rp7596
sg8
I00
sg9
g7592
ssS'eviscerations'
p7597
(dp7598
g3
g4
((lp7599
tp7600
Rp7601
sg8
I00
sg9
g7597
ssg3717
(dp7602
g3
g4
((lp7603
g3714
atp7604
Rp7605
sg8
I00
sg9
g3717
ssS'stabilization'
p7606
(dp7607
g3
g4
((lp7608
tp7609
Rp7610
sg8
I00
sg9
g7606
ssg4453
(dp7611
g3
g4
((lp7612
g4450
atp7613
Rp7614
sg8
I00
sg9
g4453
ssS'predesignates'
p7615
(dp7616
g3
g4
((lp7617
S'predesignated'
p7618
atp7619
Rp7620
sg8
I00
sg9
g7615
ssS'reassignments'
p7621
(dp7622
g3
g4
((lp7623
tp7624
Rp7625
sg8
I00
sg9
g7621
ssS'collaborating'
p7626
(dp7627
g3
g4
((lp7628
tp7629
Rp7630
sg8
I00
sg9
g7626
ssg7618
(dp7631
g3
g4
((lp7632
g7615
atp7633
Rp7634
sg8
I00
sg9
g7618
ssS'subcategories'
p7635
(dp7636
g3
g4
((lp7637
tp7638
Rp7639
sg8
I00
sg9
g7635
ssS'perseverances'
p7640
(dp7641
g3
g4
((lp7642
tp7643
Rp7644
sg8
I00
sg9
g7640
ssS'encroachments'
p7645
(dp7646
g3
g4
((lp7647
tp7648
Rp7649
sg8
I00
sg9
g7645
ssS'pusillanimous'
p7650
(dp7651
g3
g4
((lp7652
tp7653
Rp7654
sg8
I00
sg9
g7650
ssS'congratulated'
p7655
(dp7656
g3
g4
((lp7657
S'congratulates'
p7658
atp7659
Rp7660
sg8
I00
sg9
g7655
ssS'procrastinate'
p7661
(dp7662
g3
g4
((lp7663
tp7664
Rp7665
sg8
I00
sg9
g7661
ssS'administrable'
p7666
(dp7667
g3
g4
((lp7668
tp7669
Rp7670
sg8
I00
sg9
g7666
ssS'irrepressible'
p7671
(dp7672
g3
g4
((lp7673
tp7674
Rp7675
sg8
I00
sg9
g7671
ssg7658
(dp7676
g3
g4
((lp7677
g7655
atp7678
Rp7679
sg8
I00
sg9
g7658
ssS'minifestivals'
p7680
(dp7681
g3
g4
((lp7682
tp7683
Rp7684
sg8
I00
sg9
g7680
ssS'commiserating'
p7685
(dp7686
g3
g4
((lp7687
tp7688
Rp7689
sg8
I00
sg9
g7685
ssS'crisscrossing'
p7690
(dp7691
g3
g4
((lp7692
tp7693
Rp7694
sg8
I00
sg9
g7690
ssS'flexibilities'
p7695
(dp7696
g3
g4
((lp7697
tp7698
Rp7699
sg8
I00
sg9
g7695
ssg2446
(dp7700
g3
g4
((lp7701
g2443
atp7702
Rp7703
sg8
I00
sg9
g2446
ssS'importunities'
p7704
(dp7705
g3
g4
((lp7706
tp7707
Rp7708
sg8
I00
sg9
g7704
ssS'insufficiency'
p7709
(dp7710
g3
g4
((lp7711
tp7712
Rp7713
sg8
I00
sg9
g7709
ssS'kaleidoscopic'
p7714
(dp7715
g3
g4
((lp7716
tp7717
Rp7718
sg8
I00
sg9
g7714
ssS'convergencies'
p7719
(dp7720
g3
g4
((lp7721
tp7722
Rp7723
sg8
I00
sg9
g7719
ssS'commandeering'
p7724
(dp7725
g3
g4
((lp7726
tp7727
Rp7728
sg8
I00
sg9
g7724
ssS'antisyphillis'
p7729
(dp7730
g3
g4
((lp7731
tp7732
Rp7733
sg8
I00
sg9
g7729
ssS'mimeographing'
p7734
(dp7735
g3
g4
((lp7736
tp7737
Rp7738
sg8
I00
sg9
g7734
ssS'transmissible'
p7739
(dp7740
g3
g4
((lp7741
tp7742
Rp7743
sg8
I00
sg9
g7739
ssS'overdramatize'
p7744
(dp7745
g3
g4
((lp7746
tp7747
Rp7748
sg8
I00
sg9
g7744
ssS'sarsaparillas'
p7749
(dp7750
g3
g4
((lp7751
tp7752
Rp7753
sg8
I00
sg9
g7749
ssS'infinitesimal'
p7754
(dp7755
g3
g4
((lp7756
tp7757
Rp7758
sg8
I00
sg9
g7754
ssS'overprescribe'
p7759
(dp7760
g3
g4
((lp7761
tp7762
Rp7763
sg8
I00
sg9
g7759
ssS'intimidations'
p7764
(dp7765
g3
g4
((lp7766
tp7767
Rp7768
sg8
I00
sg9
g7764
ssS'recriminatory'
p7769
(dp7770
g3
g4
((lp7771
tp7772
Rp7773
sg8
I00
sg9
g7769
ssS'painstakingly'
p7774
(dp7775
g3
g4
((lp7776
tp7777
Rp7778
sg8
I00
sg9
g7774
ssS'prevaricating'
p7779
(dp7780
g3
g4
((lp7781
tp7782
Rp7783
sg8
I00
sg9
g7779
ssS'reconstructed'
p7784
(dp7785
g3
g4
((lp7786
tp7787
Rp7788
sg8
I00
sg9
g7784
ssS'ludicrousness'
p7789
(dp7790
g3
g4
((lp7791
tp7792
Rp7793
sg8
I00
sg9
g7789
ssS'magnificently'
p7794
(dp7795
g3
g4
((lp7796
tp7797
Rp7798
sg8
I00
sg9
g7794
ssS'autobiography'
p7799
(dp7800
g3
g4
((lp7801
tp7802
Rp7803
sg8
I00
sg9
g7799
ssS'invincibility'
p7804
(dp7805
g3
g4
((lp7806
tp7807
Rp7808
sg8
I00
sg9
g7804
ssS'counterstyles'
p7809
(dp7810
g3
g4
((lp7811
tp7812
Rp7813
sg8
I00
sg9
g7809
ssS'hypertensives'
p7814
(dp7815
g3
g4
((lp7816
tp7817
Rp7818
sg8
I00
sg9
g7814
ssS'instinctively'
p7819
(dp7820
g3
g4
((lp7821
tp7822
Rp7823
sg8
I00
sg9
g7819
ssS'remunerations'
p7824
(dp7825
g3
g4
((lp7826
tp7827
Rp7828
sg8
I00
sg9
g7824
ssS'establishment'
p7829
(dp7830
g3
g4
((lp7831
tp7832
Rp7833
sg8
I00
sg9
g7829
ssS'administrator'
p7834
(dp7835
g3
g4
((lp7836
tp7837
Rp7838
sg8
I00
sg9
g7834
ssS'precisenesses'
p7839
(dp7840
g3
g4
((lp7841
tp7842
Rp7843
sg8
I00
sg9
g7839
ssg798
(dp7844
g3
g4
((lp7845
g795
atp7846
Rp7847
sg8
I00
sg9
g798
ssS'invertibrates'
p7848
(dp7849
g3
g4
((lp7850
tp7851
Rp7852
sg8
I00
sg9
g7848
ssS'domesticating'
p7853
(dp7854
g3
g4
((lp7855
tp7856
Rp7857
sg8
I00
sg9
g7853
ssg4840
(dp7858
g3
g4
((lp7859
g4837
atp7860
Rp7861
sg8
I00
sg9
g4840
ssS'obtrusiveness'
p7862
(dp7863
g3
g4
((lp7864
tp7865
Rp7866
sg8
I00
sg9
g7862
ssS'copiousnesses'
p7867
(dp7868
g3
g4
((lp7869
tp7870
Rp7871
sg8
I00
sg9
g7867
ssS'unforeseeable'
p7872
(dp7873
g3
g4
((lp7874
tp7875
Rp7876
sg8
I00
sg9
g7872
ssS'extravaganzas'
p7877
(dp7878
g3
g4
((lp7879
tp7880
Rp7881
sg8
I00
sg9
g7877
ssS'boundlessness'
p7882
(dp7883
g3
g4
((lp7884
tp7885
Rp7886
sg8
I00
sg9
g7882
ssS'discomfitures'
p7887
(dp7888
g3
g4
((lp7889
tp7890
Rp7891
sg8
I00
sg9
g7887
ssS'intellectuals'
p7892
(dp7893
g3
g4
((lp7894
tp7895
Rp7896
sg8
I00
sg9
g7892
ssS'circumscribes'
p7897
(dp7898
g3
g4
((lp7899
S'circumscribed'
p7900
atp7901
Rp7902
sg8
I00
sg9
g7897
ssS'superimposing'
p7903
(dp7904
g3
g4
((lp7905
tp7906
Rp7907
sg8
I00
sg9
g7903
ssS'institutional'
p7908
(dp7909
g3
g4
((lp7910
tp7911
Rp7912
sg8
I00
sg9
g7908
ssS'translucences'
p7913
(dp7914
g3
g4
((lp7915
tp7916
Rp7917
sg8
I00
sg9
g7913
ssS'apathetically'
p7918
(dp7919
g3
g4
((lp7920
tp7921
Rp7922
sg8
I00
sg9
g7918
ssS'overfertilize'
p7923
(dp7924
g3
g4
((lp7925
tp7926
Rp7927
sg8
I00
sg9
g7923
ssg7900
(dp7928
g3
g4
((lp7929
g7897
atp7930
Rp7931
sg8
I00
sg9
g7900
ssS'argumentative'
p7932
(dp7933
g3
g4
((lp7934
tp7935
Rp7936
sg8
I00
sg9
g7932
ssS'disobediences'
p7937
(dp7938
g3
g4
((lp7939
tp7940
Rp7941
sg8
I00
sg9
g7937
ssS'overanalyzing'
p7942
(dp7943
g3
g4
((lp7944
tp7945
Rp7946
sg8
I00
sg9
g7942
ssS'heinousnesses'
p7947
(dp7948
g3
g4
((lp7949
tp7950
Rp7951
sg8
I00
sg9
g7947
ssS'contemplative'
p7952
(dp7953
g3
g4
((lp7954
tp7955
Rp7956
sg8
I00
sg9
g7952
ssS'extinguishers'
p7957
(dp7958
g3
g4
((lp7959
tp7960
Rp7961
sg8
I00
sg9
g7957
ssS'superiorities'
p7962
(dp7963
g3
g4
((lp7964
tp7965
Rp7966
sg8
I00
sg9
g7962
ssS'carcinogenics'
p7967
(dp7968
g3
g4
((lp7969
tp7970
Rp7971
sg8
I00
sg9
g7967
ssS'polarizations'
p7972
(dp7973
g3
g4
((lp7974
tp7975
Rp7976
sg8
I00
sg9
g7972
ssS'enchantresses'
p7977
(dp7978
g3
g4
((lp7979
tp7980
Rp7981
sg8
I00
sg9
g7977
ssS'tediousnesses'
p7982
(dp7983
g3
g4
((lp7984
tp7985
Rp7986
sg8
I00
sg9
g7982
ssS'frontispieces'
p7987
(dp7988
g3
g4
((lp7989
tp7990
Rp7991
sg8
I00
sg9
g7987
ssS'unnaturalness'
p7992
(dp7993
g3
g4
((lp7994
tp7995
Rp7996
sg8
I00
sg9
g7992
ssS'resplendences'
p7997
(dp7998
g3
g4
((lp7999
tp8000
Rp8001
sg8
I00
sg9
g7997
ssS'professorship'
p8002
(dp8003
g3
g4
((lp8004
tp8005
Rp8006
sg8
I00
sg9
g8002
ssS'unpredictably'
p8007
(dp8008
g3
g4
((lp8009
S'unpredictable'
p8010
atp8011
Rp8012
sg8
I00
sg9
g8007
ssS'registrations'
p8013
(dp8014
g3
g4
((lp8015
tp8016
Rp8017
sg8
I00
sg9
g8013
ssS'meritoriously'
p8018
(dp8019
g3
g4
((lp8020
tp8021
Rp8022
sg8
I00
sg9
g8018
ssg8010
(dp8023
g3
g4
((lp8024
g8007
atp8025
Rp8026
sg8
I00
sg9
g8010
ssS'equivocations'
p8027
(dp8028
g3
g4
((lp8029
tp8030
Rp8031
sg8
I00
sg9
g8027
ssS'perfectionist'
p8032
(dp8033
g3
g4
((lp8034
tp8035
Rp8036
sg8
I00
sg9
g8032
ssS'tonsillitises'
p8037
(dp8038
g3
g4
((lp8039
tp8040
Rp8041
sg8
I00
sg9
g8037
ssS'uninteresting'
p8042
(dp8043
g3
g4
((lp8044
tp8045
Rp8046
sg8
I00
sg9
g8042
ssS'nonscientists'
p8047
(dp8048
g3
g4
((lp8049
tp8050
Rp8051
sg8
I00
sg9
g8047
ssS'magnanimities'
p8052
(dp8053
g3
g4
((lp8054
tp8055
Rp8056
sg8
I00
sg9
g8052
ssS'overpublicize'
p8057
(dp8058
g3
g4
((lp8059
tp8060
Rp8061
sg8
I00
sg9
g8057
ssS'proliferating'
p8062
(dp8063
g3
g4
((lp8064
tp8065
Rp8066
sg8
I00
sg9
g8062
ssS'storytellings'
p8067
(dp8068
g3
g4
((lp8069
tp8070
Rp8071
sg8
I00
sg9
g8067
ssS'overutilizing'
p8072
(dp8073
g3
g4
((lp8074
tp8075
Rp8076
sg8
I00
sg9
g8072
ssS'investigative'
p8077
(dp8078
g3
g4
((lp8079
tp8080
Rp8081
sg8
I00
sg9
g8077
ssS'chloroforming'
p8082
(dp8083
g3
g4
((lp8084
tp8085
Rp8086
sg8
I00
sg9
g8082
ssS'standardizing'
p8087
(dp8088
g3
g4
((lp8089
tp8090
Rp8091
sg8
I00
sg9
g8087
ssS'fundamentally'
p8092
(dp8093
g3
g4
((lp8094
tp8095
Rp8096
sg8
I00
sg9
g8092
ssS'entertainment'
p8097
(dp8098
g3
g4
((lp8099
tp8100
Rp8101
sg8
I00
sg9
g8097
ssS'frankincenses'
p8102
(dp8103
g3
g4
((lp8104
tp8105
Rp8106
sg8
I00
sg9
g8102
ssS'relinquishing'
p8107
(dp8108
g3
g4
((lp8109
tp8110
Rp8111
sg8
I00
sg9
g8107
ssS'harmfulnesses'
p8112
(dp8113
g3
g4
((lp8114
tp8115
Rp8116
sg8
I00
sg9
g8112
ssS'granddaughter'
p8117
(dp8118
g3
g4
((lp8119
tp8120
Rp8121
sg8
I00
sg9
g8117
ssS'biconvexities'
p8122
(dp8123
g3
g4
((lp8124
tp8125
Rp8126
sg8
I00
sg9
g8122
ssg4203
(dp8127
g3
g4
((lp8128
g4200
atp8129
Rp8130
sg8
I00
sg9
g4203
ssS'confirmations'
p8131
(dp8132
g3
g4
((lp8133
tp8134
Rp8135
sg8
I00
sg9
g8131
ssS'conservatives'
p8136
(dp8137
g3
g4
((lp8138
tp8139
Rp8140
sg8
I00
sg9
g8136
ssS'noncombatants'
p8141
(dp8142
g3
g4
((lp8143
tp8144
Rp8145
sg8
I00
sg9
g8141
ssS'unsoundnesses'
p8146
(dp8147
g3
g4
((lp8148
tp8149
Rp8150
sg8
I00
sg9
g8146
ssg2898
(dp8151
g3
g4
((lp8152
g2895
atp8153
Rp8154
sg8
I00
sg9
g2898
ssS'mononucleosis'
p8155
(dp8156
g3
g4
((lp8157
tp8158
Rp8159
sg8
I00
sg9
g8155
ssS'amorousnesses'
p8160
(dp8161
g3
g4
((lp8162
tp8163
Rp8164
sg8
I00
sg9
g8160
ssS'sleeplessness'
p8165
(dp8166
g3
g4
((lp8167
tp8168
Rp8169
sg8
I00
sg9
g8165
ssS'overaggresive'
p8170
(dp8171
g3
g4
((lp8172
tp8173
Rp8174
sg8
I00
sg9
g8170
ssS'qualification'
p8175
(dp8176
g3
g4
((lp8177
tp8178
Rp8179
sg8
I00
sg9
g8175
ssS'lieutenancies'
p8180
(dp8181
g3
g4
((lp8182
tp8183
Rp8184
sg8
I00
sg9
g8180
ssS'troublemakers'
p8185
(dp8186
g3
g4
((lp8187
tp8188
Rp8189
sg8
I00
sg9
g8185
ssS'wholesomeness'
p8190
(dp8191
g3
g4
((lp8192
tp8193
Rp8194
sg8
I00
sg9
g8190
ssS'introspective'
p8195
(dp8196
g3
g4
((lp8197
tp8198
Rp8199
sg8
I00
sg9
g8195
ssS'conscriptions'
p8200
(dp8201
g3
g4
((lp8202
tp8203
Rp8204
sg8
I00
sg9
g8200
ssS'interceptions'
p8205
(dp8206
g3
g4
((lp8207
tp8208
Rp8209
sg8
I00
sg9
g8205
ssS'commendations'
p8210
(dp8211
g3
g4
((lp8212
tp8213
Rp8214
sg8
I00
sg9
g8210
ssS'calumniations'
p8215
(dp8216
g3
g4
((lp8217
tp8218
Rp8219
sg8
I00
sg9
g8215
ssS'practitioners'
p8220
(dp8221
g3
g4
((lp8222
tp8223
Rp8224
sg8
I00
sg9
g8220
ssS'nonperishable'
p8225
(dp8226
g3
g4
((lp8227
tp8228
Rp8229
sg8
I00
sg9
g8225
ssS'vituperations'
p8230
(dp8231
g3
g4
((lp8232
tp8233
Rp8234
sg8
I00
sg9
g8230
ssS'niggardliness'
p8235
(dp8236
g3
g4
((lp8237
tp8238
Rp8239
sg8
I00
sg9
g8235
ssS'imprisonments'
p8240
(dp8241
g3
g4
((lp8242
tp8243
Rp8244
sg8
I00
sg9
g8240
ssS'minerologists'
p8245
(dp8246
g3
g4
((lp8247
tp8248
Rp8249
sg8
I00
sg9
g8245
ssS'realistically'
p8250
(dp8251
g3
g4
((lp8252
tp8253
Rp8254
sg8
I00
sg9
g8250
ssS'overdepending'
p8255
(dp8256
g3
g4
((lp8257
tp8258
Rp8259
sg8
I00
sg9
g8255
ssS'cauterization'
p8260
(dp8261
g3
g4
((lp8262
tp8263
Rp8264
sg8
I00
sg9
g8260
ssS'precipitously'
p8265
(dp8266
g3
g4
((lp8267
tp8268
Rp8269
sg8
I00
sg9
g8265
ssS'antismuggling'
p8270
(dp8271
g3
g4
((lp8272
tp8273
Rp8274
sg8
I00
sg9
g8270
ssS'nonclassified'
p8275
(dp8276
g3
g4
((lp8277
tp8278
Rp8279
sg8
I00
sg9
g8275
ssS'italicization'
p8280
(dp8281
g3
g4
((lp8282
tp8283
Rp8284
sg8
I00
sg9
g8280
ssS'overexpansion'
p8285
(dp8286
g3
g4
((lp8287
tp8288
Rp8289
sg8
I00
sg9
g8285
ssS'seriousnesses'
p8290
(dp8291
g3
g4
((lp8292
tp8293
Rp8294
sg8
I00
sg9
g8290
ssS'environmental'
p8295
(dp8296
g3
g4
((lp8297
tp8298
Rp8299
sg8
I00
sg9
g8295
ssS'accompaniment'
p8300
(dp8301
g3
g4
((lp8302
tp8303
Rp8304
sg8
I00
sg9
g8300
ssS'manifestation'
p8305
(dp8306
g3
g4
((lp8307
tp8308
Rp8309
sg8
I00
sg9
g8305
ssS'discretionary'
p8310
(dp8311
g3
g4
((lp8312
tp8313
Rp8314
sg8
I00
sg9
g8310
ssS'incongruities'
p8315
(dp8316
g3
g4
((lp8317
tp8318
Rp8319
sg8
I00
sg9
g8315
ssg6304
(dp8320
g3
g4
((lp8321
g6301
atp8322
Rp8323
sg8
I00
sg9
g6304
ssS'reappearances'
p8324
(dp8325
g3
g4
((lp8326
tp8327
Rp8328
sg8
I00
sg9
g8324
ssS'objectionable'
p8329
(dp8330
g3
g4
((lp8331
tp8332
Rp8333
sg8
I00
sg9
g8329
ssS'distinguishes'
p8334
(dp8335
g3
g4
((lp8336
S'distinguished'
p8337
atp8338
Rp8339
sg8
I00
sg9
g8334
ssS'obviousnesses'
p8340
(dp8341
g3
g4
((lp8342
tp8343
Rp8344
sg8
I00
sg9
g8340
ssS'transgression'
p8345
(dp8346
g3
g4
((lp8347
tp8348
Rp8349
sg8
I00
sg9
g8345
ssg8337
(dp8350
g3
g4
((lp8351
g8334
atp8352
Rp8353
sg8
I00
sg9
g8337
ssS'misunderstand'
p8354
(dp8355
g3
g4
((lp8356
tp8357
Rp8358
sg8
I00
sg9
g8354
ssS'counterpowers'
p8359
(dp8360
g3
g4
((lp8361
tp8362
Rp8363
sg8
I00
sg9
g8359
ssS'laughingstock'
p8364
(dp8365
g3
g4
((lp8366
tp8367
Rp8368
sg8
I00
sg9
g8364
ssS'extranational'
p8369
(dp8370
g3
g4
((lp8371
tp8372
Rp8373
sg8
I00
sg9
g8369
ssS'encyclopedias'
p8374
(dp8375
g3
g4
((lp8376
tp8377
Rp8378
sg8
I00
sg9
g8374
ssS'antiforeigner'
p8379
(dp8380
g3
g4
((lp8381
tp8382
Rp8383
sg8
I00
sg9
g8379
ssS'menstruations'
p8384
(dp8385
g3
g4
((lp8386
tp8387
Rp8388
sg8
I00
sg9
g8384
ssS'interrogating'
p8389
(dp8390
g3
g4
((lp8391
tp8392
Rp8393
sg8
I00
sg9
g8389
ssS'nonintegrated'
p8394
(dp8395
g3
g4
((lp8396
tp8397
Rp8398
sg8
I00
sg9
g8394
ssg5774
(dp8399
g3
g4
((lp8400
g5771
atp8401
Rp8402
sg8
I00
sg9
g5774
ssS'domestication'
p8403
(dp8404
g3
g4
((lp8405
tp8406
Rp8407
sg8
I00
sg9
g8403
ssS'constipations'
p8408
(dp8409
g3
g4
((lp8410
tp8411
Rp8412
sg8
I00
sg9
g8408
ssS'unadulterated'
p8413
(dp8414
g3
g4
((lp8415
tp8416
Rp8417
sg8
I00
sg9
g8413
ssS'jurisdictions'
p8418
(dp8419
g3
g4
((lp8420
tp8421
Rp8422
sg8
I00
sg9
g8418
ssS'pretentiously'
p8423
(dp8424
g3
g4
((lp8425
tp8426
Rp8427
sg8
I00
sg9
g8423
ssS'overdependent'
p8428
(dp8429
g3
g4
((lp8430
tp8431
Rp8432
sg8
I00
sg9
g8428
ssS'intercolonial'
p8433
(dp8434
g3
g4
((lp8435
tp8436
Rp8437
sg8
I00
sg9
g8433
ssS'collaboration'
p8438
(dp8439
g3
g4
((lp8440
tp8441
Rp8442
sg8
I00
sg9
g8438
ssS'pronouncement'
p8443
(dp8444
g3
g4
((lp8445
tp8446
Rp8447
sg8
I00
sg9
g8443
ssS'unobtrusively'
p8448
(dp8449
g3
g4
((lp8450
tp8451
Rp8452
sg8
I00
sg9
g8448
ssS'acupuncturist'
p8453
(dp8454
g3
g4
((lp8455
tp8456
Rp8457
sg8
I00
sg9
g8453
ssS'artlessnesses'
p8458
(dp8459
g3
g4
((lp8460
tp8461
Rp8462
sg8
I00
sg9
g8458
ssS'aerodynamical'
p8463
(dp8464
g3
g4
((lp8465
tp8466
Rp8467
sg8
I00
sg9
g8463
ssS'harmonization'
p8468
(dp8469
g3
g4
((lp8470
tp8471
Rp8472
sg8
I00
sg9
g8468
ssS'luminescences'
p8473
(dp8474
g3
g4
((lp8475
tp8476
Rp8477
sg8
I00
sg9
g8473
ssS'furtivenesses'
p8478
(dp8479
g3
g4
((lp8480
tp8481
Rp8482
sg8
I00
sg9
g8478
ssS'incredibility'
p8483
(dp8484
g3
g4
((lp8485
tp8486
Rp8487
sg8
I00
sg9
g8483
ssS'improprieties'
p8488
(dp8489
g3
g4
((lp8490
tp8491
Rp8492
sg8
I00
sg9
g8488
ssS'magnanimously'
p8493
(dp8494
g3
g4
((lp8495
tp8496
Rp8497
sg8
I00
sg9
g8493
ssS'metallurgists'
p8498
(dp8499
g3
g4
((lp8500
tp8501
Rp8502
sg8
I00
sg9
g8498
ssS'inflammations'
p8503
(dp8504
g3
g4
((lp8505
tp8506
Rp8507
sg8
I00
sg9
g8503
ssS'industrialist'
p8508
(dp8509
g3
g4
((lp8510
tp8511
Rp8512
sg8
I00
sg9
g8508
ssS'crossbreeding'
p8513
(dp8514
g3
g4
((lp8515
tp8516
Rp8517
sg8
I00
sg9
g8513
ssg2440
(dp8518
g3
g4
((lp8519
g2437
atp8520
Rp8521
sg8
I00
sg9
g2440
ssS'ungodlinesses'
p8522
(dp8523
g3
g4
((lp8524
tp8525
Rp8526
sg8
I00
sg9
g8522
ssS'incorruptible'
p8527
(dp8528
g3
g4
((lp8529
tp8530
Rp8531
sg8
I00
sg9
g8527
ssS'hydroelectric'
p8532
(dp8533
g3
g4
((lp8534
tp8535
Rp8536
sg8
I00
sg9
g8532
ssS'ineligibility'
p8537
(dp8538
g3
g4
((lp8539
tp8540
Rp8541
sg8
I00
sg9
g8537
ssS'foreknowledge'
p8542
(dp8543
g3
g4
((lp8544
tp8545
Rp8546
sg8
I00
sg9
g8542
ssS'antievolution'
p8547
(dp8548
g3
g4
((lp8549
tp8550
Rp8551
sg8
I00
sg9
g8547
ssS'earthlinesses'
p8552
(dp8553
g3
g4
((lp8554
tp8555
Rp8556
sg8
I00
sg9
g8552
ssS'threateningly'
p8557
(dp8558
g3
g4
((lp8559
tp8560
Rp8561
sg8
I00
sg9
g8557
ssS'prevarication'
p8562
(dp8563
g3
g4
((lp8564
tp8565
Rp8566
sg8
I00
sg9
g8562
ssS'bacteriologic'
p8567
(dp8568
g3
g4
((lp8569
tp8570
Rp8571
sg8
I00
sg9
g8567
ssS'chairmanships'
p8572
(dp8573
g3
g4
((lp8574
tp8575
Rp8576
sg8
I00
sg9
g8572
ssS'reliabilities'
p8577
(dp8578
g3
g4
((lp8579
tp8580
Rp8581
sg8
I00
sg9
g8577
ssS'prizefighting'
p8582
(dp8583
g3
g4
((lp8584
tp8585
Rp8586
sg8
I00
sg9
g8582
ssS'kleptomaniacs'
p8587
(dp8588
g3
g4
((lp8589
tp8590
Rp8591
sg8
I00
sg9
g8587
ssS'ophthalmology'
p8592
(dp8593
g3
g4
((lp8594
tp8595
Rp8596
sg8
I00
sg9
g8592
ssS'nonconsumable'
p8597
(dp8598
g3
g4
((lp8599
tp8600
Rp8601
sg8
I00
sg9
g8597
ssS'overinsistent'
p8602
(dp8603
g3
g4
((lp8604
tp8605
Rp8606
sg8
I00
sg9
g8602
ssS'overassertive'
p8607
(dp8608
g3
g4
((lp8609
tp8610
Rp8611
sg8
I00
sg9
g8607
ssS'transposition'
p8612
(dp8613
g3
g4
((lp8614
tp8615
Rp8616
sg8
I00
sg9
g8612
ssS'antifertility'
p8617
(dp8618
g3
g4
((lp8619
tp8620
Rp8621
sg8
I00
sg9
g8617
ssS'multimodality'
p8622
(dp8623
g3
g4
((lp8624
tp8625
Rp8626
sg8
I00
sg9
g8622
ssS'monstrosities'
p8627
(dp8628
g3
g4
((lp8629
tp8630
Rp8631
sg8
I00
sg9
g8627
ssS'accentuations'
p8632
(dp8633
g3
g4
((lp8634
tp8635
Rp8636
sg8
I00
sg9
g8632
ssS'tranquilities'
p8637
(dp8638
g3
g4
((lp8639
tp8640
Rp8641
sg8
I00
sg9
g8637
ssS'indestrucible'
p8642
(dp8643
g3
g4
((lp8644
tp8645
Rp8646
sg8
I00
sg9
g8642
ssS'differentials'
p8647
(dp8648
g3
g4
((lp8649
tp8650
Rp8651
sg8
I00
sg9
g8647
ssS'fantastically'
p8652
(dp8653
g3
g4
((lp8654
tp8655
Rp8656
sg8
I00
sg9
g8652
ssS'chieftaincies'
p8657
(dp8658
g3
g4
((lp8659
tp8660
Rp8661
sg8
I00
sg9
g8657
ssS'counterthreat'
p8662
(dp8663
g3
g4
((lp8664
tp8665
Rp8666
sg8
I00
sg9
g8662
ssS'indisposition'
p8667
(dp8668
g3
g4
((lp8669
tp8670
Rp8671
sg8
I00
sg9
g8667
ssS'imaginatively'
p8672
(dp8673
g3
g4
((lp8674
tp8675
Rp8676
sg8
I00
sg9
g8672
ssS'inattentively'
p8677
(dp8678
g3
g4
((lp8679
tp8680
Rp8681
sg8
I00
sg9
g8677
ssS'multibuilding'
p8682
(dp8683
g3
g4
((lp8684
tp8685
Rp8686
sg8
I00
sg9
g8682
ssS'postinaugural'
p8687
(dp8688
g3
g4
((lp8689
tp8690
Rp8691
sg8
I00
sg9
g8687
ssS'reassociating'
p8692
(dp8693
g3
g4
((lp8694
tp8695
Rp8696
sg8
I00
sg9
g8692
ssS'alphabetizing'
p8697
(dp8698
g3
g4
((lp8699
tp8700
Rp8701
sg8
I00
sg9
g8697
ssS'retransplants'
p8702
(dp8703
g3
g4
((lp8704
tp8705
Rp8706
sg8
I00
sg9
g8702
ssS'numerologists'
p8707
(dp8708
g3
g4
((lp8709
tp8710
Rp8711
sg8
I00
sg9
g8707
ssS'misinterprets'
p8712
(dp8713
g3
g4
((lp8714
tp8715
Rp8716
sg8
I00
sg9
g8712
ssS'troubleshoots'
p8717
(dp8718
g3
g4
((lp8719
tp8720
Rp8721
sg8
I00
sg9
g8717
ssS'embarrassment'
p8722
(dp8723
g3
g4
((lp8724
tp8725
Rp8726
sg8
I00
sg9
g8722
ssS'synchronizing'
p8727
(dp8728
g3
g4
((lp8729
tp8730
Rp8731
sg8
I00
sg9
g8727
ssS'ameliorations'
p8732
(dp8733
g3
g4
((lp8734
tp8735
Rp8736
sg8
I00
sg9
g8732
ssS'paperhangings'
p8737
(dp8738
g3
g4
((lp8739
tp8740
Rp8741
sg8
I00
sg9
g8737
ssS'configuration'
p8742
(dp8743
g3
g4
((lp8744
tp8745
Rp8746
sg8
I00
sg9
g8742
ssS'partisanships'
p8747
(dp8748
g3
g4
((lp8749
tp8750
Rp8751
sg8
I00
sg9
g8747
ssg5564
(dp8752
g3
g4
((lp8753
g5561
atp8754
Rp8755
sg8
I00
sg9
g5564
ssS'bashfulnesses'
p8756
(dp8757
g3
g4
((lp8758
tp8759
Rp8760
sg8
I00
sg9
g8756
ssS'presentations'
p8761
(dp8762
g3
g4
((lp8763
tp8764
Rp8765
sg8
I00
sg9
g8761
ssS'hospitalities'
p8766
(dp8767
g3
g4
((lp8768
tp8769
Rp8770
sg8
I00
sg9
g8766
ssS'earnestnesses'
p8771
(dp8772
g3
g4
((lp8773
tp8774
Rp8775
sg8
I00
sg9
g8771
ssS'venturesomely'
p8776
(dp8777
g3
g4
((lp8778
tp8779
Rp8780
sg8
I00
sg9
g8776
ssS'distillations'
p8781
(dp8782
g3
g4
((lp8783
tp8784
Rp8785
sg8
I00
sg9
g8781
ssS'southwesterly'
p8786
(dp8787
g3
g4
((lp8788
tp8789
Rp8790
sg8
I00
sg9
g8786
ssS'redesignating'
p8791
(dp8792
g3
g4
((lp8793
tp8794
Rp8795
sg8
I00
sg9
g8791
ssS'detrimentally'
p8796
(dp8797
g3
g4
((lp8798
tp8799
Rp8800
sg8
I00
sg9
g8796
ssS'quadrilateral'
p8801
(dp8802
g3
g4
((lp8803
tp8804
Rp8805
sg8
I00
sg9
g8801
ssS'overstressing'
p8806
(dp8807
g3
g4
((lp8808
tp8809
Rp8810
sg8
I00
sg9
g8806
ssS'conservatisms'
p8811
(dp8812
g3
g4
((lp8813
tp8814
Rp8815
sg8
I00
sg9
g8811
ssS'undergraduate'
p8816
(dp8817
g3
g4
((lp8818
tp8819
Rp8820
sg8
I00
sg9
g8816
ssS'sufficiencies'
p8821
(dp8822
g3
g4
((lp8823
tp8824
Rp8825
sg8
I00
sg9
g8821
ssS'accomplishing'
p8826
(dp8827
g3
g4
((lp8828
tp8829
Rp8830
sg8
I00
sg9
g8826
ssS'weatherproofs'
p8831
(dp8832
g3
g4
((lp8833
tp8834
Rp8835
sg8
I00
sg9
g8831
ssS'embezzlements'
p8836
(dp8837
g3
g4
((lp8838
tp8839
Rp8840
sg8
I00
sg9
g8836
ssS'demagogueries'
p8841
(dp8842
g3
g4
((lp8843
tp8844
Rp8845
sg8
I00
sg9
g8841
ssS'transgressing'
p8846
(dp8847
g3
g4
((lp8848
tp8849
Rp8850
sg8
I00
sg9
g8846
ssg914
(dp8851
g3
g4
((lp8852
g911
atp8853
Rp8854
sg8
I00
sg9
g914
ssS'corresponding'
p8855
(dp8856
g3
g4
((lp8857
tp8858
Rp8859
sg8
I00
sg9
g8855
ssS'preauthorized'
p8860
(dp8861
g3
g4
((lp8862
S'preauthorizes'
p8863
atp8864
Rp8865
sg8
I00
sg9
g8860
ssS'retrospective'
p8866
(dp8867
g3
g4
((lp8868
tp8869
Rp8870
sg8
I00
sg9
g8866
ssS'overinvesting'
p8871
(dp8872
g3
g4
((lp8873
tp8874
Rp8875
sg8
I00
sg9
g8871
ssS'replenishment'
p8876
(dp8877
g3
g4
((lp8878
tp8879
Rp8880
sg8
I00
sg9
g8876
ssS'womanlinesses'
p8881
(dp8882
g3
g4
((lp8883
tp8884
Rp8885
sg8
I00
sg9
g8881
ssS'orchestrating'
p8886
(dp8887
g3
g4
((lp8888
tp8889
Rp8890
sg8
I00
sg9
g8886
ssg8863
(dp8891
g3
g4
((lp8892
g8860
atp8893
Rp8894
sg8
I00
sg9
g8863
ssS'remonstrances'
p8895
(dp8896
g3
g4
((lp8897
tp8898
Rp8899
sg8
I00
sg9
g8895
ssS'meetinghouses'
p8900
(dp8901
g3
g4
((lp8902
tp8903
Rp8904
sg8
I00
sg9
g8900
ssS'inconspicuous'
p8905
(dp8906
g3
g4
((lp8907
tp8908
Rp8909
sg8
I00
sg9
g8905
ssS'northeasterly'
p8910
(dp8911
g3
g4
((lp8912
tp8913
Rp8914
sg8
I00
sg9
g8910
ssS'glassblowings'
p8915
(dp8916
g3
g4
((lp8917
tp8918
Rp8919
sg8
I00
sg9
g8915
ssS'troublesomely'
p8920
(dp8921
g3
g4
((lp8922
tp8923
Rp8924
sg8
I00
sg9
g8920
ssS'ungrammatical'
p8925
(dp8926
g3
g4
((lp8927
tp8928
Rp8929
sg8
I00
sg9
g8925
ssS'biconcavities'
p8930
(dp8931
g3
g4
((lp8932
tp8933
Rp8934
sg8
I00
sg9
g8930
ssS'reapportioned'
p8935
(dp8936
g3
g4
((lp8937
tp8938
Rp8939
sg8
I00
sg9
g8935
ssS'adminstration'
p8940
(dp8941
g3
g4
((lp8942
tp8943
Rp8944
sg8
I00
sg9
g8940
ssS'countertrends'
p8945
(dp8946
g3
g4
((lp8947
tp8948
Rp8949
sg8
I00
sg9
g8945
ssS'encouragement'
p8950
(dp8951
g3
g4
((lp8952
tp8953
Rp8954
sg8
I00
sg9
g8950
ssS'bachelorhoods'
p8955
(dp8956
g3
g4
((lp8957
tp8958
Rp8959
sg8
I00
sg9
g8955
ssS'overeducating'
p8960
(dp8961
g3
g4
((lp8962
tp8963
Rp8964
sg8
I00
sg9
g8960
ssS'cultivatation'
p8965
(dp8966
g3
g4
((lp8967
tp8968
Rp8969
sg8
I00
sg9
g8965
ssS'participating'
p8970
(dp8971
g3
g4
((lp8972
tp8973
Rp8974
sg8
I00
sg9
g8970
ssS'overcontroled'
p8975
(dp8976
g3
g4
((lp8977
tp8978
Rp8979
sg8
I00
sg9
g8975
ssg3915
(dp8980
g3
g4
((lp8981
g3912
atp8982
Rp8983
sg8
I00
sg9
g3915
ssS'carbohydrates'
p8984
(dp8985
g3
g4
((lp8986
tp8987
Rp8988
sg8
I00
sg9
g8984
ssS'cabinetmakers'
p8989
(dp8990
g3
g4
((lp8991
tp8992
Rp8993
sg8
I00
sg9
g8989
ssS'reconfiguring'
p8994
(dp8995
g3
g4
((lp8996
tp8997
Rp8998
sg8
I00
sg9
g8994
ssS'disseminating'
p8999
(dp9000
g3
g4
((lp9001
tp9002
Rp9003
sg8
I00
sg9
g8999
ssS'afterthoughts'
p9004
(dp9005
g3
g4
((lp9006
tp9007
Rp9008
sg8
I00
sg9
g9004
ssS'retransmiting'
p9009
(dp9010
g3
g4
((lp9011
tp9012
Rp9013
sg8
I00
sg9
g9009
ssS'enfranchising'
p9014
(dp9015
g3
g4
((lp9016
tp9017
Rp9018
sg8
I00
sg9
g9014
ssS'architectures'
p9019
(dp9020
g3
g4
((lp9021
tp9022
Rp9023
sg8
I00
sg9
g9019
ssS'correspondent'
p9024
(dp9025
g3
g4
((lp9026
tp9027
Rp9028
sg8
I00
sg9
g9024
ssS'intercalating'
p9029
(dp9030
g3
g4
((lp9031
tp9032
Rp9033
sg8
I00
sg9
g9029
ssS'discourtesies'
p9034
(dp9035
g3
g4
((lp9036
tp9037
Rp9038
sg8
I00
sg9
g9034
ssS'transmissions'
p9039
(dp9040
g3
g4
((lp9041
tp9042
Rp9043
sg8
I00
sg9
g9039
ssS'masculinities'
p9044
(dp9045
g3
g4
((lp9046
tp9047
Rp9048
sg8
I00
sg9
g9044
ssS'preservations'
p9049
(dp9050
g3
g4
((lp9051
tp9052
Rp9053
sg8
I00
sg9
g9049
ssS'nondemocratic'
p9054
(dp9055
g3
g4
((lp9056
tp9057
Rp9058
sg8
I00
sg9
g9054
ssS'magnetization'
p9059
(dp9060
g3
g4
((lp9061
tp9062
Rp9063
sg8
I00
sg9
g9059
ssS'intransigence'
p9064
(dp9065
g3
g4
((lp9066
tp9067
Rp9068
sg8
I00
sg9
g9064
ssg2138
(dp9069
g3
g4
((lp9070
g2135
atp9071
Rp9072
sg8
I00
sg9
g2138
ssS'filibustering'
p9073
(dp9074
g3
g4
((lp9075
tp9076
Rp9077
sg8
I00
sg9
g9073
ssS'recirculation'
p9078
(dp9079
g3
g4
((lp9080
tp9081
Rp9082
sg8
I00
sg9
g9078
ssS'miserableness'
p9083
(dp9084
g3
g4
((lp9085
tp9086
Rp9087
sg8
I00
sg9
g9083
ssS'incorporeally'
p9088
(dp9089
g3
g4
((lp9090
tp9091
Rp9092
sg8
I00
sg9
g9088
ssS'commemoration'
p9093
(dp9094
g3
g4
((lp9095
tp9096
Rp9097
sg8
I00
sg9
g9093
ssS'recapitulated'
p9098
(dp9099
g3
g4
((lp9100
S'recapitulates'
p9101
atp9102
Rp9103
sg8
I00
sg9
g9098
ssS'discreditable'
p9104
(dp9105
g3
g4
((lp9106
tp9107
Rp9108
sg8
I00
sg9
g9104
ssS'intercommunal'
p9109
(dp9110
g3
g4
((lp9111
tp9112
Rp9113
sg8
I00
sg9
g9109
ssS'proficiencies'
p9114
(dp9115
g3
g4
((lp9116
tp9117
Rp9118
sg8
I00
sg9
g9114
ssg9101
(dp9119
g3
g4
((lp9120
g9098
atp9121
Rp9122
sg8
I00
sg9
g9101
ssS'cartographies'
p9123
(dp9124
g3
g4
((lp9125
tp9126
Rp9127
sg8
I00
sg9
g9123
ssS'unprecedented'
p9128
(dp9129
g3
g4
((lp9130
tp9131
Rp9132
sg8
I00
sg9
g9128
ssS'counterclaims'
p9133
(dp9134
g3
g4
((lp9135
tp9136
Rp9137
sg8
I00
sg9
g9133
ssS'disappearance'
p9138
(dp9139
g3
g4
((lp9140
tp9141
Rp9142
sg8
I00
sg9
g9138
ssS'thoughtlessly'
p9143
(dp9144
g3
g4
((lp9145
tp9146
Rp9147
sg8
I00
sg9
g9143
ssS'sportscasters'
p9148
(dp9149
g3
g4
((lp9150
tp9151
Rp9152
sg8
I00
sg9
g9148
ssS'interrogation'
p9153
(dp9154
g3
g4
((lp9155
tp9156
Rp9157
sg8
I00
sg9
g9153
ssS'rebroadcasted'
p9158
(dp9159
g3
g4
((lp9160
tp9161
Rp9162
sg8
I00
sg9
g9158
ssS'antimicrobial'
p9163
(dp9164
g3
g4
((lp9165
tp9166
Rp9167
sg8
I00
sg9
g9163
ssg6979
(dp9168
g3
g4
((lp9169
g6976
atp9170
Rp9171
sg8
I00
sg9
g6979
ssS'kaleidoscopes'
p9172
(dp9173
g3
g4
((lp9174
tp9175
Rp9176
sg8
I00
sg9
g9172
ssS'inexperiences'
p9177
(dp9178
g3
g4
((lp9179
S'inexperienced'
p9180
atp9181
Rp9182
sg8
I00
sg9
g9177
ssS'prefabricated'
p9183
(dp9184
g3
g4
((lp9185
tp9186
Rp9187
sg8
I00
sg9
g9183
ssS'delicatessens'
p9188
(dp9189
g3
g4
((lp9190
tp9191
Rp9192
sg8
I00
sg9
g9188
ssS'commencements'
p9193
(dp9194
g3
g4
((lp9195
tp9196
Rp9197
sg8
I00
sg9
g9193
ssS'flagellations'
p9198
(dp9199
g3
g4
((lp9200
tp9201
Rp9202
sg8
I00
sg9
g9198
ssS'superathletes'
p9203
(dp9204
g3
g4
((lp9205
tp9206
Rp9207
sg8
I00
sg9
g9203
ssS'reevaluations'
p9208
(dp9209
g3
g4
((lp9210
tp9211
Rp9212
sg8
I00
sg9
g9208
ssS'nonfunctional'
p9213
(dp9214
g3
g4
((lp9215
tp9216
Rp9217
sg8
I00
sg9
g9213
ssS'rephotographs'
p9218
(dp9219
g3
g4
((lp9220
tp9221
Rp9222
sg8
I00
sg9
g9218
ssg9180
(dp9223
g3
g4
((lp9224
g9177
atp9225
Rp9226
sg8
I00
sg9
g9180
ssS'haplessnesses'
p9227
(dp9228
g3
g4
((lp9229
tp9230
Rp9231
sg8
I00
sg9
g9227
ssS'immunizations'
p9232
(dp9233
g3
g4
((lp9234
tp9235
Rp9236
sg8
I00
sg9
g9232
ssS'applicability'
p9237
(dp9238
g3
g4
((lp9239
tp9240
Rp9241
sg8
I00
sg9
g9237
ssS'subprincipals'
p9242
(dp9243
g3
g4
((lp9244
tp9245
Rp9246
sg8
I00
sg9
g9242
ssS'dispossession'
p9247
(dp9248
g3
g4
((lp9249
tp9250
Rp9251
sg8
I00
sg9
g9247
ssS'algebraically'
p9252
(dp9253
g3
g4
((lp9254
tp9255
Rp9256
sg8
I00
sg9
g9252
ssS'impermanently'
p9257
(dp9258
g3
g4
((lp9259
tp9260
Rp9261
sg8
I00
sg9
g9257
ssS'hospitalizing'
p9262
(dp9263
g3
g4
((lp9264
tp9265
Rp9266
sg8
I00
sg9
g9262
ssS'punctualities'
p9267
(dp9268
g3
g4
((lp9269
tp9270
Rp9271
sg8
I00
sg9
g9267
ssS'authoritarian'
p9272
(dp9273
g3
g4
((lp9274
tp9275
Rp9276
sg8
I00
sg9
g9272
ssS'propinquities'
p9277
(dp9278
g3
g4
((lp9279
tp9280
Rp9281
sg8
I00
sg9
g9277
ssS'psychoanalyst'
p9282
(dp9283
g3
g4
((lp9284
tp9285
Rp9286
sg8
I00
sg9
g9282
ssS'aesthetically'
p9287
(dp9288
g3
g4
((lp9289
tp9290
Rp9291
sg8
I00
sg9
g9287
ssS'jurisprudence'
p9292
(dp9293
g3
g4
((lp9294
tp9295
Rp9296
sg8
I00
sg9
g9292
ssS'antibourgeois'
p9297
(dp9298
g3
g4
((lp9299
tp9300
Rp9301
sg8
I00
sg9
g9297
ssS'overdecorates'
p9302
(dp9303
g3
g4
((lp9304
S'overdecorated'
p9305
atp9306
Rp9307
sg8
I00
sg9
g9302
ssS'processionals'
p9308
(dp9309
g3
g4
((lp9310
tp9311
Rp9312
sg8
I00
sg9
g9308
ssS'manipulations'
p9313
(dp9314
g3
g4
((lp9315
tp9316
Rp9317
sg8
I00
sg9
g9313
ssS'demonstrators'
p9318
(dp9319
g3
g4
((lp9320
tp9321
Rp9322
sg8
I00
sg9
g9318
ssS'predominances'
p9323
(dp9324
g3
g4
((lp9325
tp9326
Rp9327
sg8
I00
sg9
g9323
ssS'soundproofing'
p9328
(dp9329
g3
g4
((lp9330
tp9331
Rp9332
sg8
I00
sg9
g9328
ssS'incriminatory'
p9333
(dp9334
g3
g4
((lp9335
tp9336
Rp9337
sg8
I00
sg9
g9333
ssg4464
(dp9338
g3
g4
((lp9339
g4461
atp9340
Rp9341
sg8
I00
sg9
g4464
ssg9305
(dp9342
g3
g4
((lp9343
g9302
atp9344
Rp9345
sg8
I00
sg9
g9305
ssS'incandescence'
p9346
(dp9347
g3
g4
((lp9348
tp9349
Rp9350
sg8
I00
sg9
g9346
ssS'dissociations'
p9351
(dp9352
g3
g4
((lp9353
tp9354
Rp9355
sg8
I00
sg9
g9351
ssS'preassembling'
p9356
(dp9357
g3
g4
((lp9358
tp9359
Rp9360
sg8
I00
sg9
g9356
ssS'ornithologist'
p9361
(dp9362
g3
g4
((lp9363
tp9364
Rp9365
sg8
I00
sg9
g9361
ssS'homestretches'
p9366
(dp9367
g3
g4
((lp9368
tp9369
Rp9370
sg8
I00
sg9
g9366
ssS'factionalisms'
p9371
(dp9372
g3
g4
((lp9373
tp9374
Rp9375
sg8
I00
sg9
g9371
ssS'countermanded'
p9376
(dp9377
g3
g4
((lp9378
tp9379
Rp9380
sg8
I00
sg9
g9376
ssS'shortchanging'
p9381
(dp9382
g3
g4
((lp9383
tp9384
Rp9385
sg8
I00
sg9
g9381
ssS'nationalities'
p9386
(dp9387
g3
g4
((lp9388
tp9389
Rp9390
sg8
I00
sg9
g9386
ssS'approximating'
p9391
(dp9392
g3
g4
((lp9393
tp9394
Rp9395
sg8
I00
sg9
g9391
ssS'assiduousness'
p9396
(dp9397
g3
g4
((lp9398
tp9399
Rp9400
sg8
I00
sg9
g9396
ssS'reacquainting'
p9401
(dp9402
g3
g4
((lp9403
tp9404
Rp9405
sg8
I00
sg9
g9401
ssS'nonnegotiable'
p9406
(dp9407
g3
g4
((lp9408
tp9409
Rp9410
sg8
I00
sg9
g9406
ssS'inconsiderate'
p9411
(dp9412
g3
g4
((lp9413
tp9414
Rp9415
sg8
I00
sg9
g9411
ssS'entomologists'
p9416
(dp9417
g3
g4
((lp9418
tp9419
Rp9420
sg8
I00
sg9
g9416
ssS'infiltrations'
p9421
(dp9422
g3
g4
((lp9423
tp9424
Rp9425
sg8
I00
sg9
g9421
ssS'preemployment'
p9426
(dp9427
g3
g4
((lp9428
tp9429
Rp9430
sg8
I00
sg9
g9426
ssS'maladjustment'
p9431
(dp9432
g3
g4
((lp9433
tp9434
Rp9435
sg8
I00
sg9
g9431
ssS'mummification'
p9436
(dp9437
g3
g4
((lp9438
tp9439
Rp9440
sg8
I00
sg9
g9436
ssS'sledgehammers'
p9441
(dp9442
g3
g4
((lp9443
tp9444
Rp9445
sg8
I00
sg9
g9441
ssS'materializing'
p9446
(dp9447
g3
g4
((lp9448
tp9449
Rp9450
sg8
I00
sg9
g9446
ssS'nonadherences'
p9451
(dp9452
g3
g4
((lp9453
tp9454
Rp9455
sg8
I00
sg9
g9451
ssS'intermediates'
p9456
(dp9457
g3
g4
((lp9458
tp9459
Rp9460
sg8
I00
sg9
g9456
ssS'metalworkings'
p9461
(dp9462
g3
g4
((lp9463
tp9464
Rp9465
sg8
I00
sg9
g9461
ssS'miscegenation'
p9466
(dp9467
g3
g4
((lp9468
tp9469
Rp9470
sg8
I00
sg9
g9466
ssS'antianarchist'
p9471
(dp9472
g3
g4
((lp9473
tp9474
Rp9475
sg8
I00
sg9
g9471
ssS'housewarmings'
p9476
(dp9477
g3
g4
((lp9478
tp9479
Rp9480
sg8
I00
sg9
g9476
ssS'consecutively'
p9481
(dp9482
g3
g4
((lp9483
tp9484
Rp9485
sg8
I00
sg9
g9481
ssS'biliousnesses'
p9486
(dp9487
g3
g4
((lp9488
tp9489
Rp9490
sg8
I00
sg9
g9486
ssS'prepossessing'
p9491
(dp9492
g3
g4
((lp9493
tp9494
Rp9495
sg8
I00
sg9
g9491
ssS'prehistorical'
p9496
(dp9497
g3
g4
((lp9498
tp9499
Rp9500
sg8
I00
sg9
g9496
ssS'indoctrinates'
p9501
(dp9502
g3
g4
((lp9503
S'indoctrinated'
p9504
atp9505
Rp9506
sg8
I00
sg9
g9501
ssS'oversaturates'
p9507
(dp9508
g3
g4
((lp9509
S'oversaturated'
p9510
atp9511
Rp9512
sg8
I00
sg9
g9507
ssS'nonregistered'
p9513
(dp9514
g3
g4
((lp9515
tp9516
Rp9517
sg8
I00
sg9
g9513
ssS'scintillating'
p9518
(dp9519
g3
g4
((lp9520
tp9521
Rp9522
sg8
I00
sg9
g9518
ssS'recommendable'
p9523
(dp9524
g3
g4
((lp9525
tp9526
Rp9527
sg8
I00
sg9
g9523
ssS'noncontagious'
p9528
(dp9529
g3
g4
((lp9530
tp9531
Rp9532
sg8
I00
sg9
g9528
ssg9510
(dp9533
g3
g4
((lp9534
g9507
atp9535
Rp9536
sg8
I00
sg9
g9510
ssg9504
(dp9537
g3
g4
((lp9538
g9501
atp9539
Rp9540
sg8
I00
sg9
g9504
ssS'intercessions'
p9541
(dp9542
g3
g4
((lp9543
tp9544
Rp9545
sg8
I00
sg9
g9541
ssS'humorlessness'
p9546
(dp9547
g3
g4
((lp9548
tp9549
Rp9550
sg8
I00
sg9
g9546
ssS'dillydallying'
p9551
(dp9552
g3
g4
((lp9553
tp9554
Rp9555
sg8
I00
sg9
g9551
ssS'contradictory'
p9556
(dp9557
g3
g4
((lp9558
tp9559
Rp9560
sg8
I00
sg9
g9556
ssS'fluorocarbons'
p9561
(dp9562
g3
g4
((lp9563
tp9564
Rp9565
sg8
I00
sg9
g9561
ssS'fragmentation'
p9566
(dp9567
g3
g4
((lp9568
tp9569
Rp9570
sg8
I00
sg9
g9566
ssS'inevitability'
p9571
(dp9572
g3
g4
((lp9573
tp9574
Rp9575
sg8
I00
sg9
g9571
ssg6600
(dp9576
g3
g4
((lp9577
g6597
atp9578
Rp9579
sg8
I00
sg9
g6600
ssS'gravitational'
p9580
(dp9581
g3
g4
((lp9582
tp9583
Rp9584
sg8
I00
sg9
g9580
ssS'precalculuses'
p9585
(dp9586
g3
g4
((lp9587
tp9588
Rp9589
sg8
I00
sg9
g9585
ssS'counterattack'
p9590
(dp9591
g3
g4
((lp9592
tp9593
Rp9594
sg8
I00
sg9
g9590
ssS'incombustible'
p9595
(dp9596
g3
g4
((lp9597
tp9598
Rp9599
sg8
I00
sg9
g9595
ssS'postinjection'
p9600
(dp9601
g3
g4
((lp9602
tp9603
Rp9604
sg8
I00
sg9
g9600
ssS'hideousnesses'
p9605
(dp9606
g3
g4
((lp9607
tp9608
Rp9609
sg8
I00
sg9
g9605
ssS'gynecological'
p9610
(dp9611
g3
g4
((lp9612
tp9613
Rp9614
sg8
I00
sg9
g9610
ssS'informational'
p9615
(dp9616
g3
g4
((lp9617
tp9618
Rp9619
sg8
I00
sg9
g9615
ssS'woolgathering'
p9620
(dp9621
g3
g4
((lp9622
tp9623
Rp9624
sg8
I00
sg9
g9620
ssS'dissemination'
p9625
(dp9626
g3
g4
((lp9627
tp9628
Rp9629
sg8
I00
sg9
g9625
ssS'zestfulnesses'
p9630
(dp9631
g3
g4
((lp9632
tp9633
Rp9634
sg8
I00
sg9
g9630
ssS'prodigalities'
p9635
(dp9636
g3
g4
((lp9637
tp9638
Rp9639
sg8
I00
sg9
g9635
ssS'hematological'
p9640
(dp9641
g3
g4
((lp9642
tp9643
Rp9644
sg8
I00
sg9
g9640
ssS'cerebrospinal'
p9645
(dp9646
g3
g4
((lp9647
tp9648
Rp9649
sg8
I00
sg9
g9645
ssS'intercalation'
p9650
(dp9651
g3
g4
((lp9652
tp9653
Rp9654
sg8
I00
sg9
g9650
ssS'superlatively'
p9655
(dp9656
g3
g4
((lp9657
tp9658
Rp9659
sg8
I00
sg9
g9655
ssS'readjustments'
p9660
(dp9661
g3
g4
((lp9662
tp9663
Rp9664
sg8
I00
sg9
g9660
ssS'cosmopolitans'
p9665
(dp9666
g3
g4
((lp9667
tp9668
Rp9669
sg8
I00
sg9
g9665
ssS'unimpeachable'
p9670
(dp9671
g3
g4
((lp9672
tp9673
Rp9674
sg8
I00
sg9
g9670
ssS'overprotected'
p9675
(dp9676
g3
g4
((lp9677
tp9678
Rp9679
sg8
I00
sg9
g9675
ssS'disinheriting'
p9680
(dp9681
g3
g4
((lp9682
tp9683
Rp9684
sg8
I00
sg9
g9680
ssS'overdeveloped'
p9685
(dp9686
g3
g4
((lp9687
tp9688
Rp9689
sg8
I00
sg9
g9685
ssS'minivacations'
p9690
(dp9691
g3
g4
((lp9692
tp9693
Rp9694
sg8
I00
sg9
g9690
ssS'tonsillectomy'
p9695
(dp9696
g3
g4
((lp9697
tp9698
Rp9699
sg8
I00
sg9
g9695
ssS'repetitiously'
p9700
(dp9701
g3
g4
((lp9702
tp9703
Rp9704
sg8
I00
sg9
g9700
ssS'disproportion'
p9705
(dp9706
g3
g4
((lp9707
tp9708
Rp9709
sg8
I00
sg9
g9705
ssS'coeducational'
p9710
(dp9711
g3
g4
((lp9712
tp9713
Rp9714
sg8
I00
sg9
g9710
ssS'intemperances'
p9715
(dp9716
g3
g4
((lp9717
tp9718
Rp9719
sg8
I00
sg9
g9715
ssS'overqualified'
p9720
(dp9721
g3
g4
((lp9722
tp9723
Rp9724
sg8
I00
sg9
g9720
ssS'dictatorships'
p9725
(dp9726
g3
g4
((lp9727
tp9728
Rp9729
sg8
I00
sg9
g9725
ssS'mellifluously'
p9730
(dp9731
g3
g4
((lp9732
tp9733
Rp9734
sg8
I00
sg9
g9730
ssS'insupportable'
p9735
(dp9736
g3
g4
((lp9737
tp9738
Rp9739
sg8
I00
sg9
g9735
ssS'indiscretions'
p9740
(dp9741
g3
g4
((lp9742
tp9743
Rp9744
sg8
I00
sg9
g9740
ssS'witlessnesses'
p9745
(dp9746
g3
g4
((lp9747
tp9748
Rp9749
sg8
I00
sg9
g9745
ssS'crystallizing'
p9750
(dp9751
g3
g4
((lp9752
tp9753
Rp9754
sg8
I00
sg9
g9750
ssS'profanenesses'
p9755
(dp9756
g3
g4
((lp9757
tp9758
Rp9759
sg8
I00
sg9
g9755
ssS'extinguishing'
p9760
(dp9761
g3
g4
((lp9762
tp9763
Rp9764
sg8
I00
sg9
g9760
ssS'pharmacologic'
p9765
(dp9766
g3
g4
((lp9767
tp9768
Rp9769
sg8
I00
sg9
g9765
ssS'contraceptive'
p9770
(dp9771
g3
g4
((lp9772
tp9773
Rp9774
sg8
I00
sg9
g9770
ssS'aristocracies'
p9775
(dp9776
g3
g4
((lp9777
tp9778
Rp9779
sg8
I00
sg9
g9775
ssS'intentionally'
p9780
(dp9781
g3
g4
((lp9782
tp9783
Rp9784
sg8
I00
sg9
g9780
ssS'experimenters'
p9785
(dp9786
g3
g4
((lp9787
tp9788
Rp9789
sg8
I00
sg9
g9785
ssS'foreshadowing'
p9790
(dp9791
g3
g4
((lp9792
tp9793
Rp9794
sg8
I00
sg9
g9790
ssS'thunderstorms'
p9795
(dp9796
g3
g4
((lp9797
tp9798
Rp9799
sg8
I00
sg9
g9795
ssS'astronautical'
p9800
(dp9801
g3
g4
((lp9802
tp9803
Rp9804
sg8
I00
sg9
g9800
ss.