(dp0
S'predetermining'
p1
(dp2
S'neighbors'
p3
c__builtin__
set
p4
((lp5
tp6
Rp7
sS'visited'
p8
I00
sS'word'
p9
g1
ssS'practicability'
p10
(dp11
g3
g4
((lp12
tp13
Rp14
sg8
I00
sg9
g10
ssS'overdecorating'
p15
(dp16
g3
g4
((lp17
tp18
Rp19
sg8
I00
sg9
g15
ssS'deliberateness'
p20
(dp21
g3
g4
((lp22
tp23
Rp24
sg8
I00
sg9
g20
ssS'introspections'
p25
(dp26
g3
g4
((lp27
tp28
Rp29
sg8
I00
sg9
g25
ssS'circumlocution'
p30
(dp31
g3
g4
((lp32
tp33
Rp34
sg8
I00
sg9
g30
ssS'reaccumulating'
p35
(dp36
g3
g4
((lp37
tp38
Rp39
sg8
I00
sg9
g35
ssS'archaeologists'
p40
(dp41
g3
g4
((lp42
tp43
Rp44
sg8
I00
sg9
g40
ssS'overexploiting'
p45
(dp46
g3
g4
((lp47
tp48
Rp49
sg8
I00
sg9
g45
ssS'hypothyroidism'
p50
(dp51
g3
g4
((lp52
tp53
Rp54
sg8
I00
sg9
g50
ssS'hyperexcitable'
p55
(dp56
g3
g4
((lp57
tp58
Rp59
sg8
I00
sg9
g55
ssS'recklessnesses'
p60
(dp61
g3
g4
((lp62
tp63
Rp64
sg8
I00
sg9
g60
ssS'horriblenesses'
p65
(dp66
g3
g4
((lp67
tp68
Rp69
sg8
I00
sg9
g65
ssS'superefficient'
p70
(dp71
g3
g4
((lp72
tp73
Rp74
sg8
I00
sg9
g70
ssS'microbiologist'
p75
(dp76
g3
g4
((lp77
tp78
Rp79
sg8
I00
sg9
g75
ssS'reaccelerating'
p80
(dp81
g3
g4
((lp82
tp83
Rp84
sg8
I00
sg9
g80
ssS'disintegration'
p85
(dp86
g3
g4
((lp87
tp88
Rp89
sg8
I00
sg9
g85
ssS'overspecialize'
p90
(dp91
g3
g4
((lp92
tp93
Rp94
sg8
I00
sg9
g90
ssS'sentimentalism'
p95
(dp96
g3
g4
((lp97
S'sentimentalist'
p98
atp99
Rp100
sg8
I00
sg9
g95
ssS'responsiveness'
p101
(dp102
g3
g4
((lp103
tp104
Rp105
sg8
I00
sg9
g101
ssS'hardheadedness'
p106
(dp107
g3
g4
((lp108
tp109
Rp110
sg8
I00
sg9
g106
ssS'herpetologists'
p111
(dp112
g3
g4
((lp113
tp114
Rp115
sg8
I00
sg9
g111
ssS'nullifications'
p116
(dp117
g3
g4
((lp118
tp119
Rp120
sg8
I00
sg9
g116
ssS'graciousnesses'
p121
(dp122
g3
g4
((lp123
tp124
Rp125
sg8
I00
sg9
g121
ssS'overregulation'
p126
(dp127
g3
g4
((lp128
tp129
Rp130
sg8
I00
sg9
g126
ssS'rehabilitating'
p131
(dp132
g3
g4
((lp133
tp134
Rp135
sg8
I00
sg9
g131
ssS'determinations'
p136
(dp137
g3
g4
((lp138
tp139
Rp140
sg8
I00
sg9
g136
ssS'ridiculousness'
p141
(dp142
g3
g4
((lp143
tp144
Rp145
sg8
I00
sg9
g141
ssS'postgraduation'
p146
(dp147
g3
g4
((lp148
tp149
Rp150
sg8
I00
sg9
g146
ssS'censoriousness'
p151
(dp152
g3
g4
((lp153
tp154
Rp155
sg8
I00
sg9
g151
ssS'inalienability'
p156
(dp157
g3
g4
((lp158
tp159
Rp160
sg8
I00
sg9
g156
ssS'ostentatiously'
p161
(dp162
g3
g4
((lp163
tp164
Rp165
sg8
I00
sg9
g161
ssS'foreknowledges'
p166
(dp167
g3
g4
((lp168
tp169
Rp170
sg8
I00
sg9
g166
ssS'perversenesses'
p171
(dp172
g3
g4
((lp173
tp174
Rp175
sg8
I00
sg9
g171
ssS'productiveness'
p176
(dp177
g3
g4
((lp178
tp179
Rp180
sg8
I00
sg9
g176
ssS'overinfluenced'
p181
(dp182
g3
g4
((lp183
S'overinfluences'
p184
atp185
Rp186
sg8
I00
sg9
g181
ssS'hyperacidities'
p187
(dp188
g3
g4
((lp189
tp190
Rp191
sg8
I00
sg9
g187
ssS'congratulating'
p192
(dp193
g3
g4
((lp194
tp195
Rp196
sg8
I00
sg9
g192
ssS'circumnavigate'
p197
(dp198
g3
g4
((lp199
tp200
Rp201
sg8
I00
sg9
g197
ssS'populousnesses'
p202
(dp203
g3
g4
((lp204
tp205
Rp206
sg8
I00
sg9
g202
ssS'reimbursements'
p207
(dp208
g3
g4
((lp209
tp210
Rp211
sg8
I00
sg9
g207
ssS'discouragement'
p212
(dp213
g3
g4
((lp214
tp215
Rp216
sg8
I00
sg9
g212
ssS'overresponding'
p217
(dp218
g3
g4
((lp219
tp220
Rp221
sg8
I00
sg9
g217
ssS'differentiated'
p222
(dp223
g3
g4
((lp224
S'differentiates'
p225
atp226
Rp227
sg8
I00
sg9
g222
ssS'postindustrial'
p228
(dp229
g3
g4
((lp230
tp231
Rp232
sg8
I00
sg9
g228
ssS'bacteriologies'
p233
(dp234
g3
g4
((lp235
tp236
Rp237
sg8
I00
sg9
g233
ssS'controvertible'
p238
(dp239
g3
g4
((lp240
tp241
Rp242
sg8
I00
sg9
g238
ssS'retransplanted'
p243
(dp244
g3
g4
((lp245
tp246
Rp247
sg8
I00
sg9
g243
ssS'interreligious'
p248
(dp249
g3
g4
((lp250
tp251
Rp252
sg8
I00
sg9
g248
ssS'misinformation'
p253
(dp254
g3
g4
((lp255
tp256
Rp257
sg8
I00
sg9
g253
ssS'retrogressions'
p258
(dp259
g3
g4
((lp260
tp261
Rp262
sg8
I00
sg9
g258
ssS'insufficiently'
p263
(dp264
g3
g4
((lp265
tp266
Rp267
sg8
I00
sg9
g263
ssS'fragmentations'
p268
(dp269
g3
g4
((lp270
tp271
Rp272
sg8
I00
sg9
g268
ssg225
(dp273
g3
g4
((lp274
g222
atp275
Rp276
sg8
I00
sg9
g225
ssS'amplifications'
p277
(dp278
g3
g4
((lp279
tp280
Rp281
sg8
I00
sg9
g277
ssS'abstrusenesses'
p282
(dp283
g3
g4
((lp284
tp285
Rp286
sg8
I00
sg9
g282
ssS'hopelessnesses'
p287
(dp288
g3
g4
((lp289
tp290
Rp291
sg8
I00
sg9
g287
ssS'authenticating'
p292
(dp293
g3
g4
((lp294
tp295
Rp296
sg8
I00
sg9
g292
ssS'conglomeration'
p297
(dp298
g3
g4
((lp299
tp300
Rp301
sg8
I00
sg9
g297
ssS'jurisdictional'
p302
(dp303
g3
g4
((lp304
tp305
Rp306
sg8
I00
sg9
g302
ssS'configurations'
p307
(dp308
g3
g4
((lp309
tp310
Rp311
sg8
I00
sg9
g307
ssS'overcapacities'
p312
(dp313
g3
g4
((lp314
tp315
Rp316
sg8
I00
sg9
g312
ssS'indirectnesses'
p317
(dp318
g3
g4
((lp319
tp320
Rp321
sg8
I00
sg9
g317
ssS'humorousnesses'
p322
(dp323
g3
g4
((lp324
tp325
Rp326
sg8
I00
sg9
g322
ssS'superabundance'
p327
(dp328
g3
g4
((lp329
tp330
Rp331
sg8
I00
sg9
g327
ssS'overregulating'
p332
(dp333
g3
g4
((lp334
tp335
Rp336
sg8
I00
sg9
g332
ssS'demonstrations'
p337
(dp338
g3
g4
((lp339
S'remonstrations'
p340
atp341
Rp342
sg8
I00
sg9
g337
ssS'overcontroling'
p343
(dp344
g3
g4
((lp345
tp346
Rp347
sg8
I00
sg9
g343
ssS'reciprocations'
p348
(dp349
g3
g4
((lp350
tp351
Rp352
sg8
I00
sg9
g348
ssS'sharpshootings'
p353
(dp354
g3
g4
((lp355
tp356
Rp357
sg8
I00
sg9
g353
ssS'rebelliousness'
p358
(dp359
g3
g4
((lp360
tp361
Rp362
sg8
I00
sg9
g358
ssS'superstructure'
p363
(dp364
g3
g4
((lp365
tp366
Rp367
sg8
I00
sg9
g363
ssS'supernaturally'
p368
(dp369
g3
g4
((lp370
tp371
Rp372
sg8
I00
sg9
g368
ssS'metaphysicians'
p373
(dp374
g3
g4
((lp375
tp376
Rp377
sg8
I00
sg9
g373
ssS'reconciliation'
p378
(dp379
g3
g4
((lp380
tp381
Rp382
sg8
I00
sg9
g378
ssS'anticensorship'
p383
(dp384
g3
g4
((lp385
tp386
Rp387
sg8
I00
sg9
g383
ssS'fertilizations'
p388
(dp389
g3
g4
((lp390
tp391
Rp392
sg8
I00
sg9
g388
ssS'indebtednesses'
p393
(dp394
g3
g4
((lp395
tp396
Rp397
sg8
I00
sg9
g393
ssS'ecclesiastical'
p398
(dp399
g3
g4
((lp400
tp401
Rp402
sg8
I00
sg9
g398
ssS'discontinuance'
p403
(dp404
g3
g4
((lp405
tp406
Rp407
sg8
I00
sg9
g403
ssS'counterthrusts'
p408
(dp409
g3
g4
((lp410
tp411
Rp412
sg8
I00
sg9
g408
ssS'masslessnesses'
p413
(dp414
g3
g4
((lp415
tp416
Rp417
sg8
I00
sg9
g413
ssS'inconveniences'
p418
(dp419
g3
g4
((lp420
S'inconvenienced'
p421
atp422
Rp423
sg8
I00
sg9
g418
ssS'conjunctivitis'
p424
(dp425
g3
g4
((lp426
tp427
Rp428
sg8
I00
sg9
g424
ssS'heterogenously'
p429
(dp430
g3
g4
((lp431
tp432
Rp433
sg8
I00
sg9
g429
ssS'industrialized'
p434
(dp435
g3
g4
((lp436
S'industrializes'
p437
atp438
Rp439
sg8
I00
sg9
g434
ssg421
(dp440
g3
g4
((lp441
g418
atp442
Rp443
sg8
I00
sg9
g421
ssg98
(dp444
g3
g4
((lp445
g95
atp446
Rp447
sg8
I00
sg9
g98
ssS'navigabilities'
p448
(dp449
g3
g4
((lp450
tp451
Rp452
sg8
I00
sg9
g448
ssS'consolidations'
p453
(dp454
g3
g4
((lp455
tp456
Rp457
sg8
I00
sg9
g453
ssS'mortifications'
p458
(dp459
g3
g4
((lp460
S'fortifications'
p461
atp462
Rp463
sg8
I00
sg9
g458
ssS'hyperenergetic'
p464
(dp465
g3
g4
((lp466
tp467
Rp468
sg8
I00
sg9
g464
ssS'advantageously'
p469
(dp470
g3
g4
((lp471
tp472
Rp473
sg8
I00
sg9
g469
ssS'anticapitalist'
p474
(dp475
g3
g4
((lp476
S'anticapitalism'
p477
atp478
Rp479
sg8
I00
sg9
g474
ssS'simultaneously'
p480
(dp481
g3
g4
((lp482
tp483
Rp484
sg8
I00
sg9
g480
ssS'multichambered'
p485
(dp486
g3
g4
((lp487
tp488
Rp489
sg8
I00
sg9
g485
ssS'immutabilities'
p490
(dp491
g3
g4
((lp492
tp493
Rp494
sg8
I00
sg9
g490
ssS'interplanetary'
p495
(dp496
g3
g4
((lp497
tp498
Rp499
sg8
I00
sg9
g495
ssS'unprofessional'
p500
(dp501
g3
g4
((lp502
tp503
Rp504
sg8
I00
sg9
g500
ssS'interdependent'
p505
(dp506
g3
g4
((lp507
tp508
Rp509
sg8
I00
sg9
g505
ssS'antirepublican'
p510
(dp511
g3
g4
((lp512
tp513
Rp514
sg8
I00
sg9
g510
ssS'nonenforceable'
p515
(dp516
g3
g4
((lp517
tp518
Rp519
sg8
I00
sg9
g515
ssS'transistorized'
p520
(dp521
g3
g4
((lp522
S'transistorizes'
p523
atp524
Rp525
sg8
I00
sg9
g520
ssS'inconsiderable'
p526
(dp527
g3
g4
((lp528
tp529
Rp530
sg8
I00
sg9
g526
ssS'licentiousness'
p531
(dp532
g3
g4
((lp533
tp534
Rp535
sg8
I00
sg9
g531
ssS'affectionately'
p536
(dp537
g3
g4
((lp538
tp539
Rp540
sg8
I00
sg9
g536
ssS'vindictiveness'
p541
(dp542
g3
g4
((lp543
tp544
Rp545
sg8
I00
sg9
g541
ssS'overexaggerate'
p546
(dp547
g3
g4
((lp548
tp549
Rp550
sg8
I00
sg9
g546
ssg477
(dp551
g3
g4
((lp552
g474
atp553
Rp554
sg8
I00
sg9
g477
ssS'retrospectives'
p555
(dp556
g3
g4
((lp557
tp558
Rp559
sg8
I00
sg9
g555
ssS'extracommunity'
p560
(dp561
g3
g4
((lp562
tp563
Rp564
sg8
I00
sg9
g560
ssS'decapitatation'
p565
(dp566
g3
g4
((lp567
tp568
Rp569
sg8
I00
sg9
g565
ssS'centralization'
p570
(dp571
g3
g4
((lp572
tp573
Rp574
sg8
I00
sg9
g570
ssS'overdeveloping'
p575
(dp576
g3
g4
((lp577
tp578
Rp579
sg8
I00
sg9
g575
ssS'vigorousnesses'
p580
(dp581
g3
g4
((lp582
tp583
Rp584
sg8
I00
sg9
g580
ssS'antihistamines'
p585
(dp586
g3
g4
((lp587
tp588
Rp589
sg8
I00
sg9
g585
ssS'supersecrecies'
p590
(dp591
g3
g4
((lp592
tp593
Rp594
sg8
I00
sg9
g590
ssS'thundershowers'
p595
(dp596
g3
g4
((lp597
tp598
Rp599
sg8
I00
sg9
g595
ssS'ornithological'
p600
(dp601
g3
g4
((lp602
tp603
Rp604
sg8
I00
sg9
g600
ssS'solidification'
p605
(dp606
g3
g4
((lp607
tp608
Rp609
sg8
I00
sg9
g605
ssS'circumferences'
p610
(dp611
g3
g4
((lp612
tp613
Rp614
sg8
I00
sg9
g610
ssS'overconfidence'
p615
(dp616
g3
g4
((lp617
tp618
Rp619
sg8
I00
sg9
g615
ssS'symptomatology'
p620
(dp621
g3
g4
((lp622
tp623
Rp624
sg8
I00
sg9
g620
ssS'overrepresents'
p625
(dp626
g3
g4
((lp627
tp628
Rp629
sg8
I00
sg9
g625
ssS'perambulations'
p630
(dp631
g3
g4
((lp632
tp633
Rp634
sg8
I00
sg9
g630
ssS'characterizing'
p635
(dp636
g3
g4
((lp637
tp638
Rp639
sg8
I00
sg9
g635
ssS'nitroglycerins'
p640
(dp641
g3
g4
((lp642
S'nitroglycerine'
p643
atp644
Rp645
sg8
I00
sg9
g640
ssS'matriculations'
p646
(dp647
g3
g4
((lp648
tp649
Rp650
sg8
I00
sg9
g646
ssS'proprietresses'
p651
(dp652
g3
g4
((lp653
tp654
Rp655
sg8
I00
sg9
g651
ssS'rehabilitative'
p656
(dp657
g3
g4
((lp658
tp659
Rp660
sg8
I00
sg9
g656
ssS'inappositeness'
p661
(dp662
g3
g4
((lp663
tp664
Rp665
sg8
I00
sg9
g661
ssS'cryptographies'
p666
(dp667
g3
g4
((lp668
tp669
Rp670
sg8
I00
sg9
g666
ssS'magnifications'
p671
(dp672
g3
g4
((lp673
tp674
Rp675
sg8
I00
sg9
g671
ssS'uncompromising'
p676
(dp677
g3
g4
((lp678
tp679
Rp680
sg8
I00
sg9
g676
ssS'microminiature'
p681
(dp682
g3
g4
((lp683
tp684
Rp685
sg8
I00
sg9
g681
ssS'noneducational'
p686
(dp687
g3
g4
((lp688
tp689
Rp690
sg8
I00
sg9
g686
ssS'galvanizations'
p691
(dp692
g3
g4
((lp693
tp694
Rp695
sg8
I00
sg9
g691
ssS'classification'
p696
(dp697
g3
g4
((lp698
tp699
Rp700
sg8
I00
sg9
g696
ssS'sanctification'
p701
(dp702
g3
g4
((lp703
tp704
Rp705
sg8
I00
sg9
g701
ssS'semiconductors'
p706
(dp707
g3
g4
((lp708
tp709
Rp710
sg8
I00
sg9
g706
ssS'ungainlinesses'
p711
(dp712
g3
g4
((lp713
tp714
Rp715
sg8
I00
sg9
g711
ssS'overestimating'
p716
(dp717
g3
g4
((lp718
tp719
Rp720
sg8
I00
sg9
g716
ssS'contradictions'
p721
(dp722
g3
g4
((lp723
tp724
Rp725
sg8
I00
sg9
g721
ssS'unconscionable'
p726
(dp727
g3
g4
((lp728
S'unconscionably'
p729
atp730
Rp731
sg8
I00
sg9
g726
ssS'counterfeiters'
p732
(dp733
g3
g4
((lp734
tp735
Rp736
sg8
I00
sg9
g732
ssS'inartistically'
p737
(dp738
g3
g4
((lp739
tp740
Rp741
sg8
I00
sg9
g737
ssS'unpleasantness'
p742
(dp743
g3
g4
((lp744
tp745
Rp746
sg8
I00
sg9
g742
ssS'spiritualities'
p747
(dp748
g3
g4
((lp749
tp750
Rp751
sg8
I00
sg9
g747
ssS'respectfulness'
p752
(dp753
g3
g4
((lp754
tp755
Rp756
sg8
I00
sg9
g752
ssS'inconveniently'
p757
(dp758
g3
g4
((lp759
tp760
Rp761
sg8
I00
sg9
g757
ssS'professorships'
p762
(dp763
g3
g4
((lp764
tp765
Rp766
sg8
I00
sg9
g762
ssS'disappearances'
p767
(dp768
g3
g4
((lp769
tp770
Rp771
sg8
I00
sg9
g767
ssS'illuminatingly'
p772
(dp773
g3
g4
((lp774
tp775
Rp776
sg8
I00
sg9
g772
ssS'overharvesting'
p777
(dp778
g3
g4
((lp779
tp780
Rp781
sg8
I00
sg9
g777
ssS'excommunicates'
p782
(dp783
g3
g4
((lp784
S'excommunicated'
p785
atp786
Rp787
sg8
I00
sg9
g782
ssS'antigonorrheal'
p788
(dp789
g3
g4
((lp790
tp791
Rp792
sg8
I00
sg9
g788
ssS'swashbucklings'
p793
(dp794
g3
g4
((lp795
tp796
Rp797
sg8
I00
sg9
g793
ssS'hypothetically'
p798
(dp799
g3
g4
((lp800
tp801
Rp802
sg8
I00
sg9
g798
ssS'inconsistently'
p803
(dp804
g3
g4
((lp805
tp806
Rp807
sg8
I00
sg9
g803
ssS'artificialness'
p808
(dp809
g3
g4
((lp810
tp811
Rp812
sg8
I00
sg9
g808
ssS'impressionable'
p813
(dp814
g3
g4
((lp815
tp816
Rp817
sg8
I00
sg9
g813
ssS'correspondents'
p818
(dp819
g3
g4
((lp820
tp821
Rp822
sg8
I00
sg9
g818
ssg785
(dp823
g3
g4
((lp824
g782
atp825
Rp826
sg8
I00
sg9
g785
ssS'incarcerations'
p827
(dp828
g3
g4
((lp829
tp830
Rp831
sg8
I00
sg9
g827
ssS'fearlessnesses'
p832
(dp833
g3
g4
((lp834
tp835
Rp836
sg8
I00
sg9
g832
ssS'tranquillizers'
p837
(dp838
g3
g4
((lp839
tp840
Rp841
sg8
I00
sg9
g837
ssS'impoverishment'
p842
(dp843
g3
g4
((lp844
tp845
Rp846
sg8
I00
sg9
g842
ssS'overextensions'
p847
(dp848
g3
g4
((lp849
tp850
Rp851
sg8
I00
sg9
g847
ssS'possessiveness'
p852
(dp853
g3
g4
((lp854
tp855
Rp856
sg8
I00
sg9
g852
ssS'overprescribes'
p857
(dp858
g3
g4
((lp859
S'overprescribed'
p860
atp861
Rp862
sg8
I00
sg9
g857
ssS'oversaturating'
p863
(dp864
g3
g4
((lp865
tp866
Rp867
sg8
I00
sg9
g863
ssS'precipitations'
p868
(dp869
g3
g4
((lp870
tp871
Rp872
sg8
I00
sg9
g868
ssS'antidemocratic'
p873
(dp874
g3
g4
((lp875
tp876
Rp877
sg8
I00
sg9
g873
ssS'extravasations'
p878
(dp879
g3
g4
((lp880
tp881
Rp882
sg8
I00
sg9
g878
ssS'supereffective'
p883
(dp884
g3
g4
((lp885
tp886
Rp887
sg8
I00
sg9
g883
ssS'prepublication'
p888
(dp889
g3
g4
((lp890
tp891
Rp892
sg8
I00
sg9
g888
ssS'congenialities'
p893
(dp894
g3
g4
((lp895
tp896
Rp897
sg8
I00
sg9
g893
ssS'thrombocytosis'
p898
(dp899
g3
g4
((lp900
tp901
Rp902
sg8
I00
sg9
g898
ssS'demobilization'
p903
(dp904
g3
g4
((lp905
tp906
Rp907
sg8
I00
sg9
g903
ssg860
(dp908
g3
g4
((lp909
g857
atp910
Rp911
sg8
I00
sg9
g860
ssS'unscrupulously'
p912
(dp913
g3
g4
((lp914
tp915
Rp916
sg8
I00
sg9
g912
ssg643
(dp917
g3
g4
((lp918
g640
atp919
Rp920
sg8
I00
sg9
g643
ssS'overpublicizes'
p921
(dp922
g3
g4
((lp923
S'overpublicized'
p924
atp925
Rp926
sg8
I00
sg9
g921
ssS'clownishnesses'
p927
(dp928
g3
g4
((lp929
tp930
Rp931
sg8
I00
sg9
g927
ssS'invisibilities'
p932
(dp933
g3
g4
((lp934
tp935
Rp936
sg8
I00
sg9
g932
ssS'convalescences'
p937
(dp938
g3
g4
((lp939
tp940
Rp941
sg8
I00
sg9
g937
ssS'accomplishment'
p942
(dp943
g3
g4
((lp944
tp945
Rp946
sg8
I00
sg9
g942
ssS'autobiographer'
p947
(dp948
g3
g4
((lp949
tp950
Rp951
sg8
I00
sg9
g947
ssS'overcomplicate'
p952
(dp953
g3
g4
((lp954
tp955
Rp956
sg8
I00
sg9
g952
ssS'craftsmenships'
p957
(dp958
g3
g4
((lp959
S'craftsmanships'
p960
atp961
Rp962
sg8
I00
sg9
g957
ssS'dispossessions'
p963
(dp964
g3
g4
((lp965
tp966
Rp967
sg8
I00
sg9
g963
ssS'hyperrealistic'
p968
(dp969
g3
g4
((lp970
tp971
Rp972
sg8
I00
sg9
g968
ssS'authenticities'
p973
(dp974
g3
g4
((lp975
tp976
Rp977
sg8
I00
sg9
g973
ssS'contaminations'
p978
(dp979
g3
g4
((lp980
tp981
Rp982
sg8
I00
sg9
g978
ssS'practicalities'
p983
(dp984
g3
g4
((lp985
tp986
Rp987
sg8
I00
sg9
g983
ssS'counterprotest'
p988
(dp989
g3
g4
((lp990
tp991
Rp992
sg8
I00
sg9
g988
ssS'lugubriousness'
p993
(dp994
g3
g4
((lp995
tp996
Rp997
sg8
I00
sg9
g993
ssS'extrapyramidal'
p998
(dp999
g3
g4
((lp1000
tp1001
Rp1002
sg8
I00
sg9
g998
ssS'frangibilities'
p1003
(dp1004
g3
g4
((lp1005
tp1006
Rp1007
sg8
I00
sg9
g1003
ssS'rehabilitation'
p1008
(dp1009
g3
g4
((lp1010
tp1011
Rp1012
sg8
I00
sg9
g1008
ssS'antiuniversity'
p1013
(dp1014
g3
g4
((lp1015
tp1016
Rp1017
sg8
I00
sg9
g1013
ssS'suggestiveness'
p1018
(dp1019
g3
g4
((lp1020
tp1021
Rp1022
sg8
I00
sg9
g1018
ssS'whippersnapper'
p1023
(dp1024
g3
g4
((lp1025
tp1026
Rp1027
sg8
I00
sg9
g1023
ssS'psychoanalytic'
p1028
(dp1029
g3
g4
((lp1030
tp1031
Rp1032
sg8
I00
sg9
g1028
ssS'miniconvention'
p1033
(dp1034
g3
g4
((lp1035
tp1036
Rp1037
sg8
I00
sg9
g1033
ssS'whimsicalities'
p1038
(dp1039
g3
g4
((lp1040
tp1041
Rp1042
sg8
I00
sg9
g1038
ssS'unpopularities'
p1043
(dp1044
g3
g4
((lp1045
tp1046
Rp1047
sg8
I00
sg9
g1043
ssS'lopsidednesses'
p1048
(dp1049
g3
g4
((lp1050
tp1051
Rp1052
sg8
I00
sg9
g1048
ssS'verbalizations'
p1053
(dp1054
g3
g4
((lp1055
tp1056
Rp1057
sg8
I00
sg9
g1053
ssS'ventriloquists'
p1058
(dp1059
g3
g4
((lp1060
S'ventriloquisms'
p1061
atp1062
Rp1063
sg8
I00
sg9
g1058
ssS'justifications'
p1064
(dp1065
g3
g4
((lp1066
tp1067
Rp1068
sg8
I00
sg9
g1064
ssS'overdramatized'
p1069
(dp1070
g3
g4
((lp1071
S'overdramatizes'
p1072
atp1073
Rp1074
sg8
I00
sg9
g1069
ssS'rectifications'
p1075
(dp1076
g3
g4
((lp1077
tp1078
Rp1079
sg8
I00
sg9
g1075
ssS'oversolicitous'
p1080
(dp1081
g3
g4
((lp1082
tp1083
Rp1084
sg8
I00
sg9
g1080
ssS'subconsciously'
p1085
(dp1086
g3
g4
((lp1087
tp1088
Rp1089
sg8
I00
sg9
g1085
ssS'recapitulating'
p1090
(dp1091
g3
g4
((lp1092
tp1093
Rp1094
sg8
I00
sg9
g1090
ssS'mummifications'
p1095
(dp1096
g3
g4
((lp1097
tp1098
Rp1099
sg8
I00
sg9
g1095
ssS'schizophrenics'
p1100
(dp1101
g3
g4
((lp1102
S'schizophrenias'
p1103
atp1104
Rp1105
sg8
I00
sg9
g1100
ssS'resuscitations'
p1106
(dp1107
g3
g4
((lp1108
tp1109
Rp1110
sg8
I00
sg9
g1106
ssS'unquestionable'
p1111
(dp1112
g3
g4
((lp1113
S'unquestionably'
p1114
atp1115
Rp1116
sg8
I00
sg9
g1111
ssS'embellishments'
p1117
(dp1118
g3
g4
((lp1119
tp1120
Rp1121
sg8
I00
sg9
g1117
ssS'reconcilements'
p1122
(dp1123
g3
g4
((lp1124
tp1125
Rp1126
sg8
I00
sg9
g1122
ssg1114
(dp1127
g3
g4
((lp1128
g1111
atp1129
Rp1130
sg8
I00
sg9
g1114
ssS'monopolization'
p1131
(dp1132
g3
g4
((lp1133
tp1134
Rp1135
sg8
I00
sg9
g1131
ssS'revolutionized'
p1136
(dp1137
g3
g4
((lp1138
S'revolutionizes'
p1139
aS'revolutionizer'
p1140
atp1141
Rp1142
sg8
I00
sg9
g1136
ssS'timorousnesses'
p1143
(dp1144
g3
g4
((lp1145
tp1146
Rp1147
sg8
I00
sg9
g1143
ssS'mystifications'
p1148
(dp1149
g3
g4
((lp1150
tp1151
Rp1152
sg8
I00
sg9
g1148
ssS'vegetarianisms'
p1153
(dp1154
g3
g4
((lp1155
tp1156
Rp1157
sg8
I00
sg9
g1153
ssS'inapproachable'
p1158
(dp1159
g3
g4
((lp1160
tp1161
Rp1162
sg8
I00
sg9
g1158
ssS'specifications'
p1163
(dp1164
g3
g4
((lp1165
tp1166
Rp1167
sg8
I00
sg9
g1163
ssS'lasciviousness'
p1168
(dp1169
g3
g4
((lp1170
tp1171
Rp1172
sg8
I00
sg9
g1168
ssS'misrepresented'
p1173
(dp1174
g3
g4
((lp1175
tp1176
Rp1177
sg8
I00
sg9
g1173
ssS'maladjustments'
p1178
(dp1179
g3
g4
((lp1180
tp1181
Rp1182
sg8
I00
sg9
g1178
ssS'sophistication'
p1183
(dp1184
g3
g4
((lp1185
tp1186
Rp1187
sg8
I00
sg9
g1183
ssS'noninvolvement'
p1188
(dp1189
g3
g4
((lp1190
tp1191
Rp1192
sg8
I00
sg9
g1188
ssS'disproportions'
p1193
(dp1194
g3
g4
((lp1195
tp1196
Rp1197
sg8
I00
sg9
g1193
ssS'magnetizations'
p1198
(dp1199
g3
g4
((lp1200
tp1201
Rp1202
sg8
I00
sg9
g1198
ssS'multiplication'
p1203
(dp1204
g3
g4
((lp1205
tp1206
Rp1207
sg8
I00
sg9
g1203
ssS'apprenticeship'
p1208
(dp1209
g3
g4
((lp1210
tp1211
Rp1212
sg8
I00
sg9
g1208
ssS'reexaminations'
p1213
(dp1214
g3
g4
((lp1215
tp1216
Rp1217
sg8
I00
sg9
g1213
ssS'interrelations'
p1218
(dp1219
g3
g4
((lp1220
tp1221
Rp1222
sg8
I00
sg9
g1218
ssS'minirebellions'
p1223
(dp1224
g3
g4
((lp1225
tp1226
Rp1227
sg8
I00
sg9
g1223
ssS'actualizations'
p1228
(dp1229
g3
g4
((lp1230
tp1231
Rp1232
sg8
I00
sg9
g1228
ssS'enormousnesses'
p1233
(dp1234
g3
g4
((lp1235
tp1236
Rp1237
sg8
I00
sg9
g1233
ssS'voluptuousness'
p1238
(dp1239
g3
g4
((lp1240
tp1241
Rp1242
sg8
I00
sg9
g1238
ssS'reestablishing'
p1243
(dp1244
g3
g4
((lp1245
tp1246
Rp1247
sg8
I00
sg9
g1243
ssS'ambassadorship'
p1248
(dp1249
g3
g4
((lp1250
tp1251
Rp1252
sg8
I00
sg9
g1248
ssS'interpolations'
p1253
(dp1254
g3
g4
((lp1255
tp1256
Rp1257
sg8
I00
sg9
g1253
ssS'unworthinesses'
p1258
(dp1259
g3
g4
((lp1260
tp1261
Rp1262
sg8
I00
sg9
g1258
ssS'countermeasure'
p1263
(dp1264
g3
g4
((lp1265
tp1266
Rp1267
sg8
I00
sg9
g1263
ssS'contraceptives'
p1268
(dp1269
g3
g4
((lp1270
tp1271
Rp1272
sg8
I00
sg9
g1268
ssS'republicanisms'
p1273
(dp1274
g3
g4
((lp1275
tp1276
Rp1277
sg8
I00
sg9
g1273
ssS'responsibility'
p1278
(dp1279
g3
g4
((lp1280
tp1281
Rp1282
sg8
I00
sg9
g1278
ssS'resolutenesses'
p1283
(dp1284
g3
g4
((lp1285
tp1286
Rp1287
sg8
I00
sg9
g1283
ssS'representation'
p1288
(dp1289
g3
g4
((lp1290
tp1291
Rp1292
sg8
I00
sg9
g1288
ssS'radiotherapies'
p1293
(dp1294
g3
g4
((lp1295
tp1296
Rp1297
sg8
I00
sg9
g1293
ssS'snobbishnesses'
p1298
(dp1299
g3
g4
((lp1300
tp1301
Rp1302
sg8
I00
sg9
g1298
ssS'relentlessness'
p1303
(dp1304
g3
g4
((lp1305
tp1306
Rp1307
sg8
I00
sg9
g1303
ssS'ichthyologists'
p1308
(dp1309
g3
g4
((lp1310
tp1311
Rp1312
sg8
I00
sg9
g1308
ssS'interpretation'
p1313
(dp1314
g3
g4
((lp1315
tp1316
Rp1317
sg8
I00
sg9
g1313
ssS'clarifications'
p1318
(dp1319
g3
g4
((lp1320
tp1321
Rp1322
sg8
I00
sg9
g1318
ssS'considerations'
p1323
(dp1324
g3
g4
((lp1325
tp1326
Rp1327
sg8
I00
sg9
g1323
ssS'prefabrication'
p1328
(dp1329
g3
g4
((lp1330
tp1331
Rp1332
sg8
I00
sg9
g1328
ssS'preponderating'
p1333
(dp1334
g3
g4
((lp1335
tp1336
Rp1337
sg8
I00
sg9
g1333
ssS'agriculturists'
p1338
(dp1339
g3
g4
((lp1340
tp1341
Rp1342
sg8
I00
sg9
g1338
ssS'rehospitalized'
p1343
(dp1344
g3
g4
((lp1345
S'rehospitalizes'
p1346
atp1347
Rp1348
sg8
I00
sg9
g1343
ssS'reacclimatized'
p1349
(dp1350
g3
g4
((lp1351
S'reacclimatizes'
p1352
atp1353
Rp1354
sg8
I00
sg9
g1349
ssS'interspersions'
p1355
(dp1356
g3
g4
((lp1357
tp1358
Rp1359
sg8
I00
sg9
g1355
ssS'malodorousness'
p1360
(dp1361
g3
g4
((lp1362
tp1363
Rp1364
sg8
I00
sg9
g1360
ssS'subdepartments'
p1365
(dp1366
g3
g4
((lp1367
tp1368
Rp1369
sg8
I00
sg9
g1365
ssS'undersecretary'
p1370
(dp1371
g3
g4
((lp1372
tp1373
Rp1374
sg8
I00
sg9
g1370
ssg1352
(dp1375
g3
g4
((lp1376
g1349
atp1377
Rp1378
sg8
I00
sg9
g1352
ssS'doublecrossing'
p1379
(dp1380
g3
g4
((lp1381
tp1382
Rp1383
sg8
I00
sg9
g1379
ssg1346
(dp1384
g3
g4
((lp1385
g1343
atp1386
Rp1387
sg8
I00
sg9
g1346
ssS'counterterrors'
p1388
(dp1389
g3
g4
((lp1390
tp1391
Rp1392
sg8
I00
sg9
g1388
ssS'conversational'
p1393
(dp1394
g3
g4
((lp1395
tp1396
Rp1397
sg8
I00
sg9
g1393
ssS'cardiovascular'
p1398
(dp1399
g3
g4
((lp1400
tp1401
Rp1402
sg8
I00
sg9
g1398
ssS'omnivorousness'
p1403
(dp1404
g3
g4
((lp1405
tp1406
Rp1407
sg8
I00
sg9
g1403
ssS'respectability'
p1408
(dp1409
g3
g4
((lp1410
tp1411
Rp1412
sg8
I00
sg9
g1408
ssS'overexcitement'
p1413
(dp1414
g3
g4
((lp1415
tp1416
Rp1417
sg8
I00
sg9
g1413
ssS'wondrousnesses'
p1418
(dp1419
g3
g4
((lp1420
tp1421
Rp1422
sg8
I00
sg9
g1418
ssS'overexplaining'
p1423
(dp1424
g3
g4
((lp1425
tp1426
Rp1427
sg8
I00
sg9
g1423
ssS'phonographally'
p1428
(dp1429
g3
g4
((lp1430
S'photographally'
p1431
atp1432
Rp1433
sg8
I00
sg9
g1428
ssS'prizefightings'
p1434
(dp1435
g3
g4
((lp1436
tp1437
Rp1438
sg8
I00
sg9
g1434
ssS'handsomenesses'
p1439
(dp1440
g3
g4
((lp1441
tp1442
Rp1443
sg8
I00
sg9
g1439
ssS'implausibility'
p1444
(dp1445
g3
g4
((lp1446
tp1447
Rp1448
sg8
I00
sg9
g1444
ssS'indistinctness'
p1449
(dp1450
g3
g4
((lp1451
tp1452
Rp1453
sg8
I00
sg9
g1449
ssS'distinguishing'
p1454
(dp1455
g3
g4
((lp1456
tp1457
Rp1458
sg8
I00
sg9
g1454
ssS'schoolteachers'
p1459
(dp1460
g3
g4
((lp1461
tp1462
Rp1463
sg8
I00
sg9
g1459
ssS'accompaniments'
p1464
(dp1465
g3
g4
((lp1466
tp1467
Rp1468
sg8
I00
sg9
g1464
ssS'flabbergasting'
p1469
(dp1470
g3
g4
((lp1471
tp1472
Rp1473
sg8
I00
sg9
g1469
ssS'encephalitides'
p1474
(dp1475
g3
g4
((lp1476
tp1477
Rp1478
sg8
I00
sg9
g1474
ssS'quadrilaterals'
p1479
(dp1480
g3
g4
((lp1481
tp1482
Rp1483
sg8
I00
sg9
g1479
ssg1140
(dp1484
g3
g4
((lp1485
g1136
ag1139
atp1486
Rp1487
sg8
I00
sg9
g1140
ssS'hermaphrodites'
p1488
(dp1489
g3
g4
((lp1490
tp1491
Rp1492
sg8
I00
sg9
g1488
ssS'correspondence'
p1493
(dp1494
g3
g4
((lp1495
tp1496
Rp1497
sg8
I00
sg9
g1493
ssS'incompleteness'
p1498
(dp1499
g3
g4
((lp1500
tp1501
Rp1502
sg8
I00
sg9
g1498
ssg1061
(dp1503
g3
g4
((lp1504
g1058
atp1505
Rp1506
sg8
I00
sg9
g1061
ssS'corroborations'
p1507
(dp1508
g3
g4
((lp1509
tp1510
Rp1511
sg8
I00
sg9
g1507
ssS'overexhausting'
p1512
(dp1513
g3
g4
((lp1514
tp1515
Rp1516
sg8
I00
sg9
g1512
ssS'subatmospheric'
p1517
(dp1518
g3
g4
((lp1519
tp1520
Rp1521
sg8
I00
sg9
g1517
ssS'facelessnesses'
p1522
(dp1523
g3
g4
((lp1524
tp1525
Rp1526
sg8
I00
sg9
g1522
ssS'listlessnesses'
p1527
(dp1528
g3
g4
((lp1529
tp1530
Rp1531
sg8
I00
sg9
g1527
ssS'denominational'
p1532
(dp1533
g3
g4
((lp1534
tp1535
Rp1536
sg8
I00
sg9
g1532
ssS'generousnesses'
p1537
(dp1538
g3
g4
((lp1539
tp1540
Rp1541
sg8
I00
sg9
g1537
ssS'parallelograms'
p1542
(dp1543
g3
g4
((lp1544
tp1545
Rp1546
sg8
I00
sg9
g1542
ssS'enlightenments'
p1547
(dp1548
g3
g4
((lp1549
tp1550
Rp1551
sg8
I00
sg9
g1547
ssS'cantankerously'
p1552
(dp1553
g3
g4
((lp1554
tp1555
Rp1556
sg8
I00
sg9
g1552
ssS'photosynthetic'
p1557
(dp1558
g3
g4
((lp1559
tp1560
Rp1561
sg8
I00
sg9
g1557
ssS'commercialized'
p1562
(dp1563
g3
g4
((lp1564
S'commercializes'
p1565
atp1566
Rp1567
sg8
I00
sg9
g1562
ssS'questionniares'
p1568
(dp1569
g3
g4
((lp1570
tp1571
Rp1572
sg8
I00
sg9
g1568
ssS'supersensitive'
p1573
(dp1574
g3
g4
((lp1575
tp1576
Rp1577
sg8
I00
sg9
g1573
ssS'presupposition'
p1578
(dp1579
g3
g4
((lp1580
tp1581
Rp1582
sg8
I00
sg9
g1578
ssg1565
(dp1583
g3
g4
((lp1584
g1562
atp1585
Rp1586
sg8
I00
sg9
g1565
ssS'sterilizations'
p1587
(dp1588
g3
g4
((lp1589
tp1590
Rp1591
sg8
I00
sg9
g1587
ssS'overprotective'
p1592
(dp1593
g3
g4
((lp1594
tp1595
Rp1596
sg8
I00
sg9
g1592
ssS'effervescences'
p1597
(dp1598
g3
g4
((lp1599
tp1600
Rp1601
sg8
I00
sg9
g1597
ssS'naturalization'
p1602
(dp1603
g3
g4
((lp1604
tp1605
Rp1606
sg8
I00
sg9
g1602
ssS'memorabilities'
p1607
(dp1608
g3
g4
((lp1609
tp1610
Rp1611
sg8
I00
sg9
g1607
ssS'counterdemands'
p1612
(dp1613
g3
g4
((lp1614
tp1615
Rp1616
sg8
I00
sg9
g1612
ssS'helplessnesses'
p1617
(dp1618
g3
g4
((lp1619
tp1620
Rp1621
sg8
I00
sg9
g1617
ssS'minicomponents'
p1622
(dp1623
g3
g4
((lp1624
tp1625
Rp1626
sg8
I00
sg9
g1622
ssS'convivialities'
p1627
(dp1628
g3
g4
((lp1629
tp1630
Rp1631
sg8
I00
sg9
g1627
ssS'instructorship'
p1632
(dp1633
g3
g4
((lp1634
tp1635
Rp1636
sg8
I00
sg9
g1632
ssS'belligerencies'
p1637
(dp1638
g3
g4
((lp1639
tp1640
Rp1641
sg8
I00
sg9
g1637
ssS'preestablishes'
p1642
(dp1643
g3
g4
((lp1644
S'preestablished'
p1645
atp1646
Rp1647
sg8
I00
sg9
g1642
ssS'cardiotoxicity'
p1648
(dp1649
g3
g4
((lp1650
tp1651
Rp1652
sg8
I00
sg9
g1648
ssS'irreconcilable'
p1653
(dp1654
g3
g4
((lp1655
tp1656
Rp1657
sg8
I00
sg9
g1653
ssS'scintillations'
p1658
(dp1659
g3
g4
((lp1660
tp1661
Rp1662
sg8
I00
sg9
g1658
ssS'airconditioned'
p1663
(dp1664
g3
g4
((lp1665
tp1666
Rp1667
sg8
I00
sg9
g1663
ssS'erythrocytosis'
p1668
(dp1669
g3
g4
((lp1670
tp1671
Rp1672
sg8
I00
sg9
g1668
ssS'ticklishnesses'
p1673
(dp1674
g3
g4
((lp1675
tp1676
Rp1677
sg8
I00
sg9
g1673
ssS'irregularities'
p1678
(dp1679
g3
g4
((lp1680
tp1681
Rp1682
sg8
I00
sg9
g1678
ssS'susceptibility'
p1683
(dp1684
g3
g4
((lp1685
tp1686
Rp1687
sg8
I00
sg9
g1683
ssS'unsteadinesses'
p1688
(dp1689
g3
g4
((lp1690
tp1691
Rp1692
sg8
I00
sg9
g1688
ssS'circumspection'
p1693
(dp1694
g3
g4
((lp1695
tp1696
Rp1697
sg8
I00
sg9
g1693
ssS'overstimulates'
p1698
(dp1699
g3
g4
((lp1700
S'overstimulated'
p1701
atp1702
Rp1703
sg8
I00
sg9
g1698
ssS'antisubversion'
p1704
(dp1705
g3
g4
((lp1706
tp1707
Rp1708
sg8
I00
sg9
g1704
ssS'acknowledgment'
p1709
(dp1710
g3
g4
((lp1711
tp1712
Rp1713
sg8
I00
sg9
g1709
ssS'bacteriologist'
p1714
(dp1715
g3
g4
((lp1716
tp1717
Rp1718
sg8
I00
sg9
g1714
ssS'contraindicate'
p1719
(dp1720
g3
g4
((lp1721
tp1722
Rp1723
sg8
I00
sg9
g1719
ssS'overproduction'
p1724
(dp1725
g3
g4
((lp1726
tp1727
Rp1728
sg8
I00
sg9
g1724
ssS'granddaughters'
p1729
(dp1730
g3
g4
((lp1731
tp1732
Rp1733
sg8
I00
sg9
g1729
ssS'extraclassroom'
p1734
(dp1735
g3
g4
((lp1736
tp1737
Rp1738
sg8
I00
sg9
g1734
ssg1701
(dp1739
g3
g4
((lp1740
g1698
atp1741
Rp1742
sg8
I00
sg9
g1701
ssS'preinoculating'
p1743
(dp1744
g3
g4
((lp1745
tp1746
Rp1747
sg8
I00
sg9
g1743
ssS'resynthesizing'
p1748
(dp1749
g3
g4
((lp1750
tp1751
Rp1752
sg8
I00
sg9
g1748
ssS'wrongfulnesses'
p1753
(dp1754
g3
g4
((lp1755
tp1756
Rp1757
sg8
I00
sg9
g1753
ssS'meteorological'
p1758
(dp1759
g3
g4
((lp1760
tp1761
Rp1762
sg8
I00
sg9
g1758
ssS'specialization'
p1763
(dp1764
g3
g4
((lp1765
tp1766
Rp1767
sg8
I00
sg9
g1763
ssS'counterthreats'
p1768
(dp1769
g3
g4
((lp1770
tp1771
Rp1772
sg8
I00
sg9
g1768
ssS'apologetically'
p1773
(dp1774
g3
g4
((lp1775
tp1776
Rp1777
sg8
I00
sg9
g1773
ssS'statesmanships'
p1778
(dp1779
g3
g4
((lp1780
tp1781
Rp1782
sg8
I00
sg9
g1778
ssS'juxtapositions'
p1783
(dp1784
g3
g4
((lp1785
tp1786
Rp1787
sg8
I00
sg9
g1783
ssS'deteriorations'
p1788
(dp1789
g3
g4
((lp1790
tp1791
Rp1792
sg8
I00
sg9
g1788
ssS'falsifications'
p1793
(dp1794
g3
g4
((lp1795
tp1796
Rp1797
sg8
I00
sg9
g1793
ssS'decorousnesses'
p1798
(dp1799
g3
g4
((lp1800
tp1801
Rp1802
sg8
I00
sg9
g1798
ssS'disintegrating'
p1803
(dp1804
g3
g4
((lp1805
tp1806
Rp1807
sg8
I00
sg9
g1803
ssS'regimentations'
p1808
(dp1809
g3
g4
((lp1810
tp1811
Rp1812
sg8
I00
sg9
g1808
ssS'indispositions'
p1813
(dp1814
g3
g4
((lp1815
tp1816
Rp1817
sg8
I00
sg9
g1813
ssS'substantiation'
p1818
(dp1819
g3
g4
((lp1820
tp1821
Rp1822
sg8
I00
sg9
g1818
ssS'fruitfulnesses'
p1823
(dp1824
g3
g4
((lp1825
tp1826
Rp1827
sg8
I00
sg9
g1823
ssS'certifications'
p1828
(dp1829
g3
g4
((lp1830
tp1831
Rp1832
sg8
I00
sg9
g1828
ssS'principalities'
p1833
(dp1834
g3
g4
((lp1835
tp1836
Rp1837
sg8
I00
sg9
g1833
ssS'appendectomies'
p1838
(dp1839
g3
g4
((lp1840
tp1841
Rp1842
sg8
I00
sg9
g1838
ssS'nonparticipant'
p1843
(dp1844
g3
g4
((lp1845
tp1846
Rp1847
sg8
I00
sg9
g1843
ssS'absentmindedly'
p1848
(dp1849
g3
g4
((lp1850
tp1851
Rp1852
sg8
I00
sg9
g1848
ssS'lusciousnesses'
p1853
(dp1854
g3
g4
((lp1855
tp1856
Rp1857
sg8
I00
sg9
g1853
ssS'confrontations'
p1858
(dp1859
g3
g4
((lp1860
tp1861
Rp1862
sg8
I00
sg9
g1858
ssS'reenlistnesses'
p1863
(dp1864
g3
g4
((lp1865
tp1866
Rp1867
sg8
I00
sg9
g1863
ssS'constabularies'
p1868
(dp1869
g3
g4
((lp1870
tp1871
Rp1872
sg8
I00
sg9
g1868
ssS'thromboplastin'
p1873
(dp1874
g3
g4
((lp1875
tp1876
Rp1877
sg8
I00
sg9
g1873
ssS'biodegradation'
p1878
(dp1879
g3
g4
((lp1880
tp1881
Rp1882
sg8
I00
sg9
g1878
ssS'pronunciations'
p1883
(dp1884
g3
g4
((lp1885
tp1886
Rp1887
sg8
I00
sg9
g1883
ssS'vitrifications'
p1888
(dp1889
g3
g4
((lp1890
tp1891
Rp1892
sg8
I00
sg9
g1888
ssS'antiaggression'
p1893
(dp1894
g3
g4
((lp1895
tp1896
Rp1897
sg8
I00
sg9
g1893
ssS'miscalculation'
p1898
(dp1899
g3
g4
((lp1900
tp1901
Rp1902
sg8
I00
sg9
g1898
ssS'oversimplifies'
p1903
(dp1904
g3
g4
((lp1905
S'oversimplified'
p1906
atp1907
Rp1908
sg8
I00
sg9
g1903
ssS'miscalculating'
p1909
(dp1910
g3
g4
((lp1911
tp1912
Rp1913
sg8
I00
sg9
g1909
ssS'misapprehended'
p1914
(dp1915
g3
g4
((lp1916
tp1917
Rp1918
sg8
I00
sg9
g1914
ssS'remuneratively'
p1919
(dp1920
g3
g4
((lp1921
tp1922
Rp1923
sg8
I00
sg9
g1919
ssS'selflessnesses'
p1924
(dp1925
g3
g4
((lp1926
tp1927
Rp1928
sg8
I00
sg9
g1924
ssS'methodological'
p1929
(dp1930
g3
g4
((lp1931
tp1932
Rp1933
sg8
I00
sg9
g1929
ssS'intermediaries'
p1934
(dp1935
g3
g4
((lp1936
tp1937
Rp1938
sg8
I00
sg9
g1934
ssS'contraceptions'
p1939
(dp1940
g3
g4
((lp1941
tp1942
Rp1943
sg8
I00
sg9
g1939
ssS'intermolecular'
p1944
(dp1945
g3
g4
((lp1946
tp1947
Rp1948
sg8
I00
sg9
g1944
ssS'hermaphroditic'
p1949
(dp1950
g3
g4
((lp1951
tp1952
Rp1953
sg8
I00
sg9
g1949
ssS'stubbornnesses'
p1954
(dp1955
g3
g4
((lp1956
tp1957
Rp1958
sg8
I00
sg9
g1954
ssS'propagandizing'
p1959
(dp1960
g3
g4
((lp1961
tp1962
Rp1963
sg8
I00
sg9
g1959
ssS'neutralization'
p1964
(dp1965
g3
g4
((lp1966
tp1967
Rp1968
sg8
I00
sg9
g1964
ssS'preadolescence'
p1969
(dp1970
g3
g4
((lp1971
tp1972
Rp1973
sg8
I00
sg9
g1969
ssS'conflagrations'
p1974
(dp1975
g3
g4
((lp1976
tp1977
Rp1978
sg8
I00
sg9
g1974
ssS'noncompliances'
p1979
(dp1980
g3
g4
((lp1981
tp1982
Rp1983
sg8
I00
sg9
g1979
ssS'establishments'
p1984
(dp1985
g3
g4
((lp1986
tp1987
Rp1988
sg8
I00
sg9
g1984
ssS'hyperemotional'
p1989
(dp1990
g3
g4
((lp1991
tp1992
Rp1993
sg8
I00
sg9
g1989
ssS'predisposition'
p1994
(dp1995
g3
g4
((lp1996
tp1997
Rp1998
sg8
I00
sg9
g1994
ssS'harmlessnesses'
p1999
(dp2000
g3
g4
((lp2001
tp2002
Rp2003
sg8
I00
sg9
g1999
ssg1906
(dp2004
g3
g4
((lp2005
g1903
atp2006
Rp2007
sg8
I00
sg9
g1906
ssS'villianousness'
p2008
(dp2009
g3
g4
((lp2010
tp2011
Rp2012
sg8
I00
sg9
g2008
ssS'procrastinates'
p2013
(dp2014
g3
g4
((lp2015
S'procrastinated'
p2016
atp2017
Rp2018
sg8
I00
sg9
g2013
ssS'reinforcements'
p2019
(dp2020
g3
g4
((lp2021
tp2022
Rp2023
sg8
I00
sg9
g2019
ssS'inelasticities'
p2024
(dp2025
g3
g4
((lp2026
tp2027
Rp2028
sg8
I00
sg9
g2024
ssS'recommendatory'
p2029
(dp2030
g3
g4
((lp2031
tp2032
Rp2033
sg8
I00
sg9
g2029
ssS'oppositenesses'
p2034
(dp2035
g3
g4
((lp2036
tp2037
Rp2038
sg8
I00
sg9
g2034
ssS'rephotographed'
p2039
(dp2040
g3
g4
((lp2041
tp2042
Rp2043
sg8
I00
sg9
g2039
ssS'overprivileged'
p2044
(dp2045
g3
g4
((lp2046
tp2047
Rp2048
sg8
I00
sg9
g2044
ssS'antiaristocrat'
p2049
(dp2050
g3
g4
((lp2051
tp2052
Rp2053
sg8
I00
sg9
g2049
ssS'persuasiveness'
p2054
(dp2055
g3
g4
((lp2056
tp2057
Rp2058
sg8
I00
sg9
g2054
ssS'reupholstering'
p2059
(dp2060
g3
g4
((lp2061
tp2062
Rp2063
sg8
I00
sg9
g2059
ssS'documentations'
p2064
(dp2065
g3
g4
((lp2066
tp2067
Rp2068
sg8
I00
sg9
g2064
ssS'undernourished'
p2069
(dp2070
g3
g4
((lp2071
tp2072
Rp2073
sg8
I00
sg9
g2069
ssS'forthrightness'
p2074
(dp2075
g3
g4
((lp2076
tp2077
Rp2078
sg8
I00
sg9
g2074
ssS'superficiality'
p2079
(dp2080
g3
g4
((lp2081
tp2082
Rp2083
sg8
I00
sg9
g2079
ssS'monotonousness'
p2084
(dp2085
g3
g4
((lp2086
tp2087
Rp2088
sg8
I00
sg9
g2084
ssS'benefactresses'
p2089
(dp2090
g3
g4
((lp2091
tp2092
Rp2093
sg8
I00
sg9
g2089
ssS'productivities'
p2094
(dp2095
g3
g4
((lp2096
tp2097
Rp2098
sg8
I00
sg9
g2094
ssS'metamorphosing'
p2099
(dp2100
g3
g4
((lp2101
tp2102
Rp2103
sg8
I00
sg9
g2099
ssS'congratulatory'
p2104
(dp2105
g3
g4
((lp2106
tp2107
Rp2108
sg8
I00
sg9
g2104
ssS'carelessnesses'
p2109
(dp2110
g3
g4
((lp2111
tp2112
Rp2113
sg8
I00
sg9
g2109
ssS'subcommissions'
p2114
(dp2115
g3
g4
((lp2116
tp2117
Rp2118
sg8
I00
sg9
g2114
ssS'collaborations'
p2119
(dp2120
g3
g4
((lp2121
tp2122
Rp2123
sg8
I00
sg9
g2119
ssS'adventitiously'
p2124
(dp2125
g3
g4
((lp2126
tp2127
Rp2128
sg8
I00
sg9
g2124
ssS'hybridizations'
p2129
(dp2130
g3
g4
((lp2131
tp2132
Rp2133
sg8
I00
sg9
g2129
ssS'individualizes'
p2134
(dp2135
g3
g4
((lp2136
S'individualized'
p2137
atp2138
Rp2139
sg8
I00
sg9
g2134
ssS'discriminating'
p2140
(dp2141
g3
g4
((lp2142
tp2143
Rp2144
sg8
I00
sg9
g2140
ssS'reconstructing'
p2145
(dp2146
g3
g4
((lp2147
tp2148
Rp2149
sg8
I00
sg9
g2145
ssS'autocratically'
p2150
(dp2151
g3
g4
((lp2152
tp2153
Rp2154
sg8
I00
sg9
g2150
ssS'fastiduousness'
p2155
(dp2156
g3
g4
((lp2157
tp2158
Rp2159
sg8
I00
sg9
g2155
ssS'impersonations'
p2160
(dp2161
g3
g4
((lp2162
tp2163
Rp2164
sg8
I00
sg9
g2160
ssS'summarizations'
p2165
(dp2166
g3
g4
((lp2167
tp2168
Rp2169
sg8
I00
sg9
g2165
ssS'photosynthesis'
p2170
(dp2171
g3
g4
((lp2172
tp2173
Rp2174
sg8
I00
sg9
g2170
ssS'housecleanings'
p2175
(dp2176
g3
g4
((lp2177
tp2178
Rp2179
sg8
I00
sg9
g2175
ssS'anthropologist'
p2180
(dp2181
g3
g4
((lp2182
tp2183
Rp2184
sg8
I00
sg9
g2180
ssS'minisubmarines'
p2185
(dp2186
g3
g4
((lp2187
tp2188
Rp2189
sg8
I00
sg9
g2185
ssS'subcontracting'
p2190
(dp2191
g3
g4
((lp2192
tp2193
Rp2194
sg8
I00
sg9
g2190
ssS'hypermasculine'
p2195
(dp2196
g3
g4
((lp2197
tp2198
Rp2199
sg8
I00
sg9
g2195
ssS'substantiating'
p2200
(dp2201
g3
g4
((lp2202
tp2203
Rp2204
sg8
I00
sg9
g2200
ssS'consternations'
p2205
(dp2206
g3
g4
((lp2207
tp2208
Rp2209
sg8
I00
sg9
g2205
ssS'mysteriousness'
p2210
(dp2211
g3
g4
((lp2212
tp2213
Rp2214
sg8
I00
sg9
g2210
ssS'interpositions'
p2215
(dp2216
g3
g4
((lp2217
tp2218
Rp2219
sg8
I00
sg9
g2215
ssS'backwardnesses'
p2220
(dp2221
g3
g4
((lp2222
tp2223
Rp2224
sg8
I00
sg9
g2220
ssS'reintegrations'
p2225
(dp2226
g3
g4
((lp2227
tp2228
Rp2229
sg8
I00
sg9
g2225
ssS'quarterbacking'
p2230
(dp2231
g3
g4
((lp2232
tp2233
Rp2234
sg8
I00
sg9
g2230
ssS'generalization'
p2235
(dp2236
g3
g4
((lp2237
tp2238
Rp2239
sg8
I00
sg9
g2235
ssS'transcriptions'
p2240
(dp2241
g3
g4
((lp2242
tp2243
Rp2244
sg8
I00
sg9
g2240
ssS'overorganizing'
p2245
(dp2246
g3
g4
((lp2247
tp2248
Rp2249
sg8
I00
sg9
g2245
ssS'lonesomenesses'
p2250
(dp2251
g3
g4
((lp2252
tp2253
Rp2254
sg8
I00
sg9
g2250
ssS'youthfulnesses'
p2255
(dp2256
g3
g4
((lp2257
tp2258
Rp2259
sg8
I00
sg9
g2255
ssS'wastefulnesses'
p2260
(dp2261
g3
g4
((lp2262
tp2263
Rp2264
sg8
I00
sg9
g2260
ssS'overabundances'
p2265
(dp2266
g3
g4
((lp2267
tp2268
Rp2269
sg8
I00
sg9
g2265
ssS'predesignating'
p2270
(dp2271
g3
g4
((lp2272
tp2273
Rp2274
sg8
I00
sg9
g2270
ssS'italicizations'
p2275
(dp2276
g3
g4
((lp2277
tp2278
Rp2279
sg8
I00
sg9
g2275
ssS'antihumanistic'
p2280
(dp2281
g3
g4
((lp2282
tp2283
Rp2284
sg8
I00
sg9
g2280
ssS'counterreforms'
p2285
(dp2286
g3
g4
((lp2287
tp2288
Rp2289
sg8
I00
sg9
g2285
ssS'ruthlessnesses'
p2290
(dp2291
g3
g4
((lp2292
tp2293
Rp2294
sg8
I00
sg9
g2290
ssS'rebroadcasting'
p2295
(dp2296
g3
g4
((lp2297
tp2298
Rp2299
sg8
I00
sg9
g2295
ssg2016
(dp2300
g3
g4
((lp2301
g2013
atp2302
Rp2303
sg8
I00
sg9
g2016
ssS'sensuousnesses'
p2304
(dp2305
g3
g4
((lp2306
tp2307
Rp2308
sg8
I00
sg9
g2304
ssS'vulcanizations'
p2309
(dp2310
g3
g4
((lp2311
tp2312
Rp2313
sg8
I00
sg9
g2309
ssS'adminstrations'
p2314
(dp2315
g3
g4
((lp2316
tp2317
Rp2318
sg8
I00
sg9
g2314
ssS'preponderances'
p2319
(dp2320
g3
g4
((lp2321
tp2322
Rp2323
sg8
I00
sg9
g2319
ssS'hatefullnesses'
p2324
(dp2325
g3
g4
((lp2326
tp2327
Rp2328
sg8
I00
sg9
g2324
ssS'disparagements'
p2329
(dp2330
g3
g4
((lp2331
tp2332
Rp2333
sg8
I00
sg9
g2329
ssS'verticalnesses'
p2334
(dp2335
g3
g4
((lp2336
tp2337
Rp2338
sg8
I00
sg9
g2334
ssS'vituperatively'
p2339
(dp2340
g3
g4
((lp2341
tp2342
Rp2343
sg8
I00
sg9
g2339
ssS'capitalization'
p2344
(dp2345
g3
g4
((lp2346
tp2347
Rp2348
sg8
I00
sg9
g2344
ssS'investigations'
p2349
(dp2350
g3
g4
((lp2351
tp2352
Rp2353
sg8
I00
sg9
g2349
ssS'attractiveness'
p2354
(dp2355
g3
g4
((lp2356
tp2357
Rp2358
sg8
I00
sg9
g2354
ssS'reanesthetizes'
p2359
(dp2360
g3
g4
((lp2361
S'reanesthetized'
p2362
atp2363
Rp2364
sg8
I00
sg9
g2359
ssS'orchestrations'
p2365
(dp2366
g3
g4
((lp2367
tp2368
Rp2369
sg8
I00
sg9
g2365
ssS'perpendiculars'
p2370
(dp2371
g3
g4
((lp2372
tp2373
Rp2374
sg8
I00
sg9
g2370
ssS'underclothings'
p2375
(dp2376
g3
g4
((lp2377
tp2378
Rp2379
sg8
I00
sg9
g2375
ssS'obsequiousness'
p2380
(dp2381
g3
g4
((lp2382
tp2383
Rp2384
sg8
I00
sg9
g2380
ssS'congregational'
p2385
(dp2386
g3
g4
((lp2387
tp2388
Rp2389
sg8
I00
sg9
g2385
ssS'technicalities'
p2390
(dp2391
g3
g4
((lp2392
tp2393
Rp2394
sg8
I00
sg9
g2390
ssS'counterbalance'
p2395
(dp2396
g3
g4
((lp2397
tp2398
Rp2399
sg8
I00
sg9
g2395
ssS'unfaithfulness'
p2400
(dp2401
g3
g4
((lp2402
tp2403
Rp2404
sg8
I00
sg9
g2400
ssS'quartermasters'
p2405
(dp2406
g3
g4
((lp2407
tp2408
Rp2409
sg8
I00
sg9
g2405
ssg2362
(dp2410
g3
g4
((lp2411
g2359
atp2412
Rp2413
sg8
I00
sg9
g2362
ssS'tablespoonfuls'
p2414
(dp2415
g3
g4
((lp2416
tp2417
Rp2418
sg8
I00
sg9
g2414
ssg1103
(dp2419
g3
g4
((lp2420
g1100
atp2421
Rp2422
sg8
I00
sg9
g1103
ssS'psychoanalyzed'
p2423
(dp2424
g3
g4
((lp2425
S'psychoanalyzes'
p2426
atp2427
Rp2428
sg8
I00
sg9
g2423
ssS'postmenopausal'
p2429
(dp2430
g3
g4
((lp2431
tp2432
Rp2433
sg8
I00
sg9
g2429
ssS'permissiveness'
p2434
(dp2435
g3
g4
((lp2436
tp2437
Rp2438
sg8
I00
sg9
g2434
ssS'herpetological'
p2439
(dp2440
g3
g4
((lp2441
tp2442
Rp2443
sg8
I00
sg9
g2439
ssS'retrospections'
p2444
(dp2445
g3
g4
((lp2446
tp2447
Rp2448
sg8
I00
sg9
g2444
ssS'sedimentations'
p2449
(dp2450
g3
g4
((lp2451
tp2452
Rp2453
sg8
I00
sg9
g2449
ssS'countermanding'
p2454
(dp2455
g3
g4
((lp2456
tp2457
Rp2458
sg8
I00
sg9
g2454
ssg729
(dp2459
g3
g4
((lp2460
g726
atp2461
Rp2462
sg8
I00
sg9
g729
ssS'counterattacks'
p2463
(dp2464
g3
g4
((lp2465
tp2466
Rp2467
sg8
I00
sg9
g2463
ssS'disembarkation'
p2468
(dp2469
g3
g4
((lp2470
tp2471
Rp2472
sg8
I00
sg9
g2468
ssS'slipperinesses'
p2473
(dp2474
g3
g4
((lp2475
tp2476
Rp2477
sg8
I00
sg9
g2473
ssS'cardiographies'
p2478
(dp2479
g3
g4
((lp2480
tp2481
Rp2482
sg8
I00
sg9
g2478
ssS'penitentiaries'
p2483
(dp2484
g3
g4
((lp2485
tp2486
Rp2487
sg8
I00
sg9
g2483
ssS'bloodthirstily'
p2488
(dp2489
g3
g4
((lp2490
tp2491
Rp2492
sg8
I00
sg9
g2488
ssS'remarkableness'
p2493
(dp2494
g3
g4
((lp2495
tp2496
Rp2497
sg8
I00
sg9
g2493
ssS'postproduction'
p2498
(dp2499
g3
g4
((lp2500
tp2501
Rp2502
sg8
I00
sg9
g2498
ssS'satisfactorily'
p2503
(dp2504
g3
g4
((lp2505
tp2506
Rp2507
sg8
I00
sg9
g2503
ssS'modernizations'
p2508
(dp2509
g3
g4
((lp2510
tp2511
Rp2512
sg8
I00
sg9
g2508
ssS'recontaminated'
p2513
(dp2514
g3
g4
((lp2515
S'recontaminates'
p2516
atp2517
Rp2518
sg8
I00
sg9
g2513
ssS'mesdemoiselles'
p2519
(dp2520
g3
g4
((lp2521
tp2522
Rp2523
sg8
I00
sg9
g2519
ssS'nonobservances'
p2524
(dp2525
g3
g4
((lp2526
tp2527
Rp2528
sg8
I00
sg9
g2524
ssS'telepathically'
p2529
(dp2530
g3
g4
((lp2531
tp2532
Rp2533
sg8
I00
sg9
g2529
ssS'timelessnesses'
p2534
(dp2535
g3
g4
((lp2536
tp2537
Rp2538
sg8
I00
sg9
g2534
ssS'accommodations'
p2539
(dp2540
g3
g4
((lp2541
tp2542
Rp2543
sg8
I00
sg9
g2539
ssS'overpossessive'
p2544
(dp2545
g3
g4
((lp2546
tp2547
Rp2548
sg8
I00
sg9
g2544
ssg2516
(dp2549
g3
g4
((lp2550
g2513
atp2551
Rp2552
sg8
I00
sg9
g2516
ssS'multiplicities'
p2553
(dp2554
g3
g4
((lp2555
tp2556
Rp2557
sg8
I00
sg9
g2553
ssS'abstractnesses'
p2558
(dp2559
g3
g4
((lp2560
tp2561
Rp2562
sg8
I00
sg9
g2558
ssS'decompositions'
p2563
(dp2564
g3
g4
((lp2565
tp2566
Rp2567
sg8
I00
sg9
g2563
ssS'provincialisms'
p2568
(dp2569
g3
g4
((lp2570
tp2571
Rp2572
sg8
I00
sg9
g2568
ssS'premeditations'
p2573
(dp2574
g3
g4
((lp2575
tp2576
Rp2577
sg8
I00
sg9
g2573
ssS'reincorporates'
p2578
(dp2579
g3
g4
((lp2580
S'reincorporated'
p2581
atp2582
Rp2583
sg8
I00
sg9
g2578
ssS'oversweetening'
p2584
(dp2585
g3
g4
((lp2586
tp2587
Rp2588
sg8
I00
sg9
g2584
ssS'incommunicable'
p2589
(dp2590
g3
g4
((lp2591
tp2592
Rp2593
sg8
I00
sg9
g2589
ssS'excitabilities'
p2594
(dp2595
g3
g4
((lp2596
tp2597
Rp2598
sg8
I00
sg9
g2594
ssS'overtightening'
p2599
(dp2600
g3
g4
((lp2601
tp2602
Rp2603
sg8
I00
sg9
g2599
ssS'implementation'
p2604
(dp2605
g3
g4
((lp2606
tp2607
Rp2608
sg8
I00
sg9
g2604
ssS'interrogations'
p2609
(dp2610
g3
g4
((lp2611
tp2612
Rp2613
sg8
I00
sg9
g2609
ssS'systematically'
p2614
(dp2615
g3
g4
((lp2616
tp2617
Rp2618
sg8
I00
sg9
g2614
ssS'procrastinator'
p2619
(dp2620
g3
g4
((lp2621
tp2622
Rp2623
sg8
I00
sg9
g2619
ssS'wretchednesses'
p2624
(dp2625
g3
g4
((lp2626
tp2627
Rp2628
sg8
I00
sg9
g2624
ssS'malleabilities'
p2629
(dp2630
g3
g4
((lp2631
tp2632
Rp2633
sg8
I00
sg9
g2629
ssS'transcendental'
p2634
(dp2635
g3
g4
((lp2636
tp2637
Rp2638
sg8
I00
sg9
g2634
ssS'incapacitating'
p2639
(dp2640
g3
g4
((lp2641
tp2642
Rp2643
sg8
I00
sg9
g2639
ssS'identification'
p2644
(dp2645
g3
g4
((lp2646
tp2647
Rp2648
sg8
I00
sg9
g2644
ssS'intercalations'
p2649
(dp2650
g3
g4
((lp2651
tp2652
Rp2653
sg8
I00
sg9
g2649
ssS'indecisiveness'
p2654
(dp2655
g3
g4
((lp2656
tp2657
Rp2658
sg8
I00
sg9
g2654
ssS'interrogatives'
p2659
(dp2660
g3
g4
((lp2661
tp2662
Rp2663
sg8
I00
sg9
g2659
ssS'nonperformance'
p2664
(dp2665
g3
g4
((lp2666
tp2667
Rp2668
sg8
I00
sg9
g2664
ssS'normalizations'
p2669
(dp2670
g3
g4
((lp2671
tp2672
Rp2673
sg8
I00
sg9
g2669
ssS'intellectually'
p2674
(dp2675
g3
g4
((lp2676
tp2677
Rp2678
sg8
I00
sg9
g2674
ssS'unquantifiable'
p2679
(dp2680
g3
g4
((lp2681
tp2682
Rp2683
sg8
I00
sg9
g2679
ssS'irreproachable'
p2684
(dp2685
g3
g4
((lp2686
tp2687
Rp2688
sg8
I00
sg9
g2684
ssS'irritabilities'
p2689
(dp2690
g3
g4
((lp2691
tp2692
Rp2693
sg8
I00
sg9
g2689
ssS'tranquillizing'
p2694
(dp2695
g3
g4
((lp2696
tp2697
Rp2698
sg8
I00
sg9
g2694
ssg461
(dp2699
g3
g4
((lp2700
g458
atp2701
Rp2702
sg8
I00
sg9
g461
ssS'coconspirators'
p2703
(dp2704
g3
g4
((lp2705
tp2706
Rp2707
sg8
I00
sg9
g2703
ssS'preanesthetics'
p2708
(dp2709
g3
g4
((lp2710
tp2711
Rp2712
sg8
I00
sg9
g2708
ssS'spiritualistic'
p2713
(dp2714
g3
g4
((lp2715
tp2716
Rp2717
sg8
I00
sg9
g2713
ssS'spaciousnesses'
p2718
(dp2719
g3
g4
((lp2720
tp2721
Rp2722
sg8
I00
sg9
g2718
ssg1139
(dp2723
g3
g4
((lp2724
g1136
ag1140
atp2725
Rp2726
sg8
I00
sg9
g1139
ssS'miscegenations'
p2727
(dp2728
g3
g4
((lp2729
tp2730
Rp2731
sg8
I00
sg9
g2727
ssS'misappropriate'
p2732
(dp2733
g3
g4
((lp2734
tp2735
Rp2736
sg8
I00
sg9
g2732
ssS'humidification'
p2737
(dp2738
g3
g4
((lp2739
tp2740
Rp2741
sg8
I00
sg9
g2737
ssS'transpirations'
p2742
(dp2743
g3
g4
((lp2744
tp2745
Rp2746
sg8
I00
sg9
g2742
ssS'intransigences'
p2747
(dp2748
g3
g4
((lp2749
tp2750
Rp2751
sg8
I00
sg9
g2747
ssS'abrasivenesses'
p2752
(dp2753
g3
g4
((lp2754
tp2755
Rp2756
sg8
I00
sg9
g2752
ssS'mathematicians'
p2757
(dp2758
g3
g4
((lp2759
tp2760
Rp2761
sg8
I00
sg9
g2757
ssS'altruistically'
p2762
(dp2763
g3
g4
((lp2764
tp2765
Rp2766
sg8
I00
sg9
g2762
ssS'hysterectomize'
p2767
(dp2768
g3
g4
((lp2769
tp2770
Rp2771
sg8
I00
sg9
g2767
ssS'choreographing'
p2772
(dp2773
g3
g4
((lp2774
tp2775
Rp2776
sg8
I00
sg9
g2772
ssg2581
(dp2777
g3
g4
((lp2778
g2578
atp2779
Rp2780
sg8
I00
sg9
g2581
ssS'weightlessness'
p2781
(dp2782
g3
g4
((lp2783
tp2784
Rp2785
sg8
I00
sg9
g2781
ssS'antihomosexual'
p2786
(dp2787
g3
g4
((lp2788
tp2789
Rp2790
sg8
I00
sg9
g2786
ssS'proprietorship'
p2791
(dp2792
g3
g4
((lp2793
tp2794
Rp2795
sg8
I00
sg9
g2791
ssS'methodicalness'
p2796
(dp2797
g3
g4
((lp2798
tp2799
Rp2800
sg8
I00
sg9
g2796
ssS'completenesses'
p2801
(dp2802
g3
g4
((lp2803
tp2804
Rp2805
sg8
I00
sg9
g2801
ssS'overexpansions'
p2806
(dp2807
g3
g4
((lp2808
tp2809
Rp2810
sg8
I00
sg9
g2806
ssS'quintessential'
p2811
(dp2812
g3
g4
((lp2813
tp2814
Rp2815
sg8
I00
sg9
g2811
ssS'overfertilized'
p2816
(dp2817
g3
g4
((lp2818
S'overfertilizes'
p2819
atp2820
Rp2821
sg8
I00
sg9
g2816
ssS'repetitiveness'
p2822
(dp2823
g3
g4
((lp2824
tp2825
Rp2826
sg8
I00
sg9
g2822
ssS'representative'
p2827
(dp2828
g3
g4
((lp2829
tp2830
Rp2831
sg8
I00
sg9
g2827
ssS'contemplations'
p2832
(dp2833
g3
g4
((lp2834
tp2835
Rp2836
sg8
I00
sg9
g2832
ssS'combustibility'
p2837
(dp2838
g3
g4
((lp2839
tp2840
Rp2841
sg8
I00
sg9
g2837
ssS'transpositions'
p2842
(dp2843
g3
g4
((lp2844
tp2845
Rp2846
sg8
I00
sg9
g2842
ssS'motionlessness'
p2847
(dp2848
g3
g4
((lp2849
tp2850
Rp2851
sg8
I00
sg9
g2847
ssS'conservatories'
p2852
(dp2853
g3
g4
((lp2854
tp2855
Rp2856
sg8
I00
sg9
g2852
ssS'intersectional'
p2857
(dp2858
g3
g4
((lp2859
tp2860
Rp2861
sg8
I00
sg9
g2857
ssS'superstrengths'
p2862
(dp2863
g3
g4
((lp2864
tp2865
Rp2866
sg8
I00
sg9
g2862
ssS'exterminations'
p2867
(dp2868
g3
g4
((lp2869
tp2870
Rp2871
sg8
I00
sg9
g2867
ssS'reverberations'
p2872
(dp2873
g3
g4
((lp2874
tp2875
Rp2876
sg8
I00
sg9
g2872
ssS'nontraditional'
p2877
(dp2878
g3
g4
((lp2879
tp2880
Rp2881
sg8
I00
sg9
g2877
ssS'priestlinesses'
p2882
(dp2883
g3
g4
((lp2884
tp2885
Rp2886
sg8
I00
sg9
g2882
ssS'transportation'
p2887
(dp2888
g3
g4
((lp2889
tp2890
Rp2891
sg8
I00
sg9
g2887
ssS'illegibilities'
p2892
(dp2893
g3
g4
((lp2894
tp2895
Rp2896
sg8
I00
sg9
g2892
ssS'mismanagements'
p2897
(dp2898
g3
g4
((lp2899
tp2900
Rp2901
sg8
I00
sg9
g2897
ssS'momentousments'
p2902
(dp2903
g3
g4
((lp2904
tp2905
Rp2906
sg8
I00
sg9
g2902
ssS'simplification'
p2907
(dp2908
g3
g4
((lp2909
tp2910
Rp2911
sg8
I00
sg9
g2907
ssS'chemotherapies'
p2912
(dp2913
g3
g4
((lp2914
tp2915
Rp2916
sg8
I00
sg9
g2912
ssg523
(dp2917
g3
g4
((lp2918
g520
atp2919
Rp2920
sg8
I00
sg9
g523
ssS'baccalaureates'
p2921
(dp2922
g3
g4
((lp2923
tp2924
Rp2925
sg8
I00
sg9
g2921
ssS'meticulousness'
p2926
(dp2927
g3
g4
((lp2928
tp2929
Rp2930
sg8
I00
sg9
g2926
ssS'anticorruption'
p2931
(dp2932
g3
g4
((lp2933
tp2934
Rp2935
sg8
I00
sg9
g2931
ssS'minicalculator'
p2936
(dp2937
g3
g4
((lp2938
tp2939
Rp2940
sg8
I00
sg9
g2936
ssS'beautification'
p2941
(dp2942
g3
g4
((lp2943
tp2944
Rp2945
sg8
I00
sg9
g2941
ssS'editorializing'
p2946
(dp2947
g3
g4
((lp2948
tp2949
Rp2950
sg8
I00
sg9
g2946
ssS'illustratively'
p2951
(dp2952
g3
g4
((lp2953
tp2954
Rp2955
sg8
I00
sg9
g2951
ssS'thoughtfulness'
p2956
(dp2957
g3
g4
((lp2958
tp2959
Rp2960
sg8
I00
sg9
g2956
ssS'jurisprudences'
p2961
(dp2962
g3
g4
((lp2963
tp2964
Rp2965
sg8
I00
sg9
g2961
ssS'subconsciouses'
p2966
(dp2967
g3
g4
((lp2968
tp2969
Rp2970
sg8
I00
sg9
g2966
ssS'reinvestigates'
p2971
(dp2972
g3
g4
((lp2973
S'reinvestigated'
p2974
atp2975
Rp2976
sg8
I00
sg9
g2971
ssS'antimonopolist'
p2977
(dp2978
g3
g4
((lp2979
tp2980
Rp2981
sg8
I00
sg9
g2977
ssS'overglamorized'
p2982
(dp2983
g3
g4
((lp2984
S'overglamorizes'
p2985
atp2986
Rp2987
sg8
I00
sg9
g2982
ssS'alphabetically'
p2988
(dp2989
g3
g4
((lp2990
tp2991
Rp2992
sg8
I00
sg9
g2988
ssS'disenchantment'
p2993
(dp2994
g3
g4
((lp2995
tp2996
Rp2997
sg8
I00
sg9
g2993
ssS'nonappearances'
p2998
(dp2999
g3
g4
((lp3000
tp3001
Rp3002
sg8
I00
sg9
g2998
ssS'indiscriminate'
p3003
(dp3004
g3
g4
((lp3005
tp3006
Rp3007
sg8
I00
sg9
g3003
ssS'incommensurate'
p3008
(dp3009
g3
g4
((lp3010
tp3011
Rp3012
sg8
I00
sg9
g3008
ssS'philanthropist'
p3013
(dp3014
g3
g4
((lp3015
tp3016
Rp3017
sg8
I00
sg9
g3013
ssS'uncontrollable'
p3018
(dp3019
g3
g4
((lp3020
S'uncontrollably'
p3021
atp3022
Rp3023
sg8
I00
sg9
g3018
ssS'translucencies'
p3024
(dp3025
g3
g4
((lp3026
tp3027
Rp3028
sg8
I00
sg9
g3024
ssg2985
(dp3029
g3
g4
((lp3030
g2982
atp3031
Rp3032
sg8
I00
sg9
g2985
ssg2137
(dp3033
g3
g4
((lp3034
g2134
atp3035
Rp3036
sg8
I00
sg9
g2137
ssS'discursiveness'
p3037
(dp3038
g3
g4
((lp3039
tp3040
Rp3041
sg8
I00
sg9
g3037
ssS'archbishoprics'
p3042
(dp3043
g3
g4
((lp3044
tp3045
Rp3046
sg8
I00
sg9
g3042
ssS'preponderantly'
p3047
(dp3048
g3
g4
((lp3049
tp3050
Rp3051
sg8
I00
sg9
g3047
ssS'mirthfulnesses'
p3052
(dp3053
g3
g4
((lp3054
tp3055
Rp3056
sg8
I00
sg9
g3052
ssS'appropriations'
p3057
(dp3058
g3
g4
((lp3059
tp3060
Rp3061
sg8
I00
sg9
g3057
ssS'waterproofings'
p3062
(dp3063
g3
g4
((lp3064
tp3065
Rp3066
sg8
I00
sg9
g3062
ssS'preauthorizing'
p3067
(dp3068
g3
g4
((lp3069
tp3070
Rp3071
sg8
I00
sg9
g3067
ssS'manifestations'
p3072
(dp3073
g3
g4
((lp3074
tp3075
Rp3076
sg8
I00
sg9
g3072
ssS'disappointment'
p3077
(dp3078
g3
g4
((lp3079
tp3080
Rp3081
sg8
I00
sg9
g3077
ssS'reasonableness'
p3082
(dp3083
g3
g4
((lp3084
tp3085
Rp3086
sg8
I00
sg9
g3082
ssS'indoctrinating'
p3087
(dp3088
g3
g4
((lp3089
tp3090
Rp3091
sg8
I00
sg9
g3087
ssS'harmonizations'
p3092
(dp3093
g3
g4
((lp3094
tp3095
Rp3096
sg8
I00
sg9
g3092
ssS'overstatements'
p3097
(dp3098
g3
g4
((lp3099
tp3100
Rp3101
sg8
I00
sg9
g3097
ssS'overidealizing'
p3102
(dp3103
g3
g4
((lp3104
tp3105
Rp3106
sg8
I00
sg9
g3102
ssS'domestications'
p3107
(dp3108
g3
g4
((lp3109
tp3110
Rp3111
sg8
I00
sg9
g3107
ssS'apportionments'
p3112
(dp3113
g3
g4
((lp3114
tp3115
Rp3116
sg8
I00
sg9
g3112
ssS'coinvestigator'
p3117
(dp3118
g3
g4
((lp3119
tp3120
Rp3121
sg8
I00
sg9
g3117
ssS'commiserations'
p3122
(dp3123
g3
g4
((lp3124
tp3125
Rp3126
sg8
I00
sg9
g3122
ssg2819
(dp3127
g3
g4
((lp3128
g2816
atp3129
Rp3130
sg8
I00
sg9
g2819
ssS'superpatriotic'
p3131
(dp3132
g3
g4
((lp3133
tp3134
Rp3135
sg8
I00
sg9
g3131
ssS'discolorations'
p3136
(dp3137
g3
g4
((lp3138
tp3139
Rp3140
sg8
I00
sg9
g3136
ssS'undergraduates'
p3141
(dp3142
g3
g4
((lp3143
tp3144
Rp3145
sg8
I00
sg9
g3141
ssS'preregistering'
p3146
(dp3147
g3
g4
((lp3148
tp3149
Rp3150
sg8
I00
sg9
g3146
ssS'subordinations'
p3151
(dp3152
g3
g4
((lp3153
tp3154
Rp3155
sg8
I00
sg9
g3151
ssS'binationalisms'
p3156
(dp3157
g3
g4
((lp3158
tp3159
Rp3160
sg8
I00
sg9
g3156
ssS'mathematically'
p3161
(dp3162
g3
g4
((lp3163
tp3164
Rp3165
sg8
I00
sg9
g3161
ssS'neighborliness'
p3166
(dp3167
g3
g4
((lp3168
tp3169
Rp3170
sg8
I00
sg9
g3166
ssS'counterfeiting'
p3171
(dp3172
g3
g4
((lp3173
tp3174
Rp3175
sg8
I00
sg9
g3171
ssS'victimizations'
p3176
(dp3177
g3
g4
((lp3178
tp3179
Rp3180
sg8
I00
sg9
g3176
ssS'discrimination'
p3181
(dp3182
g3
g4
((lp3183
tp3184
Rp3185
sg8
I00
sg9
g3181
ssS'meteorologists'
p3186
(dp3187
g3
g4
((lp3188
tp3189
Rp3190
sg8
I00
sg9
g3186
ssS'transparencies'
p3191
(dp3192
g3
g4
((lp3193
tp3194
Rp3195
sg8
I00
sg9
g3191
ssS'conceptualizes'
p3196
(dp3197
g3
g4
((lp3198
S'conceptualized'
p3199
atp3200
Rp3201
sg8
I00
sg9
g3196
ssS'requisitioning'
p3202
(dp3203
g3
g4
((lp3204
tp3205
Rp3206
sg8
I00
sg9
g3202
ssS'replenishments'
p3207
(dp3208
g3
g4
((lp3209
tp3210
Rp3211
sg8
I00
sg9
g3207
ssS'apprehensively'
p3212
(dp3213
g3
g4
((lp3214
tp3215
Rp3216
sg8
I00
sg9
g3212
ssS'underestimates'
p3217
(dp3218
g3
g4
((lp3219
S'underestimated'
p3220
atp3221
Rp3222
sg8
I00
sg9
g3217
ssS'comprehensions'
p3223
(dp3224
g3
g4
((lp3225
tp3226
Rp3227
sg8
I00
sg9
g3223
ssS'nonsignificant'
p3228
(dp3229
g3
g4
((lp3230
tp3231
Rp3232
sg8
I00
sg9
g3228
ssS'immovabilities'
p3233
(dp3234
g3
g4
((lp3235
tp3236
Rp3237
sg8
I00
sg9
g3233
ssg3199
(dp3238
g3
g4
((lp3239
g3196
atp3240
Rp3241
sg8
I00
sg9
g3199
ssS'sacrilegiously'
p3242
(dp3243
g3
g4
((lp3244
tp3245
Rp3246
sg8
I00
sg9
g3242
ssS'phosphorescent'
p3247
(dp3248
g3
g4
((lp3249
tp3250
Rp3251
sg8
I00
sg9
g3247
ssS'colloquialisms'
p3252
(dp3253
g3
g4
((lp3254
tp3255
Rp3256
sg8
I00
sg9
g3252
ssS'undomesticated'
p3257
(dp3258
g3
g4
((lp3259
tp3260
Rp3261
sg8
I00
sg9
g3257
ssS'oleomargarines'
p3262
(dp3263
g3
g4
((lp3264
tp3265
Rp3266
sg8
I00
sg9
g3262
ssS'impetuousities'
p3267
(dp3268
g3
g4
((lp3269
tp3270
Rp3271
sg8
I00
sg9
g3267
ssS'inappreciative'
p3272
(dp3273
g3
g4
((lp3274
tp3275
Rp3276
sg8
I00
sg9
g3272
ssS'cauterizations'
p3277
(dp3278
g3
g4
((lp3279
tp3280
Rp3281
sg8
I00
sg9
g3277
ssS'indispensables'
p3282
(dp3283
g3
g4
((lp3284
tp3285
Rp3286
sg8
I00
sg9
g3282
ssS'longitudinally'
p3287
(dp3288
g3
g4
((lp3289
tp3290
Rp3291
sg8
I00
sg9
g3287
ssS'overwhelmingly'
p3292
(dp3293
g3
g4
((lp3294
tp3295
Rp3296
sg8
I00
sg9
g3292
ssS'hypochondriacs'
p3297
(dp3298
g3
g4
((lp3299
tp3300
Rp3301
sg8
I00
sg9
g3297
ssS'impressiveness'
p3302
(dp3303
g3
g4
((lp3304
tp3305
Rp3306
sg8
I00
sg9
g3302
ssS'insolubilities'
p3307
(dp3308
g3
g4
((lp3309
tp3310
Rp3311
sg8
I00
sg9
g3307
ssS'constellations'
p3312
(dp3313
g3
g4
((lp3314
tp3315
Rp3316
sg8
I00
sg9
g3312
ssS'divisibilities'
p3317
(dp3318
g3
g4
((lp3319
tp3320
Rp3321
sg8
I00
sg9
g3317
ssS'overconcerning'
p3322
(dp3323
g3
g4
((lp3324
tp3325
Rp3326
sg8
I00
sg9
g3322
ssS'incapabilities'
p3327
(dp3328
g3
g4
((lp3329
tp3330
Rp3331
sg8
I00
sg9
g3327
ssS'headmistresses'
p3332
(dp3333
g3
g4
((lp3334
tp3335
Rp3336
sg8
I00
sg9
g3332
ssS'assassinations'
p3337
(dp3338
g3
g4
((lp3339
tp3340
Rp3341
sg8
I00
sg9
g3337
ssS'oversuspicious'
p3342
(dp3343
g3
g4
((lp3344
tp3345
Rp3346
sg8
I00
sg9
g3342
ssS'emasculatation'
p3347
(dp3348
g3
g4
((lp3349
tp3350
Rp3351
sg8
I00
sg9
g3347
ssS'woolgatherings'
p3352
(dp3353
g3
g4
((lp3354
tp3355
Rp3356
sg8
I00
sg9
g3352
ssS'misunderstands'
p3357
(dp3358
g3
g4
((lp3359
tp3360
Rp3361
sg8
I00
sg9
g3357
ssS'calamitousness'
p3362
(dp3363
g3
g4
((lp3364
tp3365
Rp3366
sg8
I00
sg9
g3362
ssg1431
(dp3367
g3
g4
((lp3368
g1428
atp3369
Rp3370
sg8
I00
sg9
g1431
ssS'professionally'
p3371
(dp3372
g3
g4
((lp3373
tp3374
Rp3375
sg8
I00
sg9
g3371
ssS'sentimentalize'
p3376
(dp3377
g3
g4
((lp3378
tp3379
Rp3380
sg8
I00
sg9
g3376
ssS'variablenesses'
p3381
(dp3382
g3
g4
((lp3383
tp3384
Rp3385
sg8
I00
sg9
g3381
ssS'overmedicating'
p3386
(dp3387
g3
g4
((lp3388
tp3389
Rp3390
sg8
I00
sg9
g3386
ssS'reconnaissance'
p3391
(dp3392
g3
g4
((lp3393
tp3394
Rp3395
sg8
I00
sg9
g3391
ssS'illegitimately'
p3396
(dp3397
g3
g4
((lp3398
tp3399
Rp3400
sg8
I00
sg9
g3396
ssS'impartialities'
p3401
(dp3402
g3
g4
((lp3403
tp3404
Rp3405
sg8
I00
sg9
g3401
ssS'fraternization'
p3406
(dp3407
g3
g4
((lp3408
tp3409
Rp3410
sg8
I00
sg9
g3406
ssS'pleasantnesses'
p3411
(dp3412
g3
g4
((lp3413
tp3414
Rp3415
sg8
I00
sg9
g3411
ssS'preparednesses'
p3416
(dp3417
g3
g4
((lp3418
tp3419
Rp3420
sg8
I00
sg9
g3416
ssS'unsatisfactory'
p3421
(dp3422
g3
g4
((lp3423
tp3424
Rp3425
sg8
I00
sg9
g3421
ssS'significations'
p3426
(dp3427
g3
g4
((lp3428
tp3429
Rp3430
sg8
I00
sg9
g3426
ssS'nonconflicting'
p3431
(dp3432
g3
g4
((lp3433
tp3434
Rp3435
sg8
I00
sg9
g3431
ssS'congratulation'
p3436
(dp3437
g3
g4
((lp3438
tp3439
Rp3440
sg8
I00
sg9
g3436
ssS'transgressions'
p3441
(dp3442
g3
g4
((lp3443
tp3444
Rp3445
sg8
I00
sg9
g3441
ssS'tranquillities'
p3446
(dp3447
g3
g4
((lp3448
tp3449
Rp3450
sg8
I00
sg9
g3446
ssS'explicitnesses'
p3451
(dp3452
g3
g4
((lp3453
tp3454
Rp3455
sg8
I00
sg9
g3451
ssS'reconsolidated'
p3456
(dp3457
g3
g4
((lp3458
S'reconsolidates'
p3459
atp3460
Rp3461
sg8
I00
sg9
g3456
ssS'parsimoniously'
p3462
(dp3463
g3
g4
((lp3464
tp3465
Rp3466
sg8
I00
sg9
g3462
ssS'articulateness'
p3467
(dp3468
g3
g4
((lp3469
tp3470
Rp3471
sg8
I00
sg9
g3467
ssS'reapportioning'
p3472
(dp3473
g3
g4
((lp3474
tp3475
Rp3476
sg8
I00
sg9
g3472
ssS'aggressiveness'
p3477
(dp3478
g3
g4
((lp3479
tp3480
Rp3481
sg8
I00
sg9
g3477
ssg3459
(dp3482
g3
g4
((lp3483
g3456
atp3484
Rp3485
sg8
I00
sg9
g3459
ssS'troubleshooted'
p3486
(dp3487
g3
g4
((lp3488
tp3489
Rp3490
sg8
I00
sg9
g3486
ssS'transshipments'
p3491
(dp3492
g3
g4
((lp3493
tp3494
Rp3495
sg8
I00
sg9
g3491
ssS'overoptimistic'
p3496
(dp3497
g3
g4
((lp3498
tp3499
Rp3500
sg8
I00
sg9
g3496
ssS'disillusioning'
p3501
(dp3502
g3
g4
((lp3503
tp3504
Rp3505
sg8
I00
sg9
g3501
ssS'nonspecialists'
p3506
(dp3507
g3
g4
((lp3508
tp3509
Rp3510
sg8
I00
sg9
g3506
ssS'prearrangement'
p3511
(dp3512
g3
g4
((lp3513
tp3514
Rp3515
sg8
I00
sg9
g3511
ssS'eccentricities'
p3516
(dp3517
g3
g4
((lp3518
tp3519
Rp3520
sg8
I00
sg9
g3516
ssS'prognosticator'
p3521
(dp3522
g3
g4
((lp3523
tp3524
Rp3525
sg8
I00
sg9
g3521
ssS'skillfulnesses'
p3526
(dp3527
g3
g4
((lp3528
tp3529
Rp3530
sg8
I00
sg9
g3526
ssS'psychoanalysis'
p3531
(dp3532
g3
g4
((lp3533
S'psychoanalyses'
p3534
aS'psychoanalysts'
p3535
atp3536
Rp3537
sg8
I00
sg9
g3531
ssS'restlessnesses'
p3538
(dp3539
g3
g4
((lp3540
tp3541
Rp3542
sg8
I00
sg9
g3538
ssS'habitualnesses'
p3543
(dp3544
g3
g4
((lp3545
tp3546
Rp3547
sg8
I00
sg9
g3543
ssS'administration'
p3548
(dp3549
g3
g4
((lp3550
tp3551
Rp3552
sg8
I00
sg9
g3548
ssS'strangulations'
p3553
(dp3554
g3
g4
((lp3555
tp3556
Rp3557
sg8
I00
sg9
g3553
ssS'nonchurchgoers'
p3558
(dp3559
g3
g4
((lp3560
tp3561
Rp3562
sg8
I00
sg9
g3558
ssS'authentication'
p3563
(dp3564
g3
g4
((lp3565
tp3566
Rp3567
sg8
I00
sg9
g3563
ssS'conglomerating'
p3568
(dp3569
g3
g4
((lp3570
tp3571
Rp3572
sg8
I00
sg9
g3568
ssS'nonconformists'
p3573
(dp3574
g3
g4
((lp3575
tp3576
Rp3577
sg8
I00
sg9
g3573
ssS'preconceptions'
p3578
(dp3579
g3
g4
((lp3580
tp3581
Rp3582
sg8
I00
sg9
g3578
ssS'mannerlinesses'
p3583
(dp3584
g3
g4
((lp3585
tp3586
Rp3587
sg8
I00
sg9
g3583
ssS'intercommunity'
p3588
(dp3589
g3
g4
((lp3590
tp3591
Rp3592
sg8
I00
sg9
g3588
ssS'cheerfulnesses'
p3593
(dp3594
g3
g4
((lp3595
tp3596
Rp3597
sg8
I00
sg9
g3593
ssS'illegitimacies'
p3598
(dp3599
g3
g4
((lp3600
tp3601
Rp3602
sg8
I00
sg9
g3598
ssS'unconventional'
p3603
(dp3604
g3
g4
((lp3605
tp3606
Rp3607
sg8
I00
sg9
g3603
ssS'initialization'
p3608
(dp3609
g3
g4
((lp3610
tp3611
Rp3612
sg8
I00
sg9
g3608
ssS'qualifications'
p3613
(dp3614
g3
g4
((lp3615
tp3616
Rp3617
sg8
I00
sg9
g3613
ssS'expressiveness'
p3618
(dp3619
g3
g4
((lp3620
tp3621
Rp3622
sg8
I00
sg9
g3618
ssS'symbolizations'
p3623
(dp3624
g3
g4
((lp3625
tp3626
Rp3627
sg8
I00
sg9
g3623
ssS'indivisibility'
p3628
(dp3629
g3
g4
((lp3630
tp3631
Rp3632
sg8
I00
sg9
g3628
ssS'unintelligible'
p3633
(dp3634
g3
g4
((lp3635
S'unintelligibly'
p3636
atp3637
Rp3638
sg8
I00
sg9
g3633
ssS'adaptabilities'
p3639
(dp3640
g3
g4
((lp3641
tp3642
Rp3643
sg8
I00
sg9
g3639
ssS'biochemistries'
p3644
(dp3645
g3
g4
((lp3646
tp3647
Rp3648
sg8
I00
sg9
g3644
ssS'recriminations'
p3649
(dp3650
g3
g4
((lp3651
tp3652
Rp3653
sg8
I00
sg9
g3649
ssS'cavaliernesses'
p3654
(dp3655
g3
g4
((lp3656
tp3657
Rp3658
sg8
I00
sg9
g3654
ssS'disorderliness'
p3659
(dp3660
g3
g4
((lp3661
tp3662
Rp3663
sg8
I00
sg9
g3659
ssg2426
(dp3664
g3
g4
((lp3665
g3534
ag2423
atp3666
Rp3667
sg8
I00
sg9
g2426
ssS'watchfulnesses'
p3668
(dp3669
g3
g4
((lp3670
tp3671
Rp3672
sg8
I00
sg9
g3668
ssS'counterassault'
p3673
(dp3674
g3
g4
((lp3675
tp3676
Rp3677
sg8
I00
sg9
g3673
ssS'overemphasized'
p3678
(dp3679
g3
g4
((lp3680
S'overemphasizes'
p3681
atp3682
Rp3683
sg8
I00
sg9
g3678
ssS'gerrymandering'
p3684
(dp3685
g3
g4
((lp3686
tp3687
Rp3688
sg8
I00
sg9
g3684
ssS'visualizations'
p3689
(dp3690
g3
g4
((lp3691
tp3692
Rp3693
sg8
I00
sg9
g3689
ssS'disfigurements'
p3694
(dp3695
g3
g4
((lp3696
tp3697
Rp3698
sg8
I00
sg9
g3694
ssS'lightheartedly'
p3699
(dp3700
g3
g4
((lp3701
tp3702
Rp3703
sg8
I00
sg9
g3699
ssS'embarrassments'
p3704
(dp3705
g3
g4
((lp3706
tp3707
Rp3708
sg8
I00
sg9
g3704
ssS'slaughterhouse'
p3709
(dp3710
g3
g4
((lp3711
tp3712
Rp3713
sg8
I00
sg9
g3709
ssS'constitutional'
p3714
(dp3715
g3
g4
((lp3716
tp3717
Rp3718
sg8
I00
sg9
g3714
ssS'trigonometries'
p3719
(dp3720
g3
g4
((lp3721
tp3722
Rp3723
sg8
I00
sg9
g3719
ssS'homesicknesses'
p3724
(dp3725
g3
g4
((lp3726
tp3727
Rp3728
sg8
I00
sg9
g3724
ssS'reliablenesses'
p3729
(dp3730
g3
g4
((lp3731
tp3732
Rp3733
sg8
I00
sg9
g3729
ssS'socializations'
p3734
(dp3735
g3
g4
((lp3736
tp3737
Rp3738
sg8
I00
sg9
g3734
ssS'hysterectomies'
p3739
(dp3740
g3
g4
((lp3741
tp3742
Rp3743
sg8
I00
sg9
g3739
ssS'subjectivities'
p3744
(dp3745
g3
g4
((lp3746
tp3747
Rp3748
sg8
I00
sg9
g3744
ssS'allusivenesses'
p3749
(dp3750
g3
g4
((lp3751
tp3752
Rp3753
sg8
I00
sg9
g3749
ssS'pronouncements'
p3754
(dp3755
g3
g4
((lp3756
tp3757
Rp3758
sg8
I00
sg9
g3754
ssS'inadvisability'
p3759
(dp3760
g3
g4
((lp3761
tp3762
Rp3763
sg8
I00
sg9
g3759
ssS'discourteously'
p3764
(dp3765
g3
g4
((lp3766
tp3767
Rp3768
sg8
I00
sg9
g3764
ssS'entertainments'
p3769
(dp3770
g3
g4
((lp3771
tp3772
Rp3773
sg8
I00
sg9
g3769
ssS'passionateless'
p3774
(dp3775
g3
g4
((lp3776
tp3777
Rp3778
sg8
I00
sg9
g3774
ssS'prearraignment'
p3779
(dp3780
g3
g4
((lp3781
tp3782
Rp3783
sg8
I00
sg9
g3779
ssS'inarticulately'
p3784
(dp3785
g3
g4
((lp3786
tp3787
Rp3788
sg8
I00
sg9
g3784
ssS'valedictorians'
p3789
(dp3790
g3
g4
((lp3791
tp3792
Rp3793
sg8
I00
sg9
g3789
ssS'emulsification'
p3794
(dp3795
g3
g4
((lp3796
tp3797
Rp3798
sg8
I00
sg9
g3794
ssS'mountaineering'
p3799
(dp3800
g3
g4
((lp3801
tp3802
Rp3803
sg8
I00
sg9
g3799
ssS'manageableness'
p3804
(dp3805
g3
g4
((lp3806
tp3807
Rp3808
sg8
I00
sg9
g3804
ssS'reincarnations'
p3809
(dp3810
g3
g4
((lp3811
tp3812
Rp3813
sg8
I00
sg9
g3809
ssS'preinoculation'
p3814
(dp3815
g3
g4
((lp3816
tp3817
Rp3818
sg8
I00
sg9
g3814
ssS'extinguishable'
p3819
(dp3820
g3
g4
((lp3821
tp3822
Rp3823
sg8
I00
sg9
g3819
ssS'perspicacities'
p3824
(dp3825
g3
g4
((lp3826
tp3827
Rp3828
sg8
I00
sg9
g3824
ssS'choreographers'
p3829
(dp3830
g3
g4
((lp3831
tp3832
Rp3833
sg8
I00
sg9
g3829
ssS'harmoniousness'
p3834
(dp3835
g3
g4
((lp3836
tp3837
Rp3838
sg8
I00
sg9
g3834
ssS'hypocritically'
p3839
(dp3840
g3
g4
((lp3841
tp3842
Rp3843
sg8
I00
sg9
g3839
ssS'companionships'
p3844
(dp3845
g3
g4
((lp3846
tp3847
Rp3848
sg8
I00
sg9
g3844
ssS'retrievability'
p3849
(dp3850
g3
g4
((lp3851
tp3852
Rp3853
sg8
I00
sg9
g3849
ssS'antiannexation'
p3854
(dp3855
g3
g4
((lp3856
tp3857
Rp3858
sg8
I00
sg9
g3854
ssS'authorizations'
p3859
(dp3860
g3
g4
((lp3861
tp3862
Rp3863
sg8
I00
sg9
g3859
ssS'mournfulnesses'
p3864
(dp3865
g3
g4
((lp3866
tp3867
Rp3868
sg8
I00
sg9
g3864
ssS'advertisements'
p3869
(dp3870
g3
g4
((lp3871
tp3872
Rp3873
sg8
I00
sg9
g3869
ssS'counterrallies'
p3874
(dp3875
g3
g4
((lp3876
tp3877
Rp3878
sg8
I00
sg9
g3874
ssS'countercharges'
p3879
(dp3880
g3
g4
((lp3881
tp3882
Rp3883
sg8
I00
sg9
g3879
ssS'indecorousness'
p3884
(dp3885
g3
g4
((lp3886
tp3887
Rp3888
sg8
I00
sg9
g3884
ssS'thermodynamics'
p3889
(dp3890
g3
g4
((lp3891
tp3892
Rp3893
sg8
I00
sg9
g3889
ssS'desirabilities'
p3894
(dp3895
g3
g4
((lp3896
tp3897
Rp3898
sg8
I00
sg9
g3894
ssS'headquartering'
p3899
(dp3900
g3
g4
((lp3901
tp3902
Rp3903
sg8
I00
sg9
g3899
ssS'incorporations'
p3904
(dp3905
g3
g4
((lp3906
tp3907
Rp3908
sg8
I00
sg9
g3904
ssS'oceanographers'
p3909
(dp3910
g3
g4
((lp3911
tp3912
Rp3913
sg8
I00
sg9
g3909
ssS'comprehensible'
p3914
(dp3915
g3
g4
((lp3916
tp3917
Rp3918
sg8
I00
sg9
g3914
ssS'overcompensate'
p3919
(dp3920
g3
g4
((lp3921
tp3922
Rp3923
sg8
I00
sg9
g3919
ssS'cultivatations'
p3924
(dp3925
g3
g4
((lp3926
tp3927
Rp3928
sg8
I00
sg9
g3924
ssS'microbiologies'
p3929
(dp3930
g3
g4
((lp3931
tp3932
Rp3933
sg8
I00
sg9
g3929
ssS'administrative'
p3934
(dp3935
g3
g4
((lp3936
tp3937
Rp3938
sg8
I00
sg9
g3934
ssS'transformation'
p3939
(dp3940
g3
g4
((lp3941
tp3942
Rp3943
sg8
I00
sg9
g3939
ssS'nonradioactive'
p3944
(dp3945
g3
g4
((lp3946
tp3947
Rp3948
sg8
I00
sg9
g3944
ssS'relativenesses'
p3949
(dp3950
g3
g4
((lp3951
tp3952
Rp3953
sg8
I00
sg9
g3949
ssS'extraplanetary'
p3954
(dp3955
g3
g4
((lp3956
tp3957
Rp3958
sg8
I00
sg9
g3954
ssS'overcapitalize'
p3959
(dp3960
g3
g4
((lp3961
tp3962
Rp3963
sg8
I00
sg9
g3959
ssS'electromagnets'
p3964
(dp3965
g3
g4
((lp3966
tp3967
Rp3968
sg8
I00
sg9
g3964
ssS'clannishnesses'
p3969
(dp3970
g3
g4
((lp3971
tp3972
Rp3973
sg8
I00
sg9
g3969
ssS'redistributing'
p3974
(dp3975
g3
g4
((lp3976
tp3977
Rp3978
sg8
I00
sg9
g3974
ssg3681
(dp3979
g3
g4
((lp3980
g3678
atp3981
Rp3982
sg8
I00
sg9
g3681
ssS'microcomputers'
p3983
(dp3984
g3
g4
((lp3985
tp3986
Rp3987
sg8
I00
sg9
g3983
ssS'discriminatory'
p3988
(dp3989
g3
g4
((lp3990
tp3991
Rp3992
sg8
I00
sg9
g3988
ssS'hypersensitive'
p3993
(dp3994
g3
g4
((lp3995
tp3996
Rp3997
sg8
I00
sg9
g3993
ssS'commemorations'
p3998
(dp3999
g3
g4
((lp4000
tp4001
Rp4002
sg8
I00
sg9
g3998
ssg3220
(dp4003
g3
g4
((lp4004
g3217
atp4005
Rp4006
sg8
I00
sg9
g3220
ssS'incandescences'
p4007
(dp4008
g3
g4
((lp4009
tp4010
Rp4011
sg8
I00
sg9
g4007
ssS'nonenforcement'
p4012
(dp4013
g3
g4
((lp4014
tp4015
Rp4016
sg8
I00
sg9
g4012
ssS'hallucinations'
p4017
(dp4018
g3
g4
((lp4019
tp4020
Rp4021
sg8
I00
sg9
g4017
ssS'overpermissive'
p4022
(dp4023
g3
g4
((lp4024
tp4025
Rp4026
sg8
I00
sg9
g4022
ssS'nonconsecutive'
p4027
(dp4028
g3
g4
((lp4029
tp4030
Rp4031
sg8
I00
sg9
g4027
ssS'countereffects'
p4032
(dp4033
g3
g4
((lp4034
tp4035
Rp4036
sg8
I00
sg9
g4032
ssS'improvisations'
p4037
(dp4038
g3
g4
((lp4039
tp4040
Rp4041
sg8
I00
sg9
g4037
ssS'counterembargo'
p4042
(dp4043
g3
g4
((lp4044
tp4045
Rp4046
sg8
I00
sg9
g4042
ssS'disinclination'
p4047
(dp4048
g3
g4
((lp4049
tp4050
Rp4051
sg8
I00
sg9
g4047
ssS'cabinetmakings'
p4052
(dp4053
g3
g4
((lp4054
tp4055
Rp4056
sg8
I00
sg9
g4052
ssS'antiliberalism'
p4057
(dp4058
g3
g4
((lp4059
tp4060
Rp4061
sg8
I00
sg9
g4057
ssS'perfectibility'
p4062
(dp4063
g3
g4
((lp4064
tp4065
Rp4066
sg8
I00
sg9
g4062
ssS'repressurizing'
p4067
(dp4068
g3
g4
((lp4069
tp4070
Rp4071
sg8
I00
sg9
g4067
ssS'intermittently'
p4072
(dp4073
g3
g4
((lp4074
tp4075
Rp4076
sg8
I00
sg9
g4072
ssS'communications'
p4077
(dp4078
g3
g4
((lp4079
tp4080
Rp4081
sg8
I00
sg9
g4077
ssS'sportsmanships'
p4082
(dp4083
g3
g4
((lp4084
tp4085
Rp4086
sg8
I00
sg9
g4082
ssS'antigovernment'
p4087
(dp4088
g3
g4
((lp4089
tp4090
Rp4091
sg8
I00
sg9
g4087
ssS'mindlessnesses'
p4092
(dp4093
g3
g4
((lp4094
tp4095
Rp4096
sg8
I00
sg9
g4092
ssS'minirecessions'
p4097
(dp4098
g3
g4
((lp4099
tp4100
Rp4101
sg8
I00
sg9
g4097
ssS'archaeological'
p4102
(dp4103
g3
g4
((lp4104
tp4105
Rp4106
sg8
I00
sg9
g4102
ssg3636
(dp4107
g3
g4
((lp4108
g3633
atp4109
Rp4110
sg8
I00
sg9
g3636
ssS'scientifically'
p4111
(dp4112
g3
g4
((lp4113
tp4114
Rp4115
sg8
I00
sg9
g4111
ssS'randomizations'
p4116
(dp4117
g3
g4
((lp4118
tp4119
Rp4120
sg8
I00
sg9
g4116
ssS'superintendent'
p4121
(dp4122
g3
g4
((lp4123
tp4124
Rp4125
sg8
I00
sg9
g4121
ssS'thankfulnesses'
p4126
(dp4127
g3
g4
((lp4128
tp4129
Rp4130
sg8
I00
sg9
g4126
ssS'circumscribing'
p4131
(dp4132
g3
g4
((lp4133
tp4134
Rp4135
sg8
I00
sg9
g4131
ssS'effervescently'
p4136
(dp4137
g3
g4
((lp4138
tp4139
Rp4140
sg8
I00
sg9
g4136
ssS'sledgehammered'
p4141
(dp4142
g3
g4
((lp4143
tp4144
Rp4145
sg8
I00
sg9
g4141
ssS'superambitious'
p4146
(dp4147
g3
g4
((lp4148
tp4149
Rp4150
sg8
I00
sg9
g4146
ssS'glorifications'
p4151
(dp4152
g3
g4
((lp4153
tp4154
Rp4155
sg8
I00
sg9
g4151
ssS'approximations'
p4156
(dp4157
g3
g4
((lp4158
tp4159
Rp4160
sg8
I00
sg9
g4156
ssS'proportionally'
p4161
(dp4162
g3
g4
((lp4163
tp4164
Rp4165
sg8
I00
sg9
g4161
ssS'underdeveloped'
p4166
(dp4167
g3
g4
((lp4168
tp4169
Rp4170
sg8
I00
sg9
g4166
ssS'underexposures'
p4171
(dp4172
g3
g4
((lp4173
tp4174
Rp4175
sg8
I00
sg9
g4171
ssS'inadvertencies'
p4176
(dp4177
g3
g4
((lp4178
tp4179
Rp4180
sg8
I00
sg9
g4176
ssS'accuratenesses'
p4181
(dp4182
g3
g4
((lp4183
tp4184
Rp4185
sg8
I00
sg9
g4181
ssS'antimanagement'
p4186
(dp4187
g3
g4
((lp4188
tp4189
Rp4190
sg8
I00
sg9
g4186
ssS'occupationally'
p4191
(dp4192
g3
g4
((lp4193
tp4194
Rp4195
sg8
I00
sg9
g4191
ssS'positivenesses'
p4196
(dp4197
g3
g4
((lp4198
tp4199
Rp4200
sg8
I00
sg9
g4196
ssS'presterilizing'
p4201
(dp4202
g3
g4
((lp4203
tp4204
Rp4205
sg8
I00
sg9
g4201
ssS'noncombustible'
p4206
(dp4207
g3
g4
((lp4208
tp4209
Rp4210
sg8
I00
sg9
g4206
ssS'philanthropies'
p4211
(dp4212
g3
g4
((lp4213
tp4214
Rp4215
sg8
I00
sg9
g4211
ssS'friendlinesses'
p4216
(dp4217
g3
g4
((lp4218
tp4219
Rp4220
sg8
I00
sg9
g4216
ssS'pluralizations'
p4221
(dp4222
g3
g4
((lp4223
tp4224
Rp4225
sg8
I00
sg9
g4221
ssS'ornamentations'
p4226
(dp4227
g3
g4
((lp4228
tp4229
Rp4230
sg8
I00
sg9
g4226
ssS'tiresomenesses'
p4231
(dp4232
g3
g4
((lp4233
tp4234
Rp4235
sg8
I00
sg9
g4231
ssS'laughingstocks'
p4236
(dp4237
g3
g4
((lp4238
tp4239
Rp4240
sg8
I00
sg9
g4236
ssS'overapologetic'
p4241
(dp4242
g3
g4
((lp4243
tp4244
Rp4245
sg8
I00
sg9
g4241
ssg3534
(dp4246
g3
g4
((lp4247
g3531
ag2426
ag3535
atp4248
Rp4249
sg8
I00
sg9
g3534
ssS'emancipatation'
p4250
(dp4251
g3
g4
((lp4252
tp4253
Rp4254
sg8
I00
sg9
g4250
ssS'rightfulnesses'
p4255
(dp4256
g3
g4
((lp4257
tp4258
Rp4259
sg8
I00
sg9
g4255
ssS'thoroughnesses'
p4260
(dp4261
g3
g4
((lp4262
tp4263
Rp4264
sg8
I00
sg9
g4260
ssS'indoctrination'
p4265
(dp4266
g3
g4
((lp4267
tp4268
Rp4269
sg8
I00
sg9
g4265
ssS'electroplating'
p4270
(dp4271
g3
g4
((lp4272
tp4273
Rp4274
sg8
I00
sg9
g4270
ssS'claustrophobia'
p4275
(dp4276
g3
g4
((lp4277
tp4278
Rp4279
sg8
I00
sg9
g4275
ssS'nondestructive'
p4280
(dp4281
g3
g4
((lp4282
tp4283
Rp4284
sg8
I00
sg9
g4280
ssS'understandings'
p4285
(dp4286
g3
g4
((lp4287
tp4288
Rp4289
sg8
I00
sg9
g4285
ssS'haberdasheries'
p4290
(dp4291
g3
g4
((lp4292
tp4293
Rp4294
sg8
I00
sg9
g4290
ssS'inconsequences'
p4295
(dp4296
g3
g4
((lp4297
tp4298
Rp4299
sg8
I00
sg9
g4295
ssS'intermarriages'
p4300
(dp4301
g3
g4
((lp4302
tp4303
Rp4304
sg8
I00
sg9
g4300
ssg340
(dp4305
g3
g4
((lp4306
g337
atp4307
Rp4308
sg8
I00
sg9
g340
ssS'philosophizing'
p4309
(dp4310
g3
g4
((lp4311
tp4312
Rp4313
sg8
I00
sg9
g4309
ssS'butterscotches'
p4314
(dp4315
g3
g4
((lp4316
tp4317
Rp4318
sg8
I00
sg9
g4314
ssS'preoperational'
p4319
(dp4320
g3
g4
((lp4321
tp4322
Rp4323
sg8
I00
sg9
g4319
ssS'postadolescent'
p4324
(dp4325
g3
g4
((lp4326
tp4327
Rp4328
sg8
I00
sg9
g4324
ssS'malfunctioning'
p4329
(dp4330
g3
g4
((lp4331
tp4332
Rp4333
sg8
I00
sg9
g4329
ssS'chrysanthemums'
p4334
(dp4335
g3
g4
((lp4336
tp4337
Rp4338
sg8
I00
sg9
g4334
ssg960
(dp4339
g3
g4
((lp4340
g957
atp4341
Rp4342
sg8
I00
sg9
g960
ssS'subcommunities'
p4343
(dp4344
g3
g4
((lp4345
tp4346
Rp4347
sg8
I00
sg9
g4343
ssS'pasteurization'
p4348
(dp4349
g3
g4
((lp4350
tp4351
Rp4352
sg8
I00
sg9
g4348
ssS'chancellorship'
p4353
(dp4354
g3
g4
((lp4355
tp4356
Rp4357
sg8
I00
sg9
g4353
ssS'beatifications'
p4358
(dp4359
g3
g4
((lp4360
tp4361
Rp4362
sg8
I00
sg9
g4358
ssS'interpretative'
p4363
(dp4364
g3
g4
((lp4365
tp4366
Rp4367
sg8
I00
sg9
g4363
ssS'oceanographies'
p4368
(dp4369
g3
g4
((lp4370
tp4371
Rp4372
sg8
I00
sg9
g4368
ssS'ungratefulness'
p4373
(dp4374
g3
g4
((lp4375
tp4376
Rp4377
sg8
I00
sg9
g4373
ssS'togethernesses'
p4378
(dp4379
g3
g4
((lp4380
tp4381
Rp4382
sg8
I00
sg9
g4378
ssg437
(dp4383
g3
g4
((lp4384
g434
atp4385
Rp4386
sg8
I00
sg9
g437
ssS'kindergartners'
p4387
(dp4388
g3
g4
((lp4389
tp4390
Rp4391
sg8
I00
sg9
g4387
ssS'nonaggressions'
p4392
(dp4393
g3
g4
((lp4394
tp4395
Rp4396
sg8
I00
sg9
g4392
ssS'workablenesses'
p4397
(dp4398
g3
g4
((lp4399
tp4400
Rp4401
sg8
I00
sg9
g4397
ssS'desegregations'
p4402
(dp4403
g3
g4
((lp4404
tp4405
Rp4406
sg8
I00
sg9
g4402
ssS'culminatations'
p4407
(dp4408
g3
g4
((lp4409
tp4410
Rp4411
sg8
I00
sg9
g4407
ssS'gracefulnesses'
p4412
(dp4413
g3
g4
((lp4414
S'gratefulnesses'
p4415
atp4416
Rp4417
sg8
I00
sg9
g4412
ssg924
(dp4418
g3
g4
((lp4419
g921
atp4420
Rp4421
sg8
I00
sg9
g924
ssS'dermatologists'
p4422
(dp4423
g3
g4
((lp4424
tp4425
Rp4426
sg8
I00
sg9
g4422
ssS'unidirectional'
p4427
(dp4428
g3
g4
((lp4429
tp4430
Rp4431
sg8
I00
sg9
g4427
ssS'aeronautically'
p4432
(dp4433
g3
g4
((lp4434
tp4435
Rp4436
sg8
I00
sg9
g4432
ssS'concentrations'
p4437
(dp4438
g3
g4
((lp4439
tp4440
Rp4441
sg8
I00
sg9
g4437
ssS'prohibitionist'
p4442
(dp4443
g3
g4
((lp4444
tp4445
Rp4446
sg8
I00
sg9
g4442
ssS'truthfulnesses'
p4447
(dp4448
g3
g4
((lp4449
tp4450
Rp4451
sg8
I00
sg9
g4447
ssS'mollifications'
p4452
(dp4453
g3
g4
((lp4454
tp4455
Rp4456
sg8
I00
sg9
g4452
ssS'ornithologists'
p4457
(dp4458
g3
g4
((lp4459
tp4460
Rp4461
sg8
I00
sg9
g4457
ssS'subspecialties'
p4462
(dp4463
g3
g4
((lp4464
tp4465
Rp4466
sg8
I00
sg9
g4462
ssg4415
(dp4467
g3
g4
((lp4468
g4412
atp4469
Rp4470
sg8
I00
sg9
g4415
ssS'superintending'
p4471
(dp4472
g3
g4
((lp4473
tp4474
Rp4475
sg8
I00
sg9
g4471
ssS'neurologically'
p4476
(dp4477
g3
g4
((lp4478
tp4479
Rp4480
sg8
I00
sg9
g4476
ssS'stultification'
p4481
(dp4482
g3
g4
((lp4483
tp4484
Rp4485
sg8
I00
sg9
g4481
ssS'stratification'
p4486
(dp4487
g3
g4
((lp4488
tp4489
Rp4490
sg8
I00
sg9
g4486
ssS'gregariousness'
p4491
(dp4492
g3
g4
((lp4493
tp4494
Rp4495
sg8
I00
sg9
g4491
ssg3535
(dp4496
g3
g4
((lp4497
g3534
ag3531
atp4498
Rp4499
sg8
I00
sg9
g3535
ssS'chivalrousness'
p4500
(dp4501
g3
g4
((lp4502
tp4503
Rp4504
sg8
I00
sg9
g4500
ssg1072
(dp4505
g3
g4
((lp4506
g1069
atp4507
Rp4508
sg8
I00
sg9
g1072
ssS'relinquishment'
p4509
(dp4510
g3
g4
((lp4511
tp4512
Rp4513
sg8
I00
sg9
g4509
ssS'choreographies'
p4514
(dp4515
g3
g4
((lp4516
tp4517
Rp4518
sg8
I00
sg9
g4514
ssS'electrocutions'
p4519
(dp4520
g3
g4
((lp4521
tp4522
Rp4523
sg8
I00
sg9
g4519
ssS'hallucinogenic'
p4524
(dp4525
g3
g4
((lp4526
tp4527
Rp4528
sg8
I00
sg9
g4524
ssS'counterarguing'
p4529
(dp4530
g3
g4
((lp4531
tp4532
Rp4533
sg8
I00
sg9
g4529
ssS'aggrandizement'
p4534
(dp4535
g3
g4
((lp4536
tp4537
Rp4538
sg8
I00
sg9
g4534
ssg1645
(dp4539
g3
g4
((lp4540
g1642
atp4541
Rp4542
sg8
I00
sg9
g1645
ssS'pharmaceutical'
p4543
(dp4544
g3
g4
((lp4545
tp4546
Rp4547
sg8
I00
sg9
g4543
ssg3021
(dp4548
g3
g4
((lp4549
g3018
atp4550
Rp4551
sg8
I00
sg9
g3021
ssS'categorization'
p4552
(dp4553
g3
g4
((lp4554
tp4555
Rp4556
sg8
I00
sg9
g4552
ssS'decisivenesses'
p4557
(dp4558
g3
g4
((lp4559
tp4560
Rp4561
sg8
I00
sg9
g4557
ssS'distinctnesses'
p4562
(dp4563
g3
g4
((lp4564
tp4565
Rp4566
sg8
I00
sg9
g4562
ssS'reconnoitering'
p4567
(dp4568
g3
g4
((lp4569
tp4570
Rp4571
sg8
I00
sg9
g4567
ssS'inexpertnesses'
p4572
(dp4573
g3
g4
((lp4574
tp4575
Rp4576
sg8
I00
sg9
g4572
ssS'overcorrecting'
p4577
(dp4578
g3
g4
((lp4579
tp4580
Rp4581
sg8
I00
sg9
g4577
ssS'accountability'
p4582
(dp4583
g3
g4
((lp4584
tp4585
Rp4586
sg8
I00
sg9
g4582
ssS'extravehicular'
p4587
(dp4588
g3
g4
((lp4589
tp4590
Rp4591
sg8
I00
sg9
g4587
ssS'encouragements'
p4592
(dp4593
g3
g4
((lp4594
tp4595
Rp4596
sg8
I00
sg9
g4592
ssS'childishnesses'
p4597
(dp4598
g3
g4
((lp4599
tp4600
Rp4601
sg8
I00
sg9
g4597
ssS'predesignation'
p4602
(dp4603
g3
g4
((lp4604
tp4605
Rp4606
sg8
I00
sg9
g4602
ssS'bibliographers'
p4607
(dp4608
g3
g4
((lp4609
tp4610
Rp4611
sg8
I00
sg9
g4607
ssS'copartnerships'
p4612
(dp4613
g3
g4
((lp4614
tp4615
Rp4616
sg8
I00
sg9
g4612
ssS'hippopotamuses'
p4617
(dp4618
g3
g4
((lp4619
tp4620
Rp4621
sg8
I00
sg9
g4617
ssS'disfranchising'
p4622
(dp4623
g3
g4
((lp4624
tp4625
Rp4626
sg8
I00
sg9
g4622
ssS'postretirement'
p4627
(dp4628
g3
g4
((lp4629
tp4630
Rp4631
sg8
I00
sg9
g4627
ssS'extemporaneous'
p4632
(dp4633
g3
g4
((lp4634
tp4635
Rp4636
sg8
I00
sg9
g4632
ssS'municipalities'
p4637
(dp4638
g3
g4
((lp4639
tp4640
Rp4641
sg8
I00
sg9
g4637
ssS'antimilitarism'
p4642
(dp4643
g3
g4
((lp4644
S'antimilitarist'
p4645
atp4646
Rp4647
sg8
I00
sg9
g4642
ssS'melodramatists'
p4648
(dp4649
g3
g4
((lp4650
tp4651
Rp4652
sg8
I00
sg9
g4648
ssS'understandably'
p4653
(dp4654
g3
g4
((lp4655
S'understandable'
p4656
atp4657
Rp4658
sg8
I00
sg9
g4653
ssS'ambidextrously'
p4659
(dp4660
g3
g4
((lp4661
tp4662
Rp4663
sg8
I00
sg9
g4659
ssS'incriminations'
p4664
(dp4665
g3
g4
((lp4666
tp4667
Rp4668
sg8
I00
sg9
g4664
ssS'administrators'
p4669
(dp4670
g3
g4
((lp4671
tp4672
Rp4673
sg8
I00
sg9
g4669
ssS'fluoroscopists'
p4674
(dp4675
g3
g4
((lp4676
tp4677
Rp4678
sg8
I00
sg9
g4674
ssg4656
(dp4679
g3
g4
((lp4680
g4653
atp4681
Rp4682
sg8
I00
sg9
g4656
ssS'nonrecoverable'
p4683
(dp4684
g3
g4
((lp4685
tp4686
Rp4687
sg8
I00
sg9
g4683
ssS'prognosticated'
p4688
(dp4689
g3
g4
((lp4690
S'prognosticates'
p4691
atp4692
Rp4693
sg8
I00
sg9
g4688
ssS'contemptuously'
p4694
(dp4695
g3
g4
((lp4696
tp4697
Rp4698
sg8
I00
sg9
g4694
ssg4645
(dp4699
g3
g4
((lp4700
g4642
atp4701
Rp4702
sg8
I00
sg9
g4645
ssS'mispronouncing'
p4703
(dp4704
g3
g4
((lp4705
tp4706
Rp4707
sg8
I00
sg9
g4703
ssS'subcontractors'
p4708
(dp4709
g3
g4
((lp4710
tp4711
Rp4712
sg8
I00
sg9
g4708
ssS'internationals'
p4713
(dp4714
g3
g4
((lp4715
tp4716
Rp4717
sg8
I00
sg9
g4713
ssg2974
(dp4718
g3
g4
((lp4719
g2971
atp4720
Rp4721
sg8
I00
sg9
g2974
ssS'circumstantial'
p4722
(dp4723
g3
g4
((lp4724
tp4725
Rp4726
sg8
I00
sg9
g4722
ssS'antiseptically'
p4727
(dp4728
g3
g4
((lp4729
tp4730
Rp4731
sg8
I00
sg9
g4727
ssS'microorganisms'
p4732
(dp4733
g3
g4
((lp4734
tp4735
Rp4736
sg8
I00
sg9
g4732
ssS'acupuncturists'
p4737
(dp4738
g3
g4
((lp4739
tp4740
Rp4741
sg8
I00
sg9
g4737
ssS'lexicographers'
p4742
(dp4743
g3
g4
((lp4744
tp4745
Rp4746
sg8
I00
sg9
g4742
ssS'characteristic'
p4747
(dp4748
g3
g4
((lp4749
tp4750
Rp4751
sg8
I00
sg9
g4747
ssS'recirculations'
p4752
(dp4753
g3
g4
((lp4754
tp4755
Rp4756
sg8
I00
sg9
g4752
ssS'overamplifying'
p4757
(dp4758
g3
g4
((lp4759
tp4760
Rp4761
sg8
I00
sg9
g4757
ssS'condescensions'
p4762
(dp4763
g3
g4
((lp4764
tp4765
Rp4766
sg8
I00
sg9
g4762
ssS'idiosyncrasies'
p4767
(dp4768
g3
g4
((lp4769
tp4770
Rp4771
sg8
I00
sg9
g4767
ssS'antisubversive'
p4772
(dp4773
g3
g4
((lp4774
tp4775
Rp4776
sg8
I00
sg9
g4772
ssS'gratifications'
p4777
(dp4778
g3
g4
((lp4779
tp4780
Rp4781
sg8
I00
sg9
g4777
ssS'hypercalcemias'
p4782
(dp4783
g3
g4
((lp4784
tp4785
Rp4786
sg8
I00
sg9
g4782
ssS'geneologically'
p4787
(dp4788
g3
g4
((lp4789
tp4790
Rp4791
sg8
I00
sg9
g4787
ssS'reorchestrates'
p4792
(dp4793
g3
g4
((lp4794
S'reorchestrated'
p4795
atp4796
Rp4797
sg8
I00
sg9
g4792
ssS'overstretching'
p4798
(dp4799
g3
g4
((lp4800
tp4801
Rp4802
sg8
I00
sg9
g4798
ssS'revaccinations'
p4803
(dp4804
g3
g4
((lp4805
tp4806
Rp4807
sg8
I00
sg9
g4803
ssS'excruciatingly'
p4808
(dp4809
g3
g4
((lp4810
tp4811
Rp4812
sg8
I00
sg9
g4808
ssS'heedlessnesses'
p4813
(dp4814
g3
g4
((lp4815
tp4816
Rp4817
sg8
I00
sg9
g4813
ssS'horticulturist'
p4818
(dp4819
g3
g4
((lp4820
tp4821
Rp4822
sg8
I00
sg9
g4818
ssS'cautiousnesses'
p4823
(dp4824
g3
g4
((lp4825
tp4826
Rp4827
sg8
I00
sg9
g4823
ssS'disciplinarian'
p4828
(dp4829
g3
g4
((lp4830
tp4831
Rp4832
sg8
I00
sg9
g4828
ssS'recommendation'
p4833
(dp4834
g3
g4
((lp4835
tp4836
Rp4837
sg8
I00
sg9
g4833
ssS'incompetencies'
p4838
(dp4839
g3
g4
((lp4840
tp4841
Rp4842
sg8
I00
sg9
g4838
ssS'availabilities'
p4843
(dp4844
g3
g4
((lp4845
tp4846
Rp4847
sg8
I00
sg9
g4843
ssS'refrigerations'
p4848
(dp4849
g3
g4
((lp4850
tp4851
Rp4852
sg8
I00
sg9
g4848
ssS'organizational'
p4853
(dp4854
g3
g4
((lp4855
tp4856
Rp4857
sg8
I00
sg9
g4853
ssS'overprotecting'
p4858
(dp4859
g3
g4
((lp4860
tp4861
Rp4862
sg8
I00
sg9
g4858
ssg4691
(dp4863
g3
g4
((lp4864
g4688
atp4865
Rp4866
sg8
I00
sg9
g4691
ssS'irascibilities'
p4867
(dp4868
g3
g4
((lp4869
tp4870
Rp4871
sg8
I00
sg9
g4867
ssS'succinctnesses'
p4872
(dp4873
g3
g4
((lp4874
tp4875
Rp4876
sg8
I00
sg9
g4872
ssS'subclassifying'
p4877
(dp4878
g3
g4
((lp4879
tp4880
Rp4881
sg8
I00
sg9
g4877
ssS'optimistically'
p4882
(dp4883
g3
g4
((lp4884
tp4885
Rp4886
sg8
I00
sg9
g4882
ssS'prevarications'
p4887
(dp4888
g3
g4
((lp4889
tp4890
Rp4891
sg8
I00
sg9
g4887
ssS'counterefforts'
p4892
(dp4893
g3
g4
((lp4894
tp4895
Rp4896
sg8
I00
sg9
g4892
ssS'antitechnology'
p4897
(dp4898
g3
g4
((lp4899
tp4900
Rp4901
sg8
I00
sg9
g4897
ssS'dramatizations'
p4902
(dp4903
g3
g4
((lp4904
tp4905
Rp4906
sg8
I00
sg9
g4902
ssS'moderatenesses'
p4907
(dp4908
g3
g4
((lp4909
tp4910
Rp4911
sg8
I00
sg9
g4907
ssS'antiaggressive'
p4912
(dp4913
g3
g4
((lp4914
tp4915
Rp4916
sg8
I00
sg9
g4912
ssS'electrolysises'
p4917
(dp4918
g3
g4
((lp4919
tp4920
Rp4921
sg8
I00
sg9
g4917
ssS'geographically'
p4922
(dp4923
g3
g4
((lp4924
tp4925
Rp4926
sg8
I00
sg9
g4922
ssS'precalculating'
p4927
(dp4928
g3
g4
((lp4929
tp4930
Rp4931
sg8
I00
sg9
g4927
ssS'reinvigorating'
p4932
(dp4933
g3
g4
((lp4934
tp4935
Rp4936
sg8
I00
sg9
g4932
ssS'misconceptions'
p4937
(dp4938
g3
g4
((lp4939
tp4940
Rp4941
sg8
I00
sg9
g4937
ssS'overparticular'
p4942
(dp4943
g3
g4
((lp4944
tp4945
Rp4946
sg8
I00
sg9
g4942
ssS'indecipherable'
p4947
(dp4948
g3
g4
((lp4949
tp4950
Rp4951
sg8
I00
sg9
g4947
ssS'misinterpreted'
p4952
(dp4953
g3
g4
((lp4954
tp4955
Rp4956
sg8
I00
sg9
g4952
ssS'contemporaries'
p4957
(dp4958
g3
g4
((lp4959
tp4960
Rp4961
sg8
I00
sg9
g4957
ssS'dismemberments'
p4962
(dp4963
g3
g4
((lp4964
tp4965
Rp4966
sg8
I00
sg9
g4962
ssg184
(dp4967
g3
g4
((lp4968
g181
atp4969
Rp4970
sg8
I00
sg9
g184
ssS'conventionally'
p4971
(dp4972
g3
g4
((lp4973
tp4974
Rp4975
sg8
I00
sg9
g4971
ssS'faithfulnesses'
p4976
(dp4977
g3
g4
((lp4978
tp4979
Rp4980
sg8
I00
sg9
g4976
ssS'understatement'
p4981
(dp4982
g3
g4
((lp4983
tp4984
Rp4985
sg8
I00
sg9
g4981
ssS'potentialities'
p4986
(dp4987
g3
g4
((lp4988
tp4989
Rp4990
sg8
I00
sg9
g4986
ssS'farsightedness'
p4991
(dp4992
g3
g4
((lp4993
tp4994
Rp4995
sg8
I00
sg9
g4991
ssS'calcifications'
p4996
(dp4997
g3
g4
((lp4998
tp4999
Rp5000
sg8
I00
sg9
g4996
ssS'pharmacologist'
p5001
(dp5002
g3
g4
((lp5003
tp5004
Rp5005
sg8
I00
sg9
g5001
ssS'recalcitrances'
p5006
(dp5007
g3
g4
((lp5008
tp5009
Rp5010
sg8
I00
sg9
g5006
ssS'perfectionists'
p5011
(dp5012
g3
g4
((lp5013
tp5014
Rp5015
sg8
I00
sg9
g5011
ssS'lexicographies'
p5016
(dp5017
g3
g4
((lp5018
tp5019
Rp5020
sg8
I00
sg9
g5016
ssS'participations'
p5021
(dp5022
g3
g4
((lp5023
tp5024
Rp5025
sg8
I00
sg9
g5021
ssS'bibliographies'
p5026
(dp5027
g3
g4
((lp5028
tp5029
Rp5030
sg8
I00
sg9
g5026
ssS'overacceptance'
p5031
(dp5032
g3
g4
((lp5033
tp5034
Rp5035
sg8
I00
sg9
g5031
ssS'advisabilities'
p5036
(dp5037
g3
g4
((lp5038
tp5039
Rp5040
sg8
I00
sg9
g5036
ssS'weatherproofed'
p5041
(dp5042
g3
g4
((lp5043
tp5044
Rp5045
sg8
I00
sg9
g5041
ssS'precariousness'
p5046
(dp5047
g3
g4
((lp5048
tp5049
Rp5050
sg8
I00
sg9
g5046
ssS'reorganization'
p5051
(dp5052
g3
g4
((lp5053
tp5054
Rp5055
sg8
I00
sg9
g5051
ssS'recapitulation'
p5056
(dp5057
g3
g4
((lp5058
tp5059
Rp5060
sg8
I00
sg9
g5056
ssS'expressionless'
p5061
(dp5062
g3
g4
((lp5063
tp5064
Rp5065
sg8
I00
sg9
g5061
ssS'preoccupations'
p5066
(dp5067
g3
g4
((lp5068
tp5069
Rp5070
sg8
I00
sg9
g5066
ssS'pressurization'
p5071
(dp5072
g3
g4
((lp5073
tp5074
Rp5075
sg8
I00
sg9
g5071
ssS'ravenousnesses'
p5076
(dp5077
g3
g4
((lp5078
tp5079
Rp5080
sg8
I00
sg9
g5076
ssg4795
(dp5081
g3
g4
((lp5082
g4792
atp5083
Rp5084
sg8
I00
sg9
g4795
ssS'antiquarianism'
p5085
(dp5086
g3
g4
((lp5087
tp5088
Rp5089
sg8
I00
sg9
g5085
ssS'mechanizations'
p5090
(dp5091
g3
g4
((lp5092
tp5093
Rp5094
sg8
I00
sg9
g5090
ssS'regurgitations'
p5095
(dp5096
g3
g4
((lp5097
tp5098
Rp5099
sg8
I00
sg9
g5095
ssS'questionnaires'
p5100
(dp5101
g3
g4
((lp5102
tp5103
Rp5104
sg8
I00
sg9
g5100
ssS'sluggishnesses'
p5105
(dp5106
g3
g4
((lp5107
tp5108
Rp5109
sg8
I00
sg9
g5105
ssS'disarrangement'
p5110
(dp5111
g3
g4
((lp5112
tp5113
Rp5114
sg8
I00
sg9
g5110
ssS'plausibilities'
p5115
(dp5116
g3
g4
((lp5117
tp5118
Rp5119
sg8
I00
sg9
g5115
ss.