(dp0
S'overemphasizing'
p1
(dp2
S'neighbors'
p3
c__builtin__
set
p4
((lp5
tp6
Rp7
sS'visited'
p8
I00
sS'word'
p9
g1
ssS'overexcitements'
p10
(dp11
g3
g4
((lp12
tp13
Rp14
sg8
I00
sg9
g10
ssS'meritoriousness'
p15
(dp16
g3
g4
((lp17
tp18
Rp19
sg8
I00
sg9
g15
ssS'intemperateness'
p20
(dp21
g3
g4
((lp22
tp23
Rp24
sg8
I00
sg9
g20
ssS'interprovincial'
p25
(dp26
g3
g4
((lp27
tp28
Rp29
sg8
I00
sg9
g25
ssS'noncontributing'
p30
(dp31
g3
g4
((lp32
tp33
Rp34
sg8
I00
sg9
g30
ssS'nearsightedness'
p35
(dp36
g3
g4
((lp37
tp38
Rp39
sg8
I00
sg9
g35
ssS'nationalization'
p40
(dp41
g3
g4
((lp42
S'rationalization'
p43
atp44
Rp45
sg8
I00
sg9
g40
ssS'agriculturalist'
p46
(dp47
g3
g4
((lp48
tp49
Rp50
sg8
I00
sg9
g46
ssS'pretentiousness'
p51
(dp52
g3
g4
((lp53
tp54
Rp55
sg8
I00
sg9
g51
ssS'multimodalities'
p56
(dp57
g3
g4
((lp58
tp59
Rp60
sg8
I00
sg9
g56
ssS'infinitesimally'
p61
(dp62
g3
g4
((lp63
tp64
Rp65
sg8
I00
sg9
g61
ssS'miserablenesses'
p66
(dp67
g3
g4
((lp68
tp69
Rp70
sg8
I00
sg9
g66
ssS'microscopically'
p71
(dp72
g3
g4
((lp73
tp74
Rp75
sg8
I00
sg9
g71
ssS'elaboratenesses'
p76
(dp77
g3
g4
((lp78
tp79
Rp80
sg8
I00
sg9
g76
ssS'precipitateness'
p81
(dp82
g3
g4
((lp83
tp84
Rp85
sg8
I00
sg9
g81
ssS'attentivenesses'
p86
(dp87
g3
g4
((lp88
tp89
Rp90
sg8
I00
sg9
g86
ssS'straightforward'
p91
(dp92
g3
g4
((lp93
tp94
Rp95
sg8
I00
sg9
g91
ssS'antisegregation'
p96
(dp97
g3
g4
((lp98
tp99
Rp100
sg8
I00
sg9
g96
ssS'authentications'
p101
(dp102
g3
g4
((lp103
tp104
Rp105
sg8
I00
sg9
g101
ssS'counterproposal'
p106
(dp107
g3
g4
((lp108
tp109
Rp110
sg8
I00
sg9
g106
ssS'multilingualism'
p111
(dp112
g3
g4
((lp113
tp114
Rp115
sg8
I00
sg9
g111
ssS'countermovement'
p116
(dp117
g3
g4
((lp118
tp119
Rp120
sg8
I00
sg9
g116
ssS'prognostication'
p121
(dp122
g3
g4
((lp123
tp124
Rp125
sg8
I00
sg9
g121
ssS'oversimplifying'
p126
(dp127
g3
g4
((lp128
tp129
Rp130
sg8
I00
sg9
g126
ssS'humanitarianism'
p131
(dp132
g3
g4
((lp133
tp134
Rp135
sg8
I00
sg9
g131
ssS'ingenuousnesses'
p136
(dp137
g3
g4
((lp138
S'ingeniousnesses'
p139
atp140
Rp141
sg8
I00
sg9
g136
ssS'ophthalmologist'
p142
(dp143
g3
g4
((lp144
tp145
Rp146
sg8
I00
sg9
g142
ssS'impenetrability'
p147
(dp148
g3
g4
((lp149
tp150
Rp151
sg8
I00
sg9
g147
ssS'intensification'
p152
(dp153
g3
g4
((lp154
tp155
Rp156
sg8
I00
sg9
g152
ssS'multidivisional'
p157
(dp158
g3
g4
((lp159
tp160
Rp161
sg8
I00
sg9
g157
ssS'reproachfulness'
p162
(dp163
g3
g4
((lp164
tp165
Rp166
sg8
I00
sg9
g162
ssS'precivilization'
p167
(dp168
g3
g4
((lp169
tp170
Rp171
sg8
I00
sg9
g167
ssS'intelligibility'
p172
(dp173
g3
g4
((lp174
tp175
Rp176
sg8
I00
sg9
g172
ssS'sprightlinesses'
p177
(dp178
g3
g4
((lp179
tp180
Rp181
sg8
I00
sg9
g177
ssS'transferability'
p182
(dp183
g3
g4
((lp184
tp185
Rp186
sg8
I00
sg9
g182
ssS'substantiations'
p187
(dp188
g3
g4
((lp189
tp190
Rp191
sg8
I00
sg9
g187
ssS'inconsequential'
p192
(dp193
g3
g4
((lp194
tp195
Rp196
sg8
I00
sg9
g192
ssS'inconsiderately'
p197
(dp198
g3
g4
((lp199
tp200
Rp201
sg8
I00
sg9
g197
ssS'professionalism'
p202
(dp203
g3
g4
((lp204
tp205
Rp206
sg8
I00
sg9
g202
ssS'rephotographing'
p207
(dp208
g3
g4
((lp209
tp210
Rp211
sg8
I00
sg9
g207
ssS'infeasibilities'
p212
(dp213
g3
g4
((lp214
tp215
Rp216
sg8
I00
sg9
g212
ssS'notwithstanding'
p217
(dp218
g3
g4
((lp219
tp220
Rp221
sg8
I00
sg9
g217
ssS'predispositions'
p222
(dp223
g3
g4
((lp224
tp225
Rp226
sg8
I00
sg9
g222
ssS'picturesqueness'
p227
(dp228
g3
g4
((lp229
tp230
Rp231
sg8
I00
sg9
g227
ssS'healthfulnesses'
p232
(dp233
g3
g4
((lp234
tp235
Rp236
sg8
I00
sg9
g232
ssS'professionalize'
p237
(dp238
g3
g4
((lp239
tp240
Rp241
sg8
I00
sg9
g237
ssS'superconvenient'
p242
(dp243
g3
g4
((lp244
tp245
Rp246
sg8
I00
sg9
g242
ssS'halfheartedness'
p247
(dp248
g3
g4
((lp249
tp250
Rp251
sg8
I00
sg9
g247
ssS'recontaminating'
p252
(dp253
g3
g4
((lp254
tp255
Rp256
sg8
I00
sg9
g252
ssS'unwillingnesses'
p257
(dp258
g3
g4
((lp259
tp260
Rp261
sg8
I00
sg9
g257
ssS'acknowledgments'
p262
(dp263
g3
g4
((lp264
tp265
Rp266
sg8
I00
sg9
g262
ssS'unintentionally'
p267
(dp268
g3
g4
((lp269
tp270
Rp271
sg8
I00
sg9
g267
ssS'personification'
p272
(dp273
g3
g4
((lp274
tp275
Rp276
sg8
I00
sg9
g272
ssS'disintegrations'
p277
(dp278
g3
g4
((lp279
tp280
Rp281
sg8
I00
sg9
g277
ssS'industriousness'
p282
(dp283
g3
g4
((lp284
tp285
Rp286
sg8
I00
sg9
g282
ssS'wonderfulnesses'
p287
(dp288
g3
g4
((lp289
tp290
Rp291
sg8
I00
sg9
g287
ssS'noncontrollable'
p292
(dp293
g3
g4
((lp294
tp295
Rp296
sg8
I00
sg9
g292
ssS'identifications'
p297
(dp298
g3
g4
((lp299
tp300
Rp301
sg8
I00
sg9
g297
ssS'catheterization'
p302
(dp303
g3
g4
((lp304
tp305
Rp306
sg8
I00
sg9
g302
ssS'prohibitionists'
p307
(dp308
g3
g4
((lp309
tp310
Rp311
sg8
I00
sg9
g307
ssS'autobiographers'
p312
(dp313
g3
g4
((lp314
tp315
Rp316
sg8
I00
sg9
g312
ssS'disciplinarians'
p317
(dp318
g3
g4
((lp319
tp320
Rp321
sg8
I00
sg9
g317
ssS'ferociousnesses'
p322
(dp323
g3
g4
((lp324
tp325
Rp326
sg8
I00
sg9
g322
ssS'anthropologists'
p327
(dp328
g3
g4
((lp329
tp330
Rp331
sg8
I00
sg9
g327
ssS'consciousnesses'
p332
(dp333
g3
g4
((lp334
tp335
Rp336
sg8
I00
sg9
g332
ssS'nonintellectual'
p337
(dp338
g3
g4
((lp339
tp340
Rp341
sg8
I00
sg9
g337
ssS'maneuverability'
p342
(dp343
g3
g4
((lp344
tp345
Rp346
sg8
I00
sg9
g342
ssS'vicariousnesses'
p347
(dp348
g3
g4
((lp349
tp350
Rp351
sg8
I00
sg9
g347
ssS'indeterminacies'
p352
(dp353
g3
g4
((lp354
tp355
Rp356
sg8
I00
sg9
g352
ssS'ineffectiveness'
p357
(dp358
g3
g4
((lp359
tp360
Rp361
sg8
I00
sg9
g357
ssS'confidentiality'
p362
(dp363
g3
g4
((lp364
tp365
Rp366
sg8
I00
sg9
g362
ssS'prenotification'
p367
(dp368
g3
g4
((lp369
tp370
Rp371
sg8
I00
sg9
g367
ssS'judiciousnesses'
p372
(dp373
g3
g4
((lp374
tp375
Rp376
sg8
I00
sg9
g372
ssS'immaterialities'
p377
(dp378
g3
g4
((lp379
tp380
Rp381
sg8
I00
sg9
g377
ssS'counterblockade'
p382
(dp383
g3
g4
((lp384
tp385
Rp386
sg8
I00
sg9
g382
ssS'experimentation'
p387
(dp388
g3
g4
((lp389
tp390
Rp391
sg8
I00
sg9
g387
ssS'humorlessnesses'
p392
(dp393
g3
g4
((lp394
tp395
Rp396
sg8
I00
sg9
g392
ssS'biodegradations'
p397
(dp398
g3
g4
((lp399
tp400
Rp401
sg8
I00
sg9
g397
ssS'distinctiveness'
p402
(dp403
g3
g4
((lp404
tp405
Rp406
sg8
I00
sg9
g402
ssS'nonperformances'
p407
(dp408
g3
g4
((lp409
tp410
Rp411
sg8
I00
sg9
g407
ssS'nonintoxicating'
p412
(dp413
g3
g4
((lp414
tp415
Rp416
sg8
I00
sg9
g412
ssS'apprenticeships'
p417
(dp418
g3
g4
((lp419
tp420
Rp421
sg8
I00
sg9
g417
ssS'miniterritories'
p422
(dp423
g3
g4
((lp424
tp425
Rp426
sg8
I00
sg9
g422
ssS'underprivileged'
p427
(dp428
g3
g4
((lp429
tp430
Rp431
sg8
I00
sg9
g427
ssS'impulsivenesses'
p432
(dp433
g3
g4
((lp434
tp435
Rp436
sg8
I00
sg9
g432
ssS'neutralizations'
p437
(dp438
g3
g4
((lp439
tp440
Rp441
sg8
I00
sg9
g437
ssS'aggrandizements'
p442
(dp443
g3
g4
((lp444
tp445
Rp446
sg8
I00
sg9
g442
ssS'dissimilarities'
p447
(dp448
g3
g4
((lp449
tp450
Rp451
sg8
I00
sg9
g447
ssS'minicalculators'
p452
(dp453
g3
g4
((lp454
tp455
Rp456
sg8
I00
sg9
g452
ssS'excommunicating'
p457
(dp458
g3
g4
((lp459
tp460
Rp461
sg8
I00
sg9
g457
ssS'overconfidences'
p462
(dp463
g3
g4
((lp464
tp465
Rp466
sg8
I00
sg9
g462
ssS'superspecialist'
p467
(dp468
g3
g4
((lp469
tp470
Rp471
sg8
I00
sg9
g467
ssS'reinvestigating'
p472
(dp473
g3
g4
((lp474
tp475
Rp476
sg8
I00
sg9
g472
ssS'antiwiretapping'
p477
(dp478
g3
g4
((lp479
tp480
Rp481
sg8
I00
sg9
g477
ssS'childlessnesses'
p482
(dp483
g3
g4
((lp484
tp485
Rp486
sg8
I00
sg9
g482
ssS'expansivenesses'
p487
(dp488
g3
g4
((lp489
tp490
Rp491
sg8
I00
sg9
g487
ssS'arbitrarinesses'
p492
(dp493
g3
g4
((lp494
tp495
Rp496
sg8
I00
sg9
g492
ssS'inconveniencing'
p497
(dp498
g3
g4
((lp499
tp500
Rp501
sg8
I00
sg9
g497
ssS'procrastinators'
p502
(dp503
g3
g4
((lp504
tp505
Rp506
sg8
I00
sg9
g502
ssS'miscalculations'
p507
(dp508
g3
g4
((lp509
tp510
Rp511
sg8
I00
sg9
g507
ssS'gravitationally'
p512
(dp513
g3
g4
((lp514
tp515
Rp516
sg8
I00
sg9
g512
ssS'ineffectualness'
p517
(dp518
g3
g4
((lp519
tp520
Rp521
sg8
I00
sg9
g517
ssS'anthropological'
p522
(dp523
g3
g4
((lp524
tp525
Rp526
sg8
I00
sg9
g522
ssS'overintensities'
p527
(dp528
g3
g4
((lp529
tp530
Rp531
sg8
I00
sg9
g527
ssS'ambassadorships'
p532
(dp533
g3
g4
((lp534
tp535
Rp536
sg8
I00
sg9
g532
ssS'officiousnesses'
p537
(dp538
g3
g4
((lp539
tp540
Rp541
sg8
I00
sg9
g537
ssS'implementations'
p542
(dp543
g3
g4
((lp544
tp545
Rp546
sg8
I00
sg9
g542
ssS'antiprogressive'
p547
(dp548
g3
g4
((lp549
tp550
Rp551
sg8
I00
sg9
g547
ssS'preestablishing'
p552
(dp553
g3
g4
((lp554
tp555
Rp556
sg8
I00
sg9
g552
ssS'distinguishable'
p557
(dp558
g3
g4
((lp559
tp560
Rp561
sg8
I00
sg9
g557
ssS'sensitivenesses'
p562
(dp563
g3
g4
((lp564
tp565
Rp566
sg8
I00
sg9
g562
ssS'bibliographical'
p567
(dp568
g3
g4
((lp569
tp570
Rp571
sg8
I00
sg9
g567
ssS'primitivenesses'
p572
(dp573
g3
g4
((lp574
tp575
Rp576
sg8
I00
sg9
g572
ssS'preadolescences'
p577
(dp578
g3
g4
((lp579
tp580
Rp581
sg8
I00
sg9
g577
ssS'invulnerability'
p582
(dp583
g3
g4
((lp584
tp585
Rp586
sg8
I00
sg9
g582
ssS'understatements'
p587
(dp588
g3
g4
((lp589
tp590
Rp591
sg8
I00
sg9
g587
ssS'effectualnesses'
p592
(dp593
g3
g4
((lp594
tp595
Rp596
sg8
I00
sg9
g592
ssS'lexicographical'
p597
(dp598
g3
g4
((lp599
tp600
Rp601
sg8
I00
sg9
g597
ssS'counterrebuttal'
p602
(dp603
g3
g4
((lp604
tp605
Rp606
sg8
I00
sg9
g602
ssS'specializations'
p607
(dp608
g3
g4
((lp609
tp610
Rp611
sg8
I00
sg9
g607
ssS'disembarkations'
p612
(dp613
g3
g4
((lp614
tp615
Rp616
sg8
I00
sg9
g612
ssS'recapitulations'
p617
(dp618
g3
g4
((lp619
tp620
Rp621
sg8
I00
sg9
g617
ssS'worthlessnesses'
p622
(dp623
g3
g4
((lp624
tp625
Rp626
sg8
I00
sg9
g622
ssS'discontinuances'
p627
(dp628
g3
g4
((lp629
tp630
Rp631
sg8
I00
sg9
g627
ssS'contraindicates'
p632
(dp633
g3
g4
((lp634
S'contraindicated'
p635
atp636
Rp637
sg8
I00
sg9
g632
ssS'irrationalities'
p638
(dp639
g3
g4
((lp640
tp641
Rp642
sg8
I00
sg9
g638
ssS'revolutionizing'
p643
(dp644
g3
g4
((lp645
tp646
Rp647
sg8
I00
sg9
g643
ssS'proprietorships'
p648
(dp649
g3
g4
((lp650
tp651
Rp652
sg8
I00
sg9
g648
ssS'voraciousnesses'
p653
(dp654
g3
g4
((lp655
tp656
Rp657
sg8
I00
sg9
g653
ssS'masculinization'
p658
(dp659
g3
g4
((lp660
tp661
Rp662
sg8
I00
sg9
g658
ssS'poliomyelitises'
p663
(dp664
g3
g4
((lp665
tp666
Rp667
sg8
I00
sg9
g663
ssg635
(dp668
g3
g4
((lp669
g632
atp670
Rp671
sg8
I00
sg9
g635
ssS'superefficiency'
p672
(dp673
g3
g4
((lp674
tp675
Rp676
sg8
I00
sg9
g672
ssS'counterbalanced'
p677
(dp678
g3
g4
((lp679
S'counterbalances'
p680
atp681
Rp682
sg8
I00
sg9
g677
ssS'inquisitiveness'
p683
(dp684
g3
g4
((lp685
tp686
Rp687
sg8
I00
sg9
g683
ssS'transistorizing'
p688
(dp689
g3
g4
((lp690
tp691
Rp692
sg8
I00
sg9
g688
ssS'overregulations'
p693
(dp694
g3
g4
((lp695
tp696
Rp697
sg8
I00
sg9
g693
ssS'righteousnesses'
p698
(dp699
g3
g4
((lp700
tp701
Rp702
sg8
I00
sg9
g698
ssg680
(dp703
g3
g4
((lp704
g677
atp705
Rp706
sg8
I00
sg9
g680
ssS'pulchritudinous'
p707
(dp708
g3
g4
((lp709
tp710
Rp711
sg8
I00
sg9
g707
ssS'brotherlinesses'
p712
(dp713
g3
g4
((lp714
tp715
Rp716
sg8
I00
sg9
g712
ssS'stratifications'
p717
(dp718
g3
g4
((lp719
tp720
Rp721
sg8
I00
sg9
g717
ssS'venturesomeness'
p722
(dp723
g3
g4
((lp724
tp725
Rp726
sg8
I00
sg9
g722
ssS'continuousities'
p727
(dp728
g3
g4
((lp729
tp730
Rp731
sg8
I00
sg9
g727
ssS'intangibilities'
p732
(dp733
g3
g4
((lp734
tp735
Rp736
sg8
I00
sg9
g732
ssS'procrastination'
p737
(dp738
g3
g4
((lp739
tp740
Rp741
sg8
I00
sg9
g737
ssS'trigonometrical'
p742
(dp743
g3
g4
((lp744
tp745
Rp746
sg8
I00
sg9
g742
ssS'obtrusivenesses'
p747
(dp748
g3
g4
((lp749
tp750
Rp751
sg8
I00
sg9
g747
ssS'neurotoxicities'
p752
(dp753
g3
g4
((lp754
tp755
Rp756
sg8
I00
sg9
g752
ssS'insensibilities'
p757
(dp758
g3
g4
((lp759
tp760
Rp761
sg8
I00
sg9
g757
ssS'weatherproofing'
p762
(dp763
g3
g4
((lp764
tp765
Rp766
sg8
I00
sg9
g762
ssS'exclusivenesses'
p767
(dp768
g3
g4
((lp769
tp770
Rp771
sg8
I00
sg9
g767
ssS'imprecisenesses'
p772
(dp773
g3
g4
((lp774
tp775
Rp776
sg8
I00
sg9
g772
ssS'unselfishnesses'
p777
(dp778
g3
g4
((lp779
tp780
Rp781
sg8
I00
sg9
g777
ssS'exemplification'
p782
(dp783
g3
g4
((lp784
tp785
Rp786
sg8
I00
sg9
g782
ssS'injudiciousness'
p787
(dp788
g3
g4
((lp789
tp790
Rp791
sg8
I00
sg9
g787
ssS'destructibility'
p792
(dp793
g3
g4
((lp794
tp795
Rp796
sg8
I00
sg9
g792
ssS'vivaciousnesses'
p797
(dp798
g3
g4
((lp799
tp800
Rp801
sg8
I00
sg9
g797
ssS'offensivenesses'
p802
(dp803
g3
g4
((lp804
tp805
Rp806
sg8
I00
sg9
g802
ssS'hardheartedness'
p807
(dp808
g3
g4
((lp809
tp810
Rp811
sg8
I00
sg9
g807
ssS'internationally'
p812
(dp813
g3
g4
((lp814
tp815
Rp816
sg8
I00
sg9
g812
ssS'niggardlinesses'
p817
(dp818
g3
g4
((lp819
tp820
Rp821
sg8
I00
sg9
g817
ssS'recertification'
p822
(dp823
g3
g4
((lp824
tp825
Rp826
sg8
I00
sg9
g822
ssS'incredibilities'
p827
(dp828
g3
g4
((lp829
tp830
Rp831
sg8
I00
sg9
g827
ssS'intrusivenesses'
p832
(dp833
g3
g4
((lp834
tp835
Rp836
sg8
I00
sg9
g832
ssS'initializations'
p837
(dp838
g3
g4
((lp839
tp840
Rp841
sg8
I00
sg9
g837
ssS'prearrangements'
p842
(dp843
g3
g4
((lp844
tp845
Rp846
sg8
I00
sg9
g842
ssS'decapitatations'
p847
(dp848
g3
g4
((lp849
tp850
Rp851
sg8
I00
sg9
g847
ssS'inconsistencies'
p852
(dp853
g3
g4
((lp854
tp855
Rp856
sg8
I00
sg9
g852
ssS'physiotherapies'
p857
(dp858
g3
g4
((lp859
tp860
Rp861
sg8
I00
sg9
g857
ssS'plenipotentiary'
p862
(dp863
g3
g4
((lp864
tp865
Rp866
sg8
I00
sg9
g862
ssS'atherosclerosis'
p867
(dp868
g3
g4
((lp869
tp870
Rp871
sg8
I00
sg9
g867
ssS'morphologically'
p872
(dp873
g3
g4
((lp874
tp875
Rp876
sg8
I00
sg9
g872
ssS'materialization'
p877
(dp878
g3
g4
((lp879
tp880
Rp881
sg8
I00
sg9
g877
ssS'lucrativenesses'
p882
(dp883
g3
g4
((lp884
tp885
Rp886
sg8
I00
sg9
g882
ssS'trustworthiness'
p887
(dp888
g3
g4
((lp889
tp890
Rp891
sg8
I00
sg9
g887
ssS'institutionally'
p892
(dp893
g3
g4
((lp894
tp895
Rp896
sg8
I00
sg9
g892
ssS'superintendents'
p897
(dp898
g3
g4
((lp899
tp900
Rp901
sg8
I00
sg9
g897
ssS'unconcernedlies'
p902
(dp903
g3
g4
((lp904
tp905
Rp906
sg8
I00
sg9
g902
ssS'interelectronic'
p907
(dp908
g3
g4
((lp909
tp910
Rp911
sg8
I00
sg9
g907
ssS'accomplishments'
p912
(dp913
g3
g4
((lp914
tp915
Rp916
sg8
I00
sg9
g912
ssS'pharmaceuticals'
p917
(dp918
g3
g4
((lp919
tp920
Rp921
sg8
I00
sg9
g917
ssS'assiduousnesses'
p922
(dp923
g3
g4
((lp924
tp925
Rp926
sg8
I00
sg9
g922
ssS'instrumentality'
p927
(dp928
g3
g4
((lp929
tp930
Rp931
sg8
I00
sg9
g927
ssS'garrulousnesses'
p932
(dp933
g3
g4
((lp934
tp935
Rp936
sg8
I00
sg9
g932
ssS'overcomplicated'
p937
(dp938
g3
g4
((lp939
S'overcomplicates'
p940
atp941
Rp942
sg8
I00
sg9
g937
ssS'prognosticators'
p943
(dp944
g3
g4
((lp945
tp946
Rp947
sg8
I00
sg9
g943
ssS'overspecializes'
p948
(dp949
g3
g4
((lp950
S'overspecialized'
p951
atp952
Rp953
sg8
I00
sg9
g948
ssS'counterresponse'
p954
(dp955
g3
g4
((lp956
tp957
Rp958
sg8
I00
sg9
g954
ssS'heartsicknesses'
p959
(dp960
g3
g4
((lp961
tp962
Rp963
sg8
I00
sg9
g959
ssg951
(dp964
g3
g4
((lp965
g948
atp966
Rp967
sg8
I00
sg9
g951
ssS'carnivorousness'
p968
(dp969
g3
g4
((lp970
tp971
Rp972
sg8
I00
sg9
g968
ssg940
(dp973
g3
g4
((lp974
g937
atp975
Rp976
sg8
I00
sg9
g940
ssS'conceptualizing'
p977
(dp978
g3
g4
((lp979
tp980
Rp981
sg8
I00
sg9
g977
ssS'rehospitalizing'
p982
(dp983
g3
g4
((lp984
tp985
Rp986
sg8
I00
sg9
g982
ssS'reestablishment'
p987
(dp988
g3
g4
((lp989
tp990
Rp991
sg8
I00
sg9
g987
ssS'counterquestion'
p992
(dp993
g3
g4
((lp994
tp995
Rp996
sg8
I00
sg9
g992
ssS'inconspicuously'
p997
(dp998
g3
g4
((lp999
tp1000
Rp1001
sg8
I00
sg9
g997
ssS'shiftlessnesses'
p1002
(dp1003
g3
g4
((lp1004
tp1005
Rp1006
sg8
I00
sg9
g1002
ssS'categorizations'
p1007
(dp1008
g3
g4
((lp1009
tp1010
Rp1011
sg8
I00
sg9
g1007
ssS'inventivenesses'
p1012
(dp1013
g3
g4
((lp1014
tp1015
Rp1016
sg8
I00
sg9
g1012
ssS'receptivenesses'
p1017
(dp1018
g3
g4
((lp1019
tp1020
Rp1021
sg8
I00
sg9
g1017
ssS'circumnavigated'
p1022
(dp1023
g3
g4
((lp1024
S'circumnavigates'
p1025
atp1026
Rp1027
sg8
I00
sg9
g1022
ssS'preprofessional'
p1028
(dp1029
g3
g4
((lp1030
tp1031
Rp1032
sg8
I00
sg9
g1028
ssS'hyperaggressive'
p1033
(dp1034
g3
g4
((lp1035
tp1036
Rp1037
sg8
I00
sg9
g1033
ssS'compatibilities'
p1038
(dp1039
g3
g4
((lp1040
tp1041
Rp1042
sg8
I00
sg9
g1038
ssS'agreeablenesses'
p1043
(dp1044
g3
g4
((lp1045
tp1046
Rp1047
sg8
I00
sg9
g1043
ssS'airconditioning'
p1048
(dp1049
g3
g4
((lp1050
tp1051
Rp1052
sg8
I00
sg9
g1048
ssS'disillusionment'
p1053
(dp1054
g3
g4
((lp1055
tp1056
Rp1057
sg8
I00
sg9
g1053
ssS'counterstrategy'
p1058
(dp1059
g3
g4
((lp1060
tp1061
Rp1062
sg8
I00
sg9
g1058
ssS'stultifications'
p1063
(dp1064
g3
g4
((lp1065
tp1066
Rp1067
sg8
I00
sg9
g1063
ssS'enfranchisement'
p1068
(dp1069
g3
g4
((lp1070
tp1071
Rp1072
sg8
I00
sg9
g1068
ssS'aerodynamically'
p1073
(dp1074
g3
g4
((lp1075
tp1076
Rp1077
sg8
I00
sg9
g1073
ssS'pharmacologists'
p1078
(dp1079
g3
g4
((lp1080
tp1081
Rp1082
sg8
I00
sg9
g1078
ssS'steadfastnesses'
p1083
(dp1084
g3
g4
((lp1085
tp1086
Rp1087
sg8
I00
sg9
g1083
ssS'appropriateness'
p1088
(dp1089
g3
g4
((lp1090
tp1091
Rp1092
sg8
I00
sg9
g1088
ssS'generalizations'
p1093
(dp1094
g3
g4
((lp1095
tp1096
Rp1097
sg8
I00
sg9
g1093
ssS'inevitabilities'
p1098
(dp1099
g3
g4
((lp1100
tp1101
Rp1102
sg8
I00
sg9
g1098
ssS'chronologically'
p1103
(dp1104
g3
g4
((lp1105
tp1106
Rp1107
sg8
I00
sg9
g1103
ssS'conscientiously'
p1108
(dp1109
g3
g4
((lp1110
tp1111
Rp1112
sg8
I00
sg9
g1108
ssS'sledgehammering'
p1113
(dp1114
g3
g4
((lp1115
tp1116
Rp1117
sg8
I00
sg9
g1113
ssS'representations'
p1118
(dp1119
g3
g4
((lp1120
tp1121
Rp1122
sg8
I00
sg9
g1118
ssS'intellectualism'
p1123
(dp1124
g3
g4
((lp1125
tp1126
Rp1127
sg8
I00
sg9
g1123
ssS'querulousnesses'
p1128
(dp1129
g3
g4
((lp1130
tp1131
Rp1132
sg8
I00
sg9
g1128
ssS'totalitarianism'
p1133
(dp1134
g3
g4
((lp1135
tp1136
Rp1137
sg8
I00
sg9
g1133
ssS'mechanistically'
p1138
(dp1139
g3
g4
((lp1140
tp1141
Rp1142
sg8
I00
sg9
g1138
ssS'excommunication'
p1143
(dp1144
g3
g4
((lp1145
tp1146
Rp1147
sg8
I00
sg9
g1143
ssS'individualizing'
p1148
(dp1149
g3
g4
((lp1150
tp1151
Rp1152
sg8
I00
sg9
g1148
ssS'insufficiencies'
p1153
(dp1154
g3
g4
((lp1155
tp1156
Rp1157
sg8
I00
sg9
g1153
ssS'coinvestigators'
p1158
(dp1159
g3
g4
((lp1160
tp1161
Rp1162
sg8
I00
sg9
g1158
ssS'tonsillectomies'
p1163
(dp1164
g3
g4
((lp1165
tp1166
Rp1167
sg8
I00
sg9
g1163
ssS'outspokennesses'
p1168
(dp1169
g3
g4
((lp1170
tp1171
Rp1172
sg8
I00
sg9
g1168
ssg1025
(dp1173
g3
g4
((lp1174
g1022
atp1175
Rp1176
sg8
I00
sg9
g1025
ssS'magnanimousness'
p1177
(dp1178
g3
g4
((lp1179
tp1180
Rp1181
sg8
I00
sg9
g1177
ssS'emasculatations'
p1182
(dp1183
g3
g4
((lp1184
tp1185
Rp1186
sg8
I00
sg9
g1182
ssS'slaughterhouses'
p1187
(dp1188
g3
g4
((lp1189
tp1190
Rp1191
sg8
I00
sg9
g1187
ssS'nonenforcements'
p1192
(dp1193
g3
g4
((lp1194
tp1195
Rp1196
sg8
I00
sg9
g1192
ssS'autobiographies'
p1197
(dp1198
g3
g4
((lp1199
tp1200
Rp1201
sg8
I00
sg9
g1197
ssS'pressurizations'
p1202
(dp1203
g3
g4
((lp1204
tp1205
Rp1206
sg8
I00
sg9
g1202
ssS'astronautically'
p1207
(dp1208
g3
g4
((lp1209
tp1210
Rp1211
sg8
I00
sg9
g1207
ssS'unfamiliarities'
p1212
(dp1213
g3
g4
((lp1214
tp1215
Rp1216
sg8
I00
sg9
g1212
ssS'solidifications'
p1217
(dp1218
g3
g4
((lp1219
tp1220
Rp1221
sg8
I00
sg9
g1217
ssS'parenthetically'
p1222
(dp1223
g3
g4
((lp1224
tp1225
Rp1226
sg8
I00
sg9
g1222
ssS'interpopulation'
p1227
(dp1228
g3
g4
((lp1229
tp1230
Rp1231
sg8
I00
sg9
g1227
ssS'extraordinarily'
p1232
(dp1233
g3
g4
((lp1234
tp1235
Rp1236
sg8
I00
sg9
g1232
ssS'emulsifications'
p1237
(dp1238
g3
g4
((lp1239
tp1240
Rp1241
sg8
I00
sg9
g1237
ssS'counterattacked'
p1242
(dp1243
g3
g4
((lp1244
tp1245
Rp1246
sg8
I00
sg9
g1242
ssS'maintainability'
p1247
(dp1248
g3
g4
((lp1249
tp1250
Rp1251
sg8
I00
sg9
g1247
ssg43
(dp1252
g3
g4
((lp1253
g40
atp1254
Rp1255
sg8
I00
sg9
g43
ssS'unsubstantiated'
p1256
(dp1257
g3
g4
((lp1258
tp1259
Rp1260
sg8
I00
sg9
g1256
ssS'sentimentalizes'
p1261
(dp1262
g3
g4
((lp1263
S'sentimentalized'
p1264
atp1265
Rp1266
sg8
I00
sg9
g1261
ssS'commercializing'
p1267
(dp1268
g3
g4
((lp1269
tp1270
Rp1271
sg8
I00
sg9
g1267
ssS'overpublicizing'
p1272
(dp1273
g3
g4
((lp1274
tp1275
Rp1276
sg8
I00
sg9
g1272
ssS'prekindergarten'
p1277
(dp1278
g3
g4
((lp1279
tp1280
Rp1281
sg8
I00
sg9
g1277
ssS'interscholastic'
p1282
(dp1283
g3
g4
((lp1284
tp1285
Rp1286
sg8
I00
sg9
g1282
ssS'programmability'
p1287
(dp1288
g3
g4
((lp1289
tp1290
Rp1291
sg8
I00
sg9
g1287
ssS'horticulturists'
p1292
(dp1293
g3
g4
((lp1294
tp1295
Rp1296
sg8
I00
sg9
g1292
ssS'instrumentation'
p1297
(dp1298
g3
g4
((lp1299
tp1300
Rp1301
sg8
I00
sg9
g1297
ssS'parliamentarian'
p1302
(dp1303
g3
g4
((lp1304
tp1305
Rp1306
sg8
I00
sg9
g1302
ssS'foresightedness'
p1307
(dp1308
g3
g4
((lp1309
tp1310
Rp1311
sg8
I00
sg9
g1307
ssS'counterintrigue'
p1312
(dp1313
g3
g4
((lp1314
tp1315
Rp1316
sg8
I00
sg9
g1312
ssS'vulnerabilities'
p1317
(dp1318
g3
g4
((lp1319
tp1320
Rp1321
sg8
I00
sg9
g1317
ssS'disarrangements'
p1322
(dp1323
g3
g4
((lp1324
tp1325
Rp1326
sg8
I00
sg9
g1322
ssS'reconciliations'
p1327
(dp1328
g3
g4
((lp1329
tp1330
Rp1331
sg8
I00
sg9
g1327
ssS'simplifications'
p1332
(dp1333
g3
g4
((lp1334
tp1335
Rp1336
sg8
I00
sg9
g1332
ssS'guilelessnesses'
p1337
(dp1338
g3
g4
((lp1339
tp1340
Rp1341
sg8
I00
sg9
g1337
ssS'underestimating'
p1342
(dp1343
g3
g4
((lp1344
tp1345
Rp1346
sg8
I00
sg9
g1342
ssS'psychoanalyzing'
p1347
(dp1348
g3
g4
((lp1349
tp1350
Rp1351
sg8
I00
sg9
g1347
ssS'insensitivities'
p1352
(dp1353
g3
g4
((lp1354
tp1355
Rp1356
sg8
I00
sg9
g1352
ssS'counterpressure'
p1357
(dp1358
g3
g4
((lp1359
tp1360
Rp1361
sg8
I00
sg9
g1357
ssS'faithlessnesses'
p1362
(dp1363
g3
g4
((lp1364
tp1365
Rp1366
sg8
I00
sg9
g1362
ssS'transfiguration'
p1367
(dp1368
g3
g4
((lp1369
tp1370
Rp1371
sg8
I00
sg9
g1367
ssS'indemnification'
p1372
(dp1373
g3
g4
((lp1374
tp1375
Rp1376
sg8
I00
sg9
g1372
ssS'disappointments'
p1377
(dp1378
g3
g4
((lp1379
tp1380
Rp1381
sg8
I00
sg9
g1377
ssS'unceremoniously'
p1382
(dp1383
g3
g4
((lp1384
tp1385
Rp1386
sg8
I00
sg9
g1382
ssS'superintendency'
p1387
(dp1388
g3
g4
((lp1389
S'superintendence'
p1390
atp1391
Rp1392
sg8
I00
sg9
g1387
ssS'predesignations'
p1393
(dp1394
g3
g4
((lp1395
tp1396
Rp1397
sg8
I00
sg9
g1393
ssS'revolutionizers'
p1398
(dp1399
g3
g4
((lp1400
tp1401
Rp1402
sg8
I00
sg9
g1398
ssS'centralizations'
p1403
(dp1404
g3
g4
((lp1405
tp1406
Rp1407
sg8
I00
sg9
g1403
ssS'hyperthyroidism'
p1408
(dp1409
g3
g4
((lp1410
tp1411
Rp1412
sg8
I00
sg9
g1408
ssS'manageabilities'
p1413
(dp1414
g3
g4
((lp1415
tp1416
Rp1417
sg8
I00
sg9
g1413
ssS'lackadaisically'
p1418
(dp1419
g3
g4
((lp1420
tp1421
Rp1422
sg8
I00
sg9
g1418
ssS'overrepresented'
p1423
(dp1424
g3
g4
((lp1425
tp1426
Rp1427
sg8
I00
sg9
g1423
ssS'nitroglycerines'
p1428
(dp1429
g3
g4
((lp1430
tp1431
Rp1432
sg8
I00
sg9
g1428
ssS'lecherousnesses'
p1433
(dp1434
g3
g4
((lp1435
tp1436
Rp1437
sg8
I00
sg9
g1433
ssS'unsophisticated'
p1438
(dp1439
g3
g4
((lp1440
tp1441
Rp1442
sg8
I00
sg9
g1438
ssS'reorchestrating'
p1443
(dp1444
g3
g4
((lp1445
tp1446
Rp1447
sg8
I00
sg9
g1443
ssS'atrociousnesses'
p1448
(dp1449
g3
g4
((lp1450
tp1451
Rp1452
sg8
I00
sg9
g1448
ssS'preternaturally'
p1453
(dp1454
g3
g4
((lp1455
tp1456
Rp1457
sg8
I00
sg9
g1453
ssS'objectivenesses'
p1458
(dp1459
g3
g4
((lp1460
tp1461
Rp1462
sg8
I00
sg9
g1458
ssS'misinformations'
p1463
(dp1464
g3
g4
((lp1465
tp1466
Rp1467
sg8
I00
sg9
g1463
ssS'misrepresenting'
p1468
(dp1469
g3
g4
((lp1470
tp1471
Rp1472
sg8
I00
sg9
g1468
ssS'philanthropists'
p1473
(dp1474
g3
g4
((lp1475
tp1476
Rp1477
sg8
I00
sg9
g1473
ssS'fraternizations'
p1478
(dp1479
g3
g4
((lp1480
tp1481
Rp1482
sg8
I00
sg9
g1478
ssS'antimaterialist'
p1483
(dp1484
g3
g4
((lp1485
S'antimaterialism'
p1486
atp1487
Rp1488
sg8
I00
sg9
g1483
ssS'instrumentalist'
p1489
(dp1490
g3
g4
((lp1491
tp1492
Rp1493
sg8
I00
sg9
g1489
ssS'inanimatenesses'
p1494
(dp1495
g3
g4
((lp1496
tp1497
Rp1498
sg8
I00
sg9
g1494
ssS'artificialities'
p1499
(dp1500
g3
g4
((lp1501
tp1502
Rp1503
sg8
I00
sg9
g1499
ssS'pasteurizations'
p1504
(dp1505
g3
g4
((lp1506
tp1507
Rp1508
sg8
I00
sg9
g1504
ssS'overglamorizing'
p1509
(dp1510
g3
g4
((lp1511
tp1512
Rp1513
sg8
I00
sg9
g1509
ssS'obliviousnesses'
p1514
(dp1515
g3
g4
((lp1516
tp1517
Rp1518
sg8
I00
sg9
g1514
ssS'bacteriologists'
p1519
(dp1520
g3
g4
((lp1521
tp1522
Rp1523
sg8
I00
sg9
g1519
ssS'synchronization'
p1524
(dp1525
g3
g4
((lp1526
tp1527
Rp1528
sg8
I00
sg9
g1524
ssS'nonexchangeable'
p1529
(dp1530
g3
g4
((lp1531
tp1532
Rp1533
sg8
I00
sg9
g1529
ssS'overstimulating'
p1534
(dp1535
g3
g4
((lp1536
tp1537
Rp1538
sg8
I00
sg9
g1534
ssS'differentiating'
p1539
(dp1540
g3
g4
((lp1541
tp1542
Rp1543
sg8
I00
sg9
g1539
ssS'reanesthetizing'
p1544
(dp1545
g3
g4
((lp1546
tp1547
Rp1548
sg8
I00
sg9
g1544
ssS'conglomerations'
p1549
(dp1550
g3
g4
((lp1551
tp1552
Rp1553
sg8
I00
sg9
g1549
ssS'postinoculation'
p1554
(dp1555
g3
g4
((lp1556
tp1557
Rp1558
sg8
I00
sg9
g1554
ssS'illustriousness'
p1559
(dp1560
g3
g4
((lp1561
tp1562
Rp1563
sg8
I00
sg9
g1559
ssS'memorablenesses'
p1564
(dp1565
g3
g4
((lp1566
tp1567
Rp1568
sg8
I00
sg9
g1564
ssS'recommendations'
p1569
(dp1570
g3
g4
((lp1571
tp1572
Rp1573
sg8
I00
sg9
g1569
ssS'counterembargos'
p1574
(dp1575
g3
g4
((lp1576
tp1577
Rp1578
sg8
I00
sg9
g1574
ssS'superenthusiasm'
p1579
(dp1580
g3
g4
((lp1581
tp1582
Rp1583
sg8
I00
sg9
g1579
ssS'individualities'
p1584
(dp1585
g3
g4
((lp1586
tp1587
Rp1588
sg8
I00
sg9
g1584
ssS'repulsivenesses'
p1589
(dp1590
g3
g4
((lp1591
tp1592
Rp1593
sg8
I00
sg9
g1589
ssS'misappropriated'
p1594
(dp1595
g3
g4
((lp1596
S'misappropriates'
p1597
atp1598
Rp1599
sg8
I00
sg9
g1594
ssS'hysterectomizes'
p1600
(dp1601
g3
g4
((lp1602
S'hysterectomized'
p1603
atp1604
Rp1605
sg8
I00
sg9
g1600
ssS'unnaturalnesses'
p1606
(dp1607
g3
g4
((lp1608
tp1609
Rp1610
sg8
I00
sg9
g1606
ssS'precancellation'
p1611
(dp1612
g3
g4
((lp1613
tp1614
Rp1615
sg8
I00
sg9
g1611
ssg1486
(dp1616
g3
g4
((lp1617
g1483
atp1618
Rp1619
sg8
I00
sg9
g1486
ssS'representatives'
p1620
(dp1621
g3
g4
((lp1622
tp1623
Rp1624
sg8
I00
sg9
g1620
ssS'thoughtlessness'
p1625
(dp1626
g3
g4
((lp1627
tp1628
Rp1629
sg8
I00
sg9
g1625
ssS'typographically'
p1630
(dp1631
g3
g4
((lp1632
tp1633
Rp1634
sg8
I00
sg9
g1630
ssg1603
(dp1635
g3
g4
((lp1636
g1600
atp1637
Rp1638
sg8
I00
sg9
g1603
ssg1597
(dp1639
g3
g4
((lp1640
g1594
atp1641
Rp1642
sg8
I00
sg9
g1597
ssS'incompatibility'
p1643
(dp1644
g3
g4
((lp1645
tp1646
Rp1647
sg8
I00
sg9
g1643
ssS'admissibilities'
p1648
(dp1649
g3
g4
((lp1650
tp1651
Rp1652
sg8
I00
sg9
g1648
ssS'inappropriately'
p1653
(dp1654
g3
g4
((lp1655
tp1656
Rp1657
sg8
I00
sg9
g1653
ssS'implacabilities'
p1658
(dp1659
g3
g4
((lp1660
tp1661
Rp1662
sg8
I00
sg9
g1658
ssS'interchangeably'
p1663
(dp1664
g3
g4
((lp1665
S'interchangeable'
p1666
atp1667
Rp1668
sg8
I00
sg9
g1663
ssS'noncommunicable'
p1669
(dp1670
g3
g4
((lp1671
tp1672
Rp1673
sg8
I00
sg9
g1669
ssS'circumspections'
p1674
(dp1675
g3
g4
((lp1676
tp1677
Rp1678
sg8
I00
sg9
g1674
ssS'kaleidoscopical'
p1679
(dp1680
g3
g4
((lp1681
tp1682
Rp1683
sg8
I00
sg9
g1679
ssS'responsibleness'
p1684
(dp1685
g3
g4
((lp1686
tp1687
Rp1688
sg8
I00
sg9
g1684
ssS'conservationist'
p1689
(dp1690
g3
g4
((lp1691
tp1692
Rp1693
sg8
I00
sg9
g1689
ssS'counterprotests'
p1694
(dp1695
g3
g4
((lp1696
tp1697
Rp1698
sg8
I00
sg9
g1694
ssg1666
(dp1699
g3
g4
((lp1700
g1663
atp1701
Rp1702
sg8
I00
sg9
g1666
ssS'improbabilities'
p1703
(dp1704
g3
g4
((lp1705
tp1706
Rp1707
sg8
I00
sg9
g1703
ssS'countercampaign'
p1708
(dp1709
g3
g4
((lp1710
tp1711
Rp1712
sg8
I00
sg9
g1708
ssS'interpretations'
p1713
(dp1714
g3
g4
((lp1715
tp1716
Rp1717
sg8
I00
sg9
g1713
ssS'philosophically'
p1718
(dp1719
g3
g4
((lp1720
tp1721
Rp1722
sg8
I00
sg9
g1718
ssS'noninvolvements'
p1723
(dp1724
g3
g4
((lp1725
tp1726
Rp1727
sg8
I00
sg9
g1723
ssS'impregabilities'
p1728
(dp1729
g3
g4
((lp1730
tp1731
Rp1732
sg8
I00
sg9
g1728
ssS'mercenarinesses'
p1733
(dp1734
g3
g4
((lp1735
tp1736
Rp1737
sg8
I00
sg9
g1733
ssS'transplantation'
p1738
(dp1739
g3
g4
((lp1740
tp1741
Rp1742
sg8
I00
sg9
g1738
ssS'frightfulnesses'
p1743
(dp1744
g3
g4
((lp1745
tp1746
Rp1747
sg8
I00
sg9
g1743
ssS'circumlocutions'
p1748
(dp1749
g3
g4
((lp1750
tp1751
Rp1752
sg8
I00
sg9
g1748
ssS'supraclavicular'
p1753
(dp1754
g3
g4
((lp1755
tp1756
Rp1757
sg8
I00
sg9
g1753
ssS'underhandedness'
p1758
(dp1759
g3
g4
((lp1760
tp1761
Rp1762
sg8
I00
sg9
g1758
ssS'indoctrinations'
p1763
(dp1764
g3
g4
((lp1765
tp1766
Rp1767
sg8
I00
sg9
g1763
ssS'antivivisection'
p1768
(dp1769
g3
g4
((lp1770
tp1771
Rp1772
sg8
I00
sg9
g1768
ssS'overexaggerated'
p1773
(dp1774
g3
g4
((lp1775
S'overexaggerates'
p1776
atp1777
Rp1778
sg8
I00
sg9
g1773
ssS'contemporaneous'
p1779
(dp1780
g3
g4
((lp1781
tp1782
Rp1783
sg8
I00
sg9
g1779
ssS'administrations'
p1784
(dp1785
g3
g4
((lp1786
tp1787
Rp1788
sg8
I00
sg9
g1784
ssS'reconnaissances'
p1789
(dp1790
g3
g4
((lp1791
tp1792
Rp1793
sg8
I00
sg9
g1789
ssS'capitalizations'
p1794
(dp1795
g3
g4
((lp1796
tp1797
Rp1798
sg8
I00
sg9
g1794
ssS'transformations'
p1799
(dp1800
g3
g4
((lp1801
tp1802
Rp1803
sg8
I00
sg9
g1799
ssS'reconsideration'
p1804
(dp1805
g3
g4
((lp1806
tp1807
Rp1808
sg8
I00
sg9
g1804
ssg139
(dp1809
g3
g4
((lp1810
g136
atp1811
Rp1812
sg8
I00
sg9
g139
ssS'preregistration'
p1813
(dp1814
g3
g4
((lp1815
tp1816
Rp1817
sg8
I00
sg9
g1813
ssS'reinvestigation'
p1818
(dp1819
g3
g4
((lp1820
tp1821
Rp1822
sg8
I00
sg9
g1818
ssS'retransplanting'
p1823
(dp1824
g3
g4
((lp1825
tp1826
Rp1827
sg8
I00
sg9
g1823
ssS'instructorships'
p1828
(dp1829
g3
g4
((lp1830
tp1831
Rp1832
sg8
I00
sg9
g1828
ssS'microbiologists'
p1833
(dp1834
g3
g4
((lp1835
tp1836
Rp1837
sg8
I00
sg9
g1833
ssS'disinclinations'
p1838
(dp1839
g3
g4
((lp1840
tp1841
Rp1842
sg8
I00
sg9
g1838
ssS'misapprehension'
p1843
(dp1844
g3
g4
((lp1845
tp1846
Rp1847
sg8
I00
sg9
g1843
ssS'psychotherapist'
p1848
(dp1849
g3
g4
((lp1850
tp1851
Rp1852
sg8
I00
sg9
g1848
ssS'atmospherically'
p1853
(dp1854
g3
g4
((lp1855
tp1856
Rp1857
sg8
I00
sg9
g1853
ssS'mononucleosises'
p1858
(dp1859
g3
g4
((lp1860
tp1861
Rp1862
sg8
I00
sg9
g1858
ssS'surreptitiously'
p1863
(dp1864
g3
g4
((lp1865
tp1866
Rp1867
sg8
I00
sg9
g1863
ssS'extracurricular'
p1868
(dp1869
g3
g4
((lp1870
tp1871
Rp1872
sg8
I00
sg9
g1868
ssS'interuniversity'
p1873
(dp1874
g3
g4
((lp1875
tp1876
Rp1877
sg8
I00
sg9
g1873
ssS'indeterminately'
p1878
(dp1879
g3
g4
((lp1880
tp1881
Rp1882
sg8
I00
sg9
g1878
ssS'mistrustfulness'
p1883
(dp1884
g3
g4
((lp1885
tp1886
Rp1887
sg8
I00
sg9
g1883
ssS'impecuniousness'
p1888
(dp1889
g3
g4
((lp1890
tp1891
Rp1892
sg8
I00
sg9
g1888
ssS'classifications'
p1893
(dp1894
g3
g4
((lp1895
tp1896
Rp1897
sg8
I00
sg9
g1893
ssS'mercurialnesses'
p1898
(dp1899
g3
g4
((lp1900
tp1901
Rp1902
sg8
I00
sg9
g1898
ssg1264
(dp1903
g3
g4
((lp1904
g1261
atp1905
Rp1906
sg8
I00
sg9
g1264
ssS'interdivisional'
p1907
(dp1908
g3
g4
((lp1909
tp1910
Rp1911
sg8
I00
sg9
g1907
ssS'microbiological'
p1912
(dp1913
g3
g4
((lp1914
tp1915
Rp1916
sg8
I00
sg9
g1912
ssS'hotheadednesses'
p1917
(dp1918
g3
g4
((lp1919
tp1920
Rp1921
sg8
I00
sg9
g1917
ssg1390
(dp1922
g3
g4
((lp1923
g1387
atp1924
Rp1925
sg8
I00
sg9
g1390
ssS'discontinuation'
p1926
(dp1927
g3
g4
((lp1928
tp1929
Rp1930
sg8
I00
sg9
g1926
ssS'discouragements'
p1931
(dp1932
g3
g4
((lp1933
tp1934
Rp1935
sg8
I00
sg9
g1931
ssS'repetitiousness'
p1936
(dp1937
g3
g4
((lp1938
tp1939
Rp1940
sg8
I00
sg9
g1936
ssS'characteristics'
p1941
(dp1942
g3
g4
((lp1943
tp1944
Rp1945
sg8
I00
sg9
g1941
ssS'diversification'
p1946
(dp1947
g3
g4
((lp1948
tp1949
Rp1950
sg8
I00
sg9
g1946
ssS'overcapitalized'
p1951
(dp1952
g3
g4
((lp1953
S'overcapitalizes'
p1954
atp1955
Rp1956
sg8
I00
sg9
g1951
ssS'antishoplifting'
p1957
(dp1958
g3
g4
((lp1959
tp1960
Rp1961
sg8
I00
sg9
g1957
ssg1954
(dp1962
g3
g4
((lp1963
g1951
atp1964
Rp1965
sg8
I00
sg9
g1954
ssS'prognosticating'
p1966
(dp1967
g3
g4
((lp1968
tp1969
Rp1970
sg8
I00
sg9
g1966
ssS'supersuccessful'
p1971
(dp1972
g3
g4
((lp1973
tp1974
Rp1975
sg8
I00
sg9
g1971
ssS'reincorporating'
p1976
(dp1977
g3
g4
((lp1978
tp1979
Rp1980
sg8
I00
sg9
g1976
ssS'prefabrications'
p1981
(dp1982
g3
g4
((lp1983
tp1984
Rp1985
sg8
I00
sg9
g1981
ssS'antipornography'
p1986
(dp1987
g3
g4
((lp1988
tp1989
Rp1990
sg8
I00
sg9
g1986
ssS'miscellaneously'
p1991
(dp1992
g3
g4
((lp1993
tp1994
Rp1995
sg8
I00
sg9
g1991
ssS'inadmissibility'
p1996
(dp1997
g3
g4
((lp1998
tp1999
Rp2000
sg8
I00
sg9
g1996
ssS'superstructures'
p2001
(dp2002
g3
g4
((lp2003
tp2004
Rp2005
sg8
I00
sg9
g2001
ssS'invincibilities'
p2006
(dp2007
g3
g4
((lp2008
tp2009
Rp2010
sg8
I00
sg9
g2006
ssS'mellifluousness'
p2011
(dp2012
g3
g4
((lp2013
tp2014
Rp2015
sg8
I00
sg9
g2011
ssS'postadolescence'
p2016
(dp2017
g3
g4
((lp2018
tp2019
Rp2020
sg8
I00
sg9
g2016
ssS'introspectively'
p2021
(dp2022
g3
g4
((lp2023
tp2024
Rp2025
sg8
I00
sg9
g2021
ssS'litigiousnesses'
p2026
(dp2027
g3
g4
((lp2028
tp2029
Rp2030
sg8
I00
sg9
g2026
ssS'acceptabilities'
p2031
(dp2032
g3
g4
((lp2033
tp2034
Rp2035
sg8
I00
sg9
g2031
ssS'pharmacological'
p2036
(dp2037
g3
g4
((lp2038
tp2039
Rp2040
sg8
I00
sg9
g2036
ssS'postvaccination'
p2041
(dp2042
g3
g4
((lp2043
tp2044
Rp2045
sg8
I00
sg9
g2041
ssS'nonprofessional'
p2046
(dp2047
g3
g4
((lp2048
tp2049
Rp2050
sg8
I00
sg9
g2046
ssS'claustrophobias'
p2051
(dp2052
g3
g4
((lp2053
tp2054
Rp2055
sg8
I00
sg9
g2051
ssS'acknowledgement'
p2056
(dp2057
g3
g4
((lp2058
tp2059
Rp2060
sg8
I00
sg9
g2056
ssS'unconditionally'
p2061
(dp2062
g3
g4
((lp2063
tp2064
Rp2065
sg8
I00
sg9
g2061
ssS'dependabilities'
p2066
(dp2067
g3
g4
((lp2068
tp2069
Rp2070
sg8
I00
sg9
g2066
ssS'interconversion'
p2071
(dp2072
g3
g4
((lp2073
tp2074
Rp2075
sg8
I00
sg9
g2071
ssS'boundlessnesses'
p2076
(dp2077
g3
g4
((lp2078
tp2079
Rp2080
sg8
I00
sg9
g2076
ssS'phosphorescence'
p2081
(dp2082
g3
g4
((lp2083
tp2084
Rp2085
sg8
I00
sg9
g2081
ssS'homogeneousness'
p2086
(dp2087
g3
g4
((lp2088
tp2089
Rp2090
sg8
I00
sg9
g2086
ssS'demobilizations'
p2091
(dp2092
g3
g4
((lp2093
tp2094
Rp2095
sg8
I00
sg9
g2091
ssS'authoritatively'
p2096
(dp2097
g3
g4
((lp2098
tp2099
Rp2100
sg8
I00
sg9
g2096
ssS'insurrectionist'
p2101
(dp2102
g3
g4
((lp2103
tp2104
Rp2105
sg8
I00
sg9
g2101
ssS'misconstruction'
p2106
(dp2107
g3
g4
((lp2108
tp2109
Rp2110
sg8
I00
sg9
g2106
ssS'counterevidence'
p2111
(dp2112
g3
g4
((lp2113
tp2114
Rp2115
sg8
I00
sg9
g2111
ssS'overcompensated'
p2116
(dp2117
g3
g4
((lp2118
S'overcompensates'
p2119
atp2120
Rp2121
sg8
I00
sg9
g2116
ssS'electrification'
p2122
(dp2123
g3
g4
((lp2124
tp2125
Rp2126
sg8
I00
sg9
g2122
ssS'extrascholastic'
p2127
(dp2128
g3
g4
((lp2129
tp2130
Rp2131
sg8
I00
sg9
g2127
ssS'correspondences'
p2132
(dp2133
g3
g4
((lp2134
tp2135
Rp2136
sg8
I00
sg9
g2132
ssS'unnojectionable'
p2137
(dp2138
g3
g4
((lp2139
tp2140
Rp2141
sg8
I00
sg9
g2137
ssS'differentiation'
p2142
(dp2143
g3
g4
((lp2144
tp2145
Rp2146
sg8
I00
sg9
g2142
ssg2119
(dp2147
g3
g4
((lp2148
g2116
atp2149
Rp2150
sg8
I00
sg9
g2119
ssS'multidiscipline'
p2151
(dp2152
g3
g4
((lp2153
tp2154
Rp2155
sg8
I00
sg9
g2151
ssS'procrastinating'
p2156
(dp2157
g3
g4
((lp2158
tp2159
Rp2160
sg8
I00
sg9
g2156
ssS'ophthalmologies'
p2161
(dp2162
g3
g4
((lp2163
tp2164
Rp2165
sg8
I00
sg9
g2161
ssS'anaesthesiology'
p2166
(dp2167
g3
g4
((lp2168
tp2169
Rp2170
sg8
I00
sg9
g2166
ssS'insubordination'
p2171
(dp2172
g3
g4
((lp2173
tp2174
Rp2175
sg8
I00
sg9
g2171
ssS'cheerlessnesses'
p2176
(dp2177
g3
g4
((lp2178
tp2179
Rp2180
sg8
I00
sg9
g2176
ssS'resourcefulness'
p2181
(dp2182
g3
g4
((lp2183
tp2184
Rp2185
sg8
I00
sg9
g2181
ssS'insidiousnesses'
p2186
(dp2187
g3
g4
((lp2188
tp2189
Rp2190
sg8
I00
sg9
g2186
ssg1776
(dp2191
g3
g4
((lp2192
g1773
atp2193
Rp2194
sg8
I00
sg9
g1776
ssS'ritualistically'
p2195
(dp2196
g3
g4
((lp2197
tp2198
Rp2199
sg8
I00
sg9
g2195
ssS'wrongheadedness'
p2200
(dp2201
g3
g4
((lp2202
tp2203
Rp2204
sg8
I00
sg9
g2200
ssS'reorganizations'
p2205
(dp2206
g3
g4
((lp2207
tp2208
Rp2209
sg8
I00
sg9
g2205
ssS'incorrigibility'
p2210
(dp2211
g3
g4
((lp2212
tp2213
Rp2214
sg8
I00
sg9
g2210
ssS'mischievousness'
p2215
(dp2216
g3
g4
((lp2217
tp2218
Rp2219
sg8
I00
sg9
g2215
ssS'supergovernment'
p2220
(dp2221
g3
g4
((lp2222
tp2223
Rp2224
sg8
I00
sg9
g2220
ssS'uncomplimentary'
p2225
(dp2226
g3
g4
((lp2227
tp2228
Rp2229
sg8
I00
sg9
g2225
ssS'hypersuspicious'
p2230
(dp2231
g3
g4
((lp2232
tp2233
Rp2234
sg8
I00
sg9
g2230
ssS'microminiatures'
p2235
(dp2236
g3
g4
((lp2237
tp2238
Rp2239
sg8
I00
sg9
g2235
ssS'disadvantageous'
p2240
(dp2241
g3
g4
((lp2242
tp2243
Rp2244
sg8
I00
sg9
g2240
ssS'emancipatations'
p2245
(dp2246
g3
g4
((lp2247
tp2248
Rp2249
sg8
I00
sg9
g2245
ssS'standardization'
p2250
(dp2251
g3
g4
((lp2252
tp2253
Rp2254
sg8
I00
sg9
g2250
ssS'disenchantments'
p2255
(dp2256
g3
g4
((lp2257
tp2258
Rp2259
sg8
I00
sg9
g2255
ssS'interfraternity'
p2260
(dp2261
g3
g4
((lp2262
tp2263
Rp2264
sg8
I00
sg9
g2260
ssS'hypermoralistic'
p2265
(dp2266
g3
g4
((lp2267
tp2268
Rp2269
sg8
I00
sg9
g2265
ssS'intercollegiate'
p2270
(dp2271
g3
g4
((lp2272
tp2273
Rp2274
sg8
I00
sg9
g2270
ssS'acclimatization'
p2275
(dp2276
g3
g4
((lp2277
tp2278
Rp2279
sg8
I00
sg9
g2275
ssS'noninterference'
p2280
(dp2281
g3
g4
((lp2282
tp2283
Rp2284
sg8
I00
sg9
g2280
ssS'antitraditional'
p2285
(dp2286
g3
g4
((lp2287
tp2288
Rp2289
sg8
I00
sg9
g2285
ssS'contentednesses'
p2290
(dp2291
g3
g4
((lp2292
tp2293
Rp2294
sg8
I00
sg9
g2290
ssS'promiscuousness'
p2295
(dp2296
g3
g4
((lp2297
tp2298
Rp2299
sg8
I00
sg9
g2295
ssS'ludicrousnesses'
p2300
(dp2301
g3
g4
((lp2302
tp2303
Rp2304
sg8
I00
sg9
g2300
ssS'lymphocytopenia'
p2305
(dp2306
g3
g4
((lp2307
tp2308
Rp2309
sg8
I00
sg9
g2305
ssS'histopathologic'
p2310
(dp2311
g3
g4
((lp2312
tp2313
Rp2314
sg8
I00
sg9
g2310
ssS'sanctifications'
p2315
(dp2316
g3
g4
((lp2317
tp2318
Rp2319
sg8
I00
sg9
g2315
ssS'foolhardinesses'
p2320
(dp2321
g3
g4
((lp2322
tp2323
Rp2324
sg8
I00
sg9
g2320
ssS'deceitfulnesses'
p2325
(dp2326
g3
g4
((lp2327
tp2328
Rp2329
sg8
I00
sg9
g2325
ssS'psychologically'
p2330
(dp2331
g3
g4
((lp2332
tp2333
Rp2334
sg8
I00
sg9
g2330
ssS'hyperfastidious'
p2335
(dp2336
g3
g4
((lp2337
tp2338
Rp2339
sg8
I00
sg9
g2335
ssS'inaccessibility'
p2340
(dp2341
g3
g4
((lp2342
tp2343
Rp2344
sg8
I00
sg9
g2340
ssS'marvelousnesses'
p2345
(dp2346
g3
g4
((lp2347
tp2348
Rp2349
sg8
I00
sg9
g2345
ssS'wholesomenesses'
p2350
(dp2351
g3
g4
((lp2352
tp2353
Rp2354
sg8
I00
sg9
g2350
ssS'atherosclerotic'
p2355
(dp2356
g3
g4
((lp2357
tp2358
Rp2359
sg8
I00
sg9
g2355
ssS'impoverishments'
p2360
(dp2361
g3
g4
((lp2362
tp2363
Rp2364
sg8
I00
sg9
g2360
ssS'overproductions'
p2365
(dp2366
g3
g4
((lp2367
tp2368
Rp2369
sg8
I00
sg9
g2365
ssS'blameworthiness'
p2370
(dp2371
g3
g4
((lp2372
tp2373
Rp2374
sg8
I00
sg9
g2370
ssS'nontransferable'
p2375
(dp2376
g3
g4
((lp2377
tp2378
Rp2379
sg8
I00
sg9
g2375
ssS'naturalizations'
p2380
(dp2381
g3
g4
((lp2382
tp2383
Rp2384
sg8
I00
sg9
g2380
ssS'miniconventions'
p2385
(dp2386
g3
g4
((lp2387
tp2388
Rp2389
sg8
I00
sg9
g2385
ssS'instantaneously'
p2390
(dp2391
g3
g4
((lp2392
tp2393
Rp2394
sg8
I00
sg9
g2390
ssS'unconsciousness'
p2395
(dp2396
g3
g4
((lp2397
tp2398
Rp2399
sg8
I00
sg9
g2395
ssS'inviolabilities'
p2400
(dp2401
g3
g4
((lp2402
tp2403
Rp2404
sg8
I00
sg9
g2400
ssS'counterpetition'
p2405
(dp2406
g3
g4
((lp2407
tp2408
Rp2409
sg8
I00
sg9
g2405
ssS'exceptionalally'
p2410
(dp2411
g3
g4
((lp2412
tp2413
Rp2414
sg8
I00
sg9
g2410
ssS'chancellorships'
p2415
(dp2416
g3
g4
((lp2417
tp2418
Rp2419
sg8
I00
sg9
g2415
ssS'attainabilities'
p2420
(dp2421
g3
g4
((lp2422
tp2423
Rp2424
sg8
I00
sg9
g2420
ssS'bacteriological'
p2425
(dp2426
g3
g4
((lp2427
tp2428
Rp2429
sg8
I00
sg9
g2425
ssS'counterguerrila'
p2430
(dp2431
g3
g4
((lp2432
tp2433
Rp2434
sg8
I00
sg9
g2430
ssS'revolutionaries'
p2435
(dp2436
g3
g4
((lp2437
tp2438
Rp2439
sg8
I00
sg9
g2435
ssS'beautifications'
p2440
(dp2441
g3
g4
((lp2442
tp2443
Rp2444
sg8
I00
sg9
g2440
ssS'nongovernmental'
p2445
(dp2446
g3
g4
((lp2447
tp2448
Rp2449
sg8
I00
sg9
g2445
ssS'dissatisfaction'
p2450
(dp2451
g3
g4
((lp2452
tp2453
Rp2454
sg8
I00
sg9
g2450
ssS'whippersnappers'
p2455
(dp2456
g3
g4
((lp2457
tp2458
Rp2459
sg8
I00
sg9
g2455
ssS'inattentiveness'
p2460
(dp2461
g3
g4
((lp2462
tp2463
Rp2464
sg8
I00
sg9
g2460
ssS'troubleshooting'
p2465
(dp2466
g3
g4
((lp2467
tp2468
Rp2469
sg8
I00
sg9
g2465
ssS'interdependence'
p2470
(dp2471
g3
g4
((lp2472
tp2473
Rp2474
sg8
I00
sg9
g2470
ssS'overdramatizing'
p2475
(dp2476
g3
g4
((lp2477
tp2478
Rp2479
sg8
I00
sg9
g2475
ssS'multifunctional'
p2480
(dp2481
g3
g4
((lp2482
tp2483
Rp2484
sg8
I00
sg9
g2480
ssS'responsiblities'
p2485
(dp2486
g3
g4
((lp2487
tp2488
Rp2489
sg8
I00
sg9
g2485
ssS'misunderstanded'
p2490
(dp2491
g3
g4
((lp2492
tp2493
Rp2494
sg8
I00
sg9
g2490
ssS'overprescribing'
p2495
(dp2496
g3
g4
((lp2497
tp2498
Rp2499
sg8
I00
sg9
g2495
ssS'crystallization'
p2500
(dp2501
g3
g4
((lp2502
tp2503
Rp2504
sg8
I00
sg9
g2500
ssS'overinfluencing'
p2505
(dp2506
g3
g4
((lp2507
tp2508
Rp2509
sg8
I00
sg9
g2505
ssS'hyperadrenalism'
p2510
(dp2511
g3
g4
((lp2512
tp2513
Rp2514
sg8
I00
sg9
g2510
ssS'nonconstructive'
p2515
(dp2516
g3
g4
((lp2517
tp2518
Rp2519
sg8
I00
sg9
g2515
ssS'sentimentalisms'
p2520
(dp2521
g3
g4
((lp2522
S'sentimentalists'
p2523
atp2524
Rp2525
sg8
I00
sg9
g2520
ssS'therapeutically'
p2526
(dp2527
g3
g4
((lp2528
tp2529
Rp2530
sg8
I00
sg9
g2526
ssS'incorrectnesses'
p2531
(dp2532
g3
g4
((lp2533
tp2534
Rp2535
sg8
I00
sg9
g2531
ssS'proportionately'
p2536
(dp2537
g3
g4
((lp2538
tp2539
Rp2540
sg8
I00
sg9
g2536
ssS'discriminations'
p2541
(dp2542
g3
g4
((lp2543
tp2544
Rp2545
sg8
I00
sg9
g2541
ssS'metallurgically'
p2546
(dp2547
g3
g4
((lp2548
tp2549
Rp2550
sg8
I00
sg9
g2546
ssS'photosynthesize'
p2551
(dp2552
g3
g4
((lp2553
tp2554
Rp2555
sg8
I00
sg9
g2551
ssS'presuppositions'
p2556
(dp2557
g3
g4
((lp2558
tp2559
Rp2560
sg8
I00
sg9
g2556
ssg2523
(dp2561
g3
g4
((lp2562
g2520
atp2563
Rp2564
sg8
I00
sg9
g2523
ssS'radioactivities'
p2565
(dp2566
g3
g4
((lp2567
tp2568
Rp2569
sg8
I00
sg9
g2565
ssS'congratulations'
p2570
(dp2571
g3
g4
((lp2572
tp2573
Rp2574
sg8
I00
sg9
g2570
ssS'rehabilitations'
p2575
(dp2576
g3
g4
((lp2577
tp2578
Rp2579
sg8
I00
sg9
g2575
ssS'superabundances'
p2580
(dp2581
g3
g4
((lp2582
tp2583
Rp2584
sg8
I00
sg9
g2580
ssS'humidifications'
p2585
(dp2586
g3
g4
((lp2587
tp2588
Rp2589
sg8
I00
sg9
g2585
ssS'reacclimatizing'
p2590
(dp2591
g3
g4
((lp2592
tp2593
Rp2594
sg8
I00
sg9
g2590
ssS'multiplications'
p2595
(dp2596
g3
g4
((lp2597
tp2598
Rp2599
sg8
I00
sg9
g2595
ssS'obnoxiousnesses'
p2600
(dp2601
g3
g4
((lp2602
tp2603
Rp2604
sg8
I00
sg9
g2600
ssS'nonparticipants'
p2605
(dp2606
g3
g4
((lp2607
tp2608
Rp2609
sg8
I00
sg9
g2605
ssS'melodiousnesses'
p2610
(dp2611
g3
g4
((lp2612
tp2613
Rp2614
sg8
I00
sg9
g2610
ssS'countertendency'
p2615
(dp2616
g3
g4
((lp2617
tp2618
Rp2619
sg8
I00
sg9
g2615
ssS'countermeasures'
p2620
(dp2621
g3
g4
((lp2622
tp2623
Rp2624
sg8
I00
sg9
g2620
ssS'reflexivenesses'
p2625
(dp2626
g3
g4
((lp2627
tp2628
Rp2629
sg8
I00
sg9
g2625
ssS'inflexibilities'
p2630
(dp2631
g3
g4
((lp2632
tp2633
Rp2634
sg8
I00
sg9
g2630
ssS'reconsolidating'
p2635
(dp2636
g3
g4
((lp2637
tp2638
Rp2639
sg8
I00
sg9
g2635
ssS'hospitalization'
p2640
(dp2641
g3
g4
((lp2642
tp2643
Rp2644
sg8
I00
sg9
g2640
ssS'sympathetically'
p2645
(dp2646
g3
g4
((lp2647
tp2648
Rp2649
sg8
I00
sg9
g2645
ssS'symptomatically'
p2650
(dp2651
g3
g4
((lp2652
tp2653
Rp2654
sg8
I00
sg9
g2650
ssS'housewifeliness'
p2655
(dp2656
g3
g4
((lp2657
tp2658
Rp2659
sg8
I00
sg9
g2655
ssS'momentousnesses'
p2660
(dp2661
g3
g4
((lp2662
tp2663
Rp2664
sg8
I00
sg9
g2660
ssS'relinquishments'
p2665
(dp2666
g3
g4
((lp2667
tp2668
Rp2669
sg8
I00
sg9
g2665
ssS'preimmunization'
p2670
(dp2671
g3
g4
((lp2672
tp2673
Rp2674
sg8
I00
sg9
g2670
ssS'overimaginative'
p2675
(dp2676
g3
g4
((lp2677
tp2678
Rp2679
sg8
I00
sg9
g2675
ssS'misinterpreting'
p2680
(dp2681
g3
g4
((lp2682
tp2683
Rp2684
sg8
I00
sg9
g2680
ssS'overacceptances'
p2685
(dp2686
g3
g4
((lp2687
tp2688
Rp2689
sg8
I00
sg9
g2685
ssS'accessibilities'
p2690
(dp2691
g3
g4
((lp2692
tp2693
Rp2694
sg8
I00
sg9
g2690
ssS'impossibilities'
p2695
(dp2696
g3
g4
((lp2697
tp2698
Rp2699
sg8
I00
sg9
g2695
ssS'assertivenesses'
p2700
(dp2701
g3
g4
((lp2702
tp2703
Rp2704
sg8
I00
sg9
g2700
ssS'psychotherapies'
p2705
(dp2706
g3
g4
((lp2707
tp2708
Rp2709
sg8
I00
sg9
g2705
ssS'counterassaults'
p2710
(dp2711
g3
g4
((lp2712
tp2713
Rp2714
sg8
I00
sg9
g2710
ssS'overfertilizing'
p2715
(dp2716
g3
g4
((lp2717
tp2718
Rp2719
sg8
I00
sg9
g2715
ssS'retrospectively'
p2720
(dp2721
g3
g4
((lp2722
tp2723
Rp2724
sg8
I00
sg9
g2720
ssS'monopolizations'
p2725
(dp2726
g3
g4
((lp2727
tp2728
Rp2729
sg8
I00
sg9
g2725
ssS'superpatriotism'
p2730
(dp2731
g3
g4
((lp2732
tp2733
Rp2734
sg8
I00
sg9
g2730
ssS'rapaciousnesses'
p2735
(dp2736
g3
g4
((lp2737
tp2738
Rp2739
sg8
I00
sg9
g2735
ssS'overconsumption'
p2740
(dp2741
g3
g4
((lp2742
tp2743
Rp2744
sg8
I00
sg9
g2740
ssS'considerateness'
p2745
(dp2746
g3
g4
((lp2747
tp2748
Rp2749
sg8
I00
sg9
g2745
ssS'noninflationary'
p2750
(dp2751
g3
g4
((lp2752
tp2753
Rp2754
sg8
I00
sg9
g2750
ssS'applicabilities'
p2755
(dp2756
g3
g4
((lp2757
tp2758
Rp2759
sg8
I00
sg9
g2755
ssS'misapprehending'
p2760
(dp2761
g3
g4
((lp2762
tp2763
Rp2764
sg8
I00
sg9
g2760
ssS'perpendicularly'
p2765
(dp2766
g3
g4
((lp2767
tp2768
Rp2769
sg8
I00
sg9
g2765
ssS'industrializing'
p2770
(dp2771
g3
g4
((lp2772
tp2773
Rp2774
sg8
I00
sg9
g2770
ssS'electromagnetic'
p2775
(dp2776
g3
g4
((lp2777
tp2778
Rp2779
sg8
I00
sg9
g2775
ssS'disorganization'
p2780
(dp2781
g3
g4
((lp2782
tp2783
Rp2784
sg8
I00
sg9
g2780
ssS'sophistications'
p2785
(dp2786
g3
g4
((lp2787
tp2788
Rp2789
sg8
I00
sg9
g2785
ss.