(dp0
S'farsightednesses'
p1
(dp2
S'neighbors'
p3
c__builtin__
set
p4
((lp5
tp6
Rp7
sS'visited'
p8
I00
sS'word'
p9
g1
ssS'suggestivenesses'
p10
(dp11
g3
g4
((lp12
tp13
Rp14
sg8
I00
sg9
g10
ssS'myelosuppression'
p15
(dp16
g3
g4
((lp17
tp18
Rp19
sg8
I00
sg9
g15
ssS'chivalrousnesses'
p20
(dp21
g3
g4
((lp22
tp23
Rp24
sg8
I00
sg9
g20
ssS'countercriticism'
p25
(dp26
g3
g4
((lp27
tp28
Rp29
sg8
I00
sg9
g25
ssS'preregistrations'
p30
(dp31
g3
g4
((lp32
tp33
Rp34
sg8
I00
sg9
g30
ssS'productivenesses'
p35
(dp36
g3
g4
((lp37
tp38
Rp39
sg8
I00
sg9
g35
ssS'anticapitalistic'
p40
(dp41
g3
g4
((lp42
tp43
Rp44
sg8
I00
sg9
g40
ssS'indestrucibility'
p45
(dp46
g3
g4
((lp47
tp48
Rp49
sg8
I00
sg9
g45
ssS'counterclockwise'
p50
(dp51
g3
g4
((lp52
tp53
Rp54
sg8
I00
sg9
g50
ssS'perfectibilities'
p55
(dp56
g3
g4
((lp57
tp58
Rp59
sg8
I00
sg9
g55
ssS'undersecretaries'
p60
(dp61
g3
g4
((lp62
tp63
Rp64
sg8
I00
sg9
g60
ssS'enfranchisements'
p65
(dp66
g3
g4
((lp67
tp68
Rp69
sg8
I00
sg9
g65
ssS'ungratefulnesses'
p70
(dp71
g3
g4
((lp72
tp73
Rp74
sg8
I00
sg9
g70
ssS'implausibilities'
p75
(dp76
g3
g4
((lp77
tp78
Rp79
sg8
I00
sg9
g75
ssS'counterblockades'
p80
(dp81
g3
g4
((lp82
tp83
Rp84
sg8
I00
sg9
g80
ssS'neighborlinesses'
p85
(dp86
g3
g4
((lp87
tp88
Rp89
sg8
I00
sg9
g85
ssS'practicabilities'
p90
(dp91
g3
g4
((lp92
tp93
Rp94
sg8
I00
sg9
g90
ssS'superficialities'
p95
(dp96
g3
g4
((lp97
tp98
Rp99
sg8
I00
sg9
g95
ssS'arteriosclerosis'
p100
(dp101
g3
g4
((lp102
tp103
Rp104
sg8
I00
sg9
g100
ssS'counterterrorism'
p105
(dp106
g3
g4
((lp107
S'counterterrorist'
p108
atp109
Rp110
sg8
I00
sg9
g105
ssS'environmentalist'
p111
(dp112
g3
g4
((lp113
tp114
Rp115
sg8
I00
sg9
g111
ssS'chemotherapeutic'
p116
(dp117
g3
g4
((lp118
tp119
Rp120
sg8
I00
sg9
g116
ssS'retrievabilities'
p121
(dp122
g3
g4
((lp123
tp124
Rp125
sg8
I00
sg9
g121
ssS'responsibilities'
p126
(dp127
g3
g4
((lp128
tp129
Rp130
sg8
I00
sg9
g126
ssS'antievolutionary'
p131
(dp132
g3
g4
((lp133
tp134
Rp135
sg8
I00
sg9
g131
ssS'counterproposals'
p136
(dp137
g3
g4
((lp138
tp139
Rp140
sg8
I00
sg9
g136
ssS'superpatriotisms'
p141
(dp142
g3
g4
((lp143
tp144
Rp145
sg8
I00
sg9
g141
ssS'lasciviousnesses'
p146
(dp147
g3
g4
((lp148
tp149
Rp150
sg8
I00
sg9
g146
ssS'circumnavigating'
p151
(dp152
g3
g4
((lp153
tp154
Rp155
sg8
I00
sg9
g151
ssS'insurrectionists'
p156
(dp157
g3
g4
((lp158
tp159
Rp160
sg8
I00
sg9
g156
ssS'censoriousnesses'
p161
(dp162
g3
g4
((lp163
tp164
Rp165
sg8
I00
sg9
g161
ssS'hospitalizations'
p166
(dp167
g3
g4
((lp168
tp169
Rp170
sg8
I00
sg9
g166
ssS'disproportionate'
p171
(dp172
g3
g4
((lp173
tp174
Rp175
sg8
I00
sg9
g171
ssS'superintendences'
p176
(dp177
g3
g4
((lp178
tp179
Rp180
sg8
I00
sg9
g176
ssS'decentralization'
p181
(dp182
g3
g4
((lp183
tp184
Rp185
sg8
I00
sg9
g181
ssS'unconstitutional'
p186
(dp187
g3
g4
((lp188
tp189
Rp190
sg8
I00
sg9
g186
ssS'perpendicularity'
p191
(dp192
g3
g4
((lp193
tp194
Rp195
sg8
I00
sg9
g191
ssS'ridiculousnesses'
p196
(dp197
g3
g4
((lp198
tp199
Rp200
sg8
I00
sg9
g196
ssS'disfranchisement'
p201
(dp202
g3
g4
((lp203
tp204
Rp205
sg8
I00
sg9
g201
ssS'counterquestions'
p206
(dp207
g3
g4
((lp208
tp209
Rp210
sg8
I00
sg9
g206
ssS'multimillionaire'
p211
(dp212
g3
g4
((lp213
tp214
Rp215
sg8
I00
sg9
g211
ssS'misunderstanding'
p216
(dp217
g3
g4
((lp218
tp219
Rp220
sg8
I00
sg9
g216
ssS'relentlessnesses'
p221
(dp222
g3
g4
((lp223
tp224
Rp225
sg8
I00
sg9
g221
ssS'generalizability'
p226
(dp227
g3
g4
((lp228
tp229
Rp230
sg8
I00
sg9
g226
ssS'enthusiastically'
p231
(dp232
g3
g4
((lp233
tp234
Rp235
sg8
I00
sg9
g231
ssS'intensifications'
p236
(dp237
g3
g4
((lp238
tp239
Rp240
sg8
I00
sg9
g236
ssS'artificialnesses'
p241
(dp242
g3
g4
((lp243
tp244
Rp245
sg8
I00
sg9
g241
ssS'agriculturalists'
p246
(dp247
g3
g4
((lp248
tp249
Rp250
sg8
I00
sg9
g246
ssS'multidimensional'
p251
(dp252
g3
g4
((lp253
tp254
Rp255
sg8
I00
sg9
g251
ssg108
(dp256
g3
g4
((lp257
g105
atp258
Rp259
sg8
I00
sg9
g108
ssS'materializations'
p260
(dp261
g3
g4
((lp262
tp263
Rp264
sg8
I00
sg9
g260
ssS'photosynthesises'
p265
(dp266
g3
g4
((lp267
S'photosynthesizes'
p268
atp269
Rp270
sg8
I00
sg9
g265
ssS'capitalistically'
p271
(dp272
g3
g4
((lp273
tp274
Rp275
sg8
I00
sg9
g271
ssS'sentimentalizing'
p276
(dp277
g3
g4
((lp278
tp279
Rp280
sg8
I00
sg9
g276
ssS'organizationally'
p281
(dp282
g3
g4
((lp283
tp284
Rp285
sg8
I00
sg9
g281
ssS'overenthusiastic'
p286
(dp287
g3
g4
((lp288
tp289
Rp290
sg8
I00
sg9
g286
ssS'cardiotoxicities'
p291
(dp292
g3
g4
((lp293
tp294
Rp295
sg8
I00
sg9
g291
ssS'exemplifications'
p296
(dp297
g3
g4
((lp298
tp299
Rp300
sg8
I00
sg9
g296
ssS'gregariousnesses'
p301
(dp302
g3
g4
((lp303
tp304
Rp305
sg8
I00
sg9
g301
ssS'indemnifications'
p306
(dp307
g3
g4
((lp308
tp309
Rp310
sg8
I00
sg9
g306
ssS'parliamentarians'
p311
(dp312
g3
g4
((lp313
tp314
Rp315
sg8
I00
sg9
g311
ssS'reclassification'
p316
(dp317
g3
g4
((lp318
tp319
Rp320
sg8
I00
sg9
g316
ssS'overspecializing'
p321
(dp322
g3
g4
((lp323
tp324
Rp325
sg8
I00
sg9
g321
ssS'disorganizations'
p326
(dp327
g3
g4
((lp328
tp329
Rp330
sg8
I00
sg9
g326
ssS'permissivenesses'
p331
(dp332
g3
g4
((lp333
tp334
Rp335
sg8
I00
sg9
g331
ssS'hydroelectricity'
p336
(dp337
g3
g4
((lp338
tp339
Rp340
sg8
I00
sg9
g336
ssS'synchronizations'
p341
(dp342
g3
g4
((lp343
tp344
Rp345
sg8
I00
sg9
g341
ssS'counterattacking'
p346
(dp347
g3
g4
((lp348
tp349
Rp350
sg8
I00
sg9
g346
ssS'absentmindedness'
p351
(dp352
g3
g4
((lp353
tp354
Rp355
sg8
I00
sg9
g351
ssS'overcompensating'
p356
(dp357
g3
g4
((lp358
tp359
Rp360
sg8
I00
sg9
g356
ssS'electrifications'
p361
(dp362
g3
g4
((lp363
tp364
Rp365
sg8
I00
sg9
g361
ssS'superspecialists'
p366
(dp367
g3
g4
((lp368
tp369
Rp370
sg8
I00
sg9
g366
ssS'undernourishment'
p371
(dp372
g3
g4
((lp373
tp374
Rp375
sg8
I00
sg9
g371
ssS'humanitarianisms'
p376
(dp377
g3
g4
((lp378
tp379
Rp380
sg8
I00
sg9
g376
ssS'insubordinations'
p381
(dp382
g3
g4
((lp383
tp384
Rp385
sg8
I00
sg9
g381
ssS'counterrebuttals'
p386
(dp387
g3
g4
((lp388
tp389
Rp390
sg8
I00
sg9
g386
ssS'administratively'
p391
(dp392
g3
g4
((lp393
tp394
Rp395
sg8
I00
sg9
g391
ssS'misapprehensions'
p396
(dp397
g3
g4
((lp398
tp399
Rp400
sg8
I00
sg9
g396
ssS'respectabilities'
p401
(dp402
g3
g4
((lp403
tp404
Rp405
sg8
I00
sg9
g401
ssS'postadolescences'
p406
(dp407
g3
g4
((lp408
tp409
Rp410
sg8
I00
sg9
g406
ssS'antimilitaristic'
p411
(dp412
g3
g4
((lp413
tp414
Rp415
sg8
I00
sg9
g411
ssS'remarkablenesses'
p416
(dp417
g3
g4
((lp418
tp419
Rp420
sg8
I00
sg9
g416
ssS'uncharacteristic'
p421
(dp422
g3
g4
((lp423
tp424
Rp425
sg8
I00
sg9
g421
ssS'autobiographical'
p426
(dp427
g3
g4
((lp428
tp429
Rp430
sg8
I00
sg9
g426
ssS'crystallizations'
p431
(dp432
g3
g4
((lp433
tp434
Rp435
sg8
I00
sg9
g431
ssS'obstreperousness'
p436
(dp437
g3
g4
((lp438
tp439
Rp440
sg8
I00
sg9
g436
ssS'countercampaigns'
p441
(dp442
g3
g4
((lp443
tp444
Rp445
sg8
I00
sg9
g441
ssS'antiracketeering'
p446
(dp447
g3
g4
((lp448
tp449
Rp450
sg8
I00
sg9
g446
ssS'motionlessnesses'
p451
(dp452
g3
g4
((lp453
tp454
Rp455
sg8
I00
sg9
g451
ssS'internationalize'
p456
(dp457
g3
g4
((lp458
tp459
Rp460
sg8
I00
sg9
g456
ssS'nationalizations'
p461
(dp462
g3
g4
((lp463
S'rationalizations'
p464
atp465
Rp466
sg8
I00
sg9
g461
ssS'inadvisabilities'
p467
(dp468
g3
g4
((lp469
tp470
Rp471
sg8
I00
sg9
g467
ssg268
(dp472
g3
g4
((lp473
S'photosynthesized'
p474
ag265
atp475
Rp476
sg8
I00
sg9
g268
ssS'counterinfluence'
p477
(dp478
g3
g4
((lp479
tp480
Rp481
sg8
I00
sg9
g477
ssS'malodorousnesses'
p482
(dp483
g3
g4
((lp484
tp485
Rp486
sg8
I00
sg9
g482
ssS'responsivenesses'
p487
(dp488
g3
g4
((lp489
tp490
Rp491
sg8
I00
sg9
g487
ssS'reinvestigations'
p492
(dp493
g3
g4
((lp494
tp495
Rp496
sg8
I00
sg9
g492
ssS'counterchallenge'
p497
(dp498
g3
g4
((lp499
tp500
Rp501
sg8
I00
sg9
g497
ssS'conservationists'
p502
(dp503
g3
g4
((lp504
tp505
Rp506
sg8
I00
sg9
g502
ssS'combustibilities'
p507
(dp508
g3
g4
((lp509
tp510
Rp511
sg8
I00
sg9
g507
ssS'counterevidences'
p512
(dp513
g3
g4
((lp514
tp515
Rp516
sg8
I00
sg9
g512
ssS'coproprietorship'
p517
(dp518
g3
g4
((lp519
tp520
Rp521
sg8
I00
sg9
g517
ssS'nonproliferation'
p522
(dp523
g3
g4
((lp524
tp525
Rp526
sg8
I00
sg9
g522
ssS'extraterrestrial'
p527
(dp528
g3
g4
((lp529
tp530
Rp531
sg8
I00
sg9
g527
ssS'rebelliousnesses'
p532
(dp533
g3
g4
((lp534
tp535
Rp536
sg8
I00
sg9
g532
ssS'internationalism'
p537
(dp538
g3
g4
((lp539
tp540
Rp541
sg8
I00
sg9
g537
ssS'lightheartedness'
p542
(dp543
g3
g4
((lp544
tp545
Rp546
sg8
I00
sg9
g542
ssS'arteriosclerotic'
p547
(dp548
g3
g4
((lp549
tp550
Rp551
sg8
I00
sg9
g547
ssS'multidirectional'
p552
(dp553
g3
g4
((lp554
tp555
Rp556
sg8
I00
sg9
g552
ssS'indecorousnesses'
p557
(dp558
g3
g4
((lp559
tp560
Rp561
sg8
I00
sg9
g557
ssS'hypersusceptible'
p562
(dp563
g3
g4
((lp564
tp565
Rp566
sg8
I00
sg9
g562
ssg464
(dp567
g3
g4
((lp568
g461
atp569
Rp570
sg8
I00
sg9
g464
ssS'accountabilities'
p571
(dp572
g3
g4
((lp573
tp574
Rp575
sg8
I00
sg9
g571
ssS'multilingualisms'
p576
(dp577
g3
g4
((lp578
tp579
Rp580
sg8
I00
sg9
g576
ssS'counterpressures'
p581
(dp582
g3
g4
((lp583
tp584
Rp585
sg8
I00
sg9
g581
ssS'superintelligent'
p586
(dp587
g3
g4
((lp588
tp589
Rp590
sg8
I00
sg9
g586
ssS'interjectionally'
p591
(dp592
g3
g4
((lp593
tp594
Rp595
sg8
I00
sg9
g591
ssS'instrumentalists'
p596
(dp597
g3
g4
((lp598
tp599
Rp600
sg8
I00
sg9
g596
ssS'adventitiousness'
p601
(dp602
g3
g4
((lp603
tp604
Rp605
sg8
I00
sg9
g601
ssS'villianousnesses'
p606
(dp607
g3
g4
((lp608
tp609
Rp610
sg8
I00
sg9
g606
ssS'deliberatenesses'
p611
(dp612
g3
g4
((lp613
tp614
Rp615
sg8
I00
sg9
g611
ssS'thermostatically'
p616
(dp617
g3
g4
((lp618
tp619
Rp620
sg8
I00
sg9
g616
ssS'countercomplaint'
p621
(dp622
g3
g4
((lp623
tp624
Rp625
sg8
I00
sg9
g621
ssS'interrelatedness'
p626
(dp627
g3
g4
((lp628
tp629
Rp630
sg8
I00
sg9
g626
ssS'repetitivenesses'
p631
(dp632
g3
g4
((lp633
tp634
Rp635
sg8
I00
sg9
g631
ssS'indiscriminately'
p636
(dp637
g3
g4
((lp638
tp639
Rp640
sg8
I00
sg9
g636
ssS'remunerativeness'
p641
(dp642
g3
g4
((lp643
tp644
Rp645
sg8
I00
sg9
g641
ssS'disorderlinesses'
p646
(dp647
g3
g4
((lp648
tp649
Rp650
sg8
I00
sg9
g646
ssS'instrumentations'
p651
(dp652
g3
g4
((lp653
tp654
Rp655
sg8
I00
sg9
g651
ssS'expressivenesses'
p656
(dp657
g3
g4
((lp658
tp659
Rp660
sg8
I00
sg9
g656
ssS'overrepresenting'
p661
(dp662
g3
g4
((lp663
tp664
Rp665
sg8
I00
sg9
g661
ssS'reasonablenesses'
p666
(dp667
g3
g4
((lp668
tp669
Rp670
sg8
I00
sg9
g666
ssS'impressivenesses'
p671
(dp672
g3
g4
((lp673
tp674
Rp675
sg8
I00
sg9
g671
ssS'personifications'
p676
(dp677
g3
g4
((lp678
tp679
Rp680
sg8
I00
sg9
g676
ssS'meticulousnesses'
p681
(dp682
g3
g4
((lp683
tp684
Rp685
sg8
I00
sg9
g681
ssS'circumnavigation'
p686
(dp687
g3
g4
((lp688
tp689
Rp690
sg8
I00
sg9
g686
ssS'characterization'
p691
(dp692
g3
g4
((lp693
tp694
Rp695
sg8
I00
sg9
g691
ssS'overexaggerating'
p696
(dp697
g3
g4
((lp698
tp699
Rp700
sg8
I00
sg9
g696
ssS'acclimatizations'
p701
(dp702
g3
g4
((lp703
tp704
Rp705
sg8
I00
sg9
g701
ssS'cyclophosphamide'
p706
(dp707
g3
g4
((lp708
tp709
Rp710
sg8
I00
sg9
g706
ssS'counterpetitions'
p711
(dp712
g3
g4
((lp713
tp714
Rp715
sg8
I00
sg9
g711
ssS'hysterectomizing'
p716
(dp717
g3
g4
((lp718
tp719
Rp720
sg8
I00
sg9
g716
ssS'excommunications'
p721
(dp722
g3
g4
((lp723
tp724
Rp725
sg8
I00
sg9
g721
ssS'prenotifications'
p726
(dp727
g3
g4
((lp728
tp729
Rp730
sg8
I00
sg9
g726
ssS'methodicalnesses'
p731
(dp732
g3
g4
((lp733
tp734
Rp735
sg8
I00
sg9
g731
ssS'monotonousnesses'
p736
(dp737
g3
g4
((lp738
tp739
Rp740
sg8
I00
sg9
g736
ssS'standardizations'
p741
(dp742
g3
g4
((lp743
tp744
Rp745
sg8
I00
sg9
g741
ssS'transfigurations'
p746
(dp747
g3
g4
((lp748
tp749
Rp750
sg8
I00
sg9
g746
ssS'representatively'
p751
(dp752
g3
g4
((lp753
tp754
Rp755
sg8
I00
sg9
g751
ssS'antitotalitarian'
p756
(dp757
g3
g4
((lp758
tp759
Rp760
sg8
I00
sg9
g756
ssS'professionalizes'
p761
(dp762
g3
g4
((lp763
S'professionalized'
p764
atp765
Rp766
sg8
I00
sg9
g761
ssS'incompletenesses'
p767
(dp768
g3
g4
((lp769
tp770
Rp771
sg8
I00
sg9
g767
ssS'overconsumptions'
p772
(dp773
g3
g4
((lp774
tp775
Rp776
sg8
I00
sg9
g772
ssS'cantankerousness'
p777
(dp778
g3
g4
((lp779
tp780
Rp781
sg8
I00
sg9
g777
ssS'unpleasantnesses'
p782
(dp783
g3
g4
((lp784
tp785
Rp786
sg8
I00
sg9
g782
ssS'irresponsibility'
p787
(dp788
g3
g4
((lp789
tp790
Rp791
sg8
I00
sg9
g787
ssS'misappropriating'
p792
(dp793
g3
g4
((lp794
tp795
Rp796
sg8
I00
sg9
g792
ssg474
(dp797
g3
g4
((lp798
g268
atp799
Rp800
sg8
I00
sg9
g474
ssS'biodegradability'
p801
(dp802
g3
g4
((lp803
tp804
Rp805
sg8
I00
sg9
g801
ssS'precariousnesses'
p806
(dp807
g3
g4
((lp808
tp809
Rp810
sg8
I00
sg9
g806
ssS'prerevolutionary'
p811
(dp812
g3
g4
((lp813
tp814
Rp815
sg8
I00
sg9
g811
ssS'mysteriousnesses'
p816
(dp817
g3
g4
((lp818
tp819
Rp820
sg8
I00
sg9
g816
ssS'mispronunciation'
p821
(dp822
g3
g4
((lp823
tp824
Rp825
sg8
I00
sg9
g821
ssS'disqualification'
p826
(dp827
g3
g4
((lp828
tp829
Rp830
sg8
I00
sg9
g826
ssS'overexaggeration'
p831
(dp832
g3
g4
((lp833
tp834
Rp835
sg8
I00
sg9
g831
ssS'antiprofiteering'
p836
(dp837
g3
g4
((lp838
tp839
Rp840
sg8
I00
sg9
g836
ssS'forthrightnesses'
p841
(dp842
g3
g4
((lp843
tp844
Rp845
sg8
I00
sg9
g841
ssS'omnivorousnesses'
p846
(dp847
g3
g4
((lp848
tp849
Rp850
sg8
I00
sg9
g846
ssS'extracontinental'
p851
(dp852
g3
g4
((lp853
tp854
Rp855
sg8
I00
sg9
g851
ssS'prestidigitation'
p856
(dp857
g3
g4
((lp858
tp859
Rp860
sg8
I00
sg9
g856
ssS'phosphorescences'
p861
(dp862
g3
g4
((lp863
tp864
Rp865
sg8
I00
sg9
g861
ssS'cytopathological'
p866
(dp867
g3
g4
((lp868
tp869
Rp870
sg8
I00
sg9
g866
ssS'experimentations'
p871
(dp872
g3
g4
((lp873
tp874
Rp875
sg8
I00
sg9
g871
ssS'reestablishments'
p876
(dp877
g3
g4
((lp878
tp879
Rp880
sg8
I00
sg9
g876
ssS'counterintrigues'
p881
(dp882
g3
g4
((lp883
tp884
Rp885
sg8
I00
sg9
g881
ssS'heterogenousness'
p886
(dp887
g3
g4
((lp888
tp889
Rp890
sg8
I00
sg9
g886
ssS'anticonservation'
p891
(dp892
g3
g4
((lp893
tp894
Rp895
sg8
I00
sg9
g891
ssS'masculinizations'
p896
(dp897
g3
g4
((lp898
tp899
Rp900
sg8
I00
sg9
g896
ssS'licentiousnesses'
p901
(dp902
g3
g4
((lp903
tp904
Rp905
sg8
I00
sg9
g901
ssS'dissatisfactions'
p906
(dp907
g3
g4
((lp908
tp909
Rp910
sg8
I00
sg9
g906
ssS'thermometrically'
p911
(dp912
g3
g4
((lp913
tp914
Rp915
sg8
I00
sg9
g911
ssS'intellectualisms'
p916
(dp917
g3
g4
((lp918
tp919
Rp920
sg8
I00
sg9
g916
ssS'harmoniousnesses'
p921
(dp922
g3
g4
((lp923
tp924
Rp925
sg8
I00
sg9
g921
ssS'counterbalancing'
p926
(dp927
g3
g4
((lp928
tp929
Rp930
sg8
I00
sg9
g926
ssS'contraindicating'
p931
(dp932
g3
g4
((lp933
tp934
Rp935
sg8
I00
sg9
g931
ssS'psychotherapists'
p936
(dp937
g3
g4
((lp938
tp939
Rp940
sg8
I00
sg9
g936
ssS'anticonventional'
p941
(dp942
g3
g4
((lp943
tp944
Rp945
sg8
I00
sg9
g941
ssS'obsequiousnesses'
p946
(dp947
g3
g4
((lp948
tp949
Rp950
sg8
I00
sg9
g946
ssS'interdependences'
p951
(dp952
g3
g4
((lp953
tp954
Rp955
sg8
I00
sg9
g951
ssS'noncontroversial'
p956
(dp957
g3
g4
((lp958
tp959
Rp960
sg8
I00
sg9
g956
ssS'antiaristocratic'
p961
(dp962
g3
g4
((lp963
tp964
Rp965
sg8
I00
sg9
g961
ssS'unfaithfulnesses'
p966
(dp967
g3
g4
((lp968
tp969
Rp970
sg8
I00
sg9
g966
ssg764
(dp971
g3
g4
((lp972
g761
atp973
Rp974
sg8
I00
sg9
g764
ssS'indecisivenesses'
p975
(dp976
g3
g4
((lp977
tp978
Rp979
sg8
I00
sg9
g975
ssS'fastiduousnesses'
p980
(dp981
g3
g4
((lp982
tp983
Rp984
sg8
I00
sg9
g980
ssS'extemporaneously'
p985
(dp986
g3
g4
((lp987
tp988
Rp989
sg8
I00
sg9
g985
ssS'persuasivenesses'
p990
(dp991
g3
g4
((lp992
tp993
Rp994
sg8
I00
sg9
g990
ssS'susceptibilities'
p995
(dp996
g3
g4
((lp997
tp998
Rp999
sg8
I00
sg9
g995
ssS'weightlessnesses'
p1000
(dp1001
g3
g4
((lp1002
tp1003
Rp1004
sg8
I00
sg9
g1000
ssS'vindictivenesses'
p1005
(dp1006
g3
g4
((lp1007
tp1008
Rp1009
sg8
I00
sg9
g1005
ssS'attractivenesses'
p1010
(dp1011
g3
g4
((lp1012
tp1013
Rp1014
sg8
I00
sg9
g1010
ssS'lugubriousnesses'
p1015
(dp1016
g3
g4
((lp1017
tp1018
Rp1019
sg8
I00
sg9
g1015
ssS'disillusionments'
p1020
(dp1021
g3
g4
((lp1022
tp1023
Rp1024
sg8
I00
sg9
g1020
ssS'inappositenesses'
p1025
(dp1026
g3
g4
((lp1027
tp1028
Rp1029
sg8
I00
sg9
g1025
ssS'totalitarianisms'
p1030
(dp1031
g3
g4
((lp1032
tp1033
Rp1034
sg8
I00
sg9
g1030
ssS'procrastinations'
p1035
(dp1036
g3
g4
((lp1037
tp1038
Rp1039
sg8
I00
sg9
g1035
ssS'preimmunizations'
p1040
(dp1041
g3
g4
((lp1042
tp1043
Rp1044
sg8
I00
sg9
g1040
ssS'simultaneousness'
p1045
(dp1046
g3
g4
((lp1047
tp1048
Rp1049
sg8
I00
sg9
g1045
ssS'transplantations'
p1050
(dp1051
g3
g4
((lp1052
tp1053
Rp1054
sg8
I00
sg9
g1050
ssS'precancellations'
p1055
(dp1056
g3
g4
((lp1057
tp1058
Rp1059
sg8
I00
sg9
g1055
ssS'overcomplicating'
p1060
(dp1061
g3
g4
((lp1062
tp1063
Rp1064
sg8
I00
sg9
g1060
ssS'counterresponses'
p1065
(dp1066
g3
g4
((lp1067
tp1068
Rp1069
sg8
I00
sg9
g1065
ssS'thoughtfulnesses'
p1070
(dp1071
g3
g4
((lp1072
tp1073
Rp1074
sg8
I00
sg9
g1070
ssS'thrombophlebitis'
p1075
(dp1076
g3
g4
((lp1077
tp1078
Rp1079
sg8
I00
sg9
g1075
ssS'aggressivenesses'
p1080
(dp1081
g3
g4
((lp1082
tp1083
Rp1084
sg8
I00
sg9
g1080
ssS'antipornographic'
p1085
(dp1086
g3
g4
((lp1087
tp1088
Rp1089
sg8
I00
sg9
g1085
ssS'diversifications'
p1090
(dp1091
g3
g4
((lp1092
tp1093
Rp1094
sg8
I00
sg9
g1090
ssS'supergovernments'
p1095
(dp1096
g3
g4
((lp1097
tp1098
Rp1099
sg8
I00
sg9
g1095
ssS'manageablenesses'
p1100
(dp1101
g3
g4
((lp1102
tp1103
Rp1104
sg8
I00
sg9
g1100
ssS'intercontinental'
p1105
(dp1106
g3
g4
((lp1107
tp1108
Rp1109
sg8
I00
sg9
g1105
ssS'prognostications'
p1110
(dp1111
g3
g4
((lp1112
tp1113
Rp1114
sg8
I00
sg9
g1110
ssS'hypersensitivity'
p1115
(dp1116
g3
g4
((lp1117
tp1118
Rp1119
sg8
I00
sg9
g1115
ssS'articulatenesses'
p1120
(dp1121
g3
g4
((lp1122
tp1123
Rp1124
sg8
I00
sg9
g1120
ssS'phosphorescently'
p1125
(dp1126
g3
g4
((lp1127
tp1128
Rp1129
sg8
I00
sg9
g1125
ssS'superenthusiasms'
p1130
(dp1131
g3
g4
((lp1132
tp1133
Rp1134
sg8
I00
sg9
g1130
ssS'calamitousnesses'
p1135
(dp1136
g3
g4
((lp1137
tp1138
Rp1139
sg8
I00
sg9
g1135
ssS'incomprehensible'
p1140
(dp1141
g3
g4
((lp1142
tp1143
Rp1144
sg8
I00
sg9
g1140
ssS'inextinguishable'
p1145
(dp1146
g3
g4
((lp1147
tp1148
Rp1149
sg8
I00
sg9
g1145
ssS'interhemispheric'
p1150
(dp1151
g3
g4
((lp1152
tp1153
Rp1154
sg8
I00
sg9
g1150
ssS'antiunemployment'
p1155
(dp1156
g3
g4
((lp1157
tp1158
Rp1159
sg8
I00
sg9
g1155
ssS'respectfulnesses'
p1160
(dp1161
g3
g4
((lp1162
tp1163
Rp1164
sg8
I00
sg9
g1160
ssS'unscrupulousness'
p1165
(dp1166
g3
g4
((lp1167
tp1168
Rp1169
sg8
I00
sg9
g1165
ssS'indispensability'
p1170
(dp1171
g3
g4
((lp1172
tp1173
Rp1174
sg8
I00
sg9
g1170
ssS'voluptuousnesses'
p1175
(dp1176
g3
g4
((lp1177
tp1178
Rp1179
sg8
I00
sg9
g1175
ssS'indistinctnesses'
p1180
(dp1181
g3
g4
((lp1182
tp1183
Rp1184
sg8
I00
sg9
g1180
ssS'antibureaucratic'
p1185
(dp1186
g3
g4
((lp1187
tp1188
Rp1189
sg8
I00
sg9
g1185
ssS'thrombocytopenia'
p1190
(dp1191
g3
g4
((lp1192
tp1193
Rp1194
sg8
I00
sg9
g1190
ssS'unconventionally'
p1195
(dp1196
g3
g4
((lp1197
tp1198
Rp1199
sg8
I00
sg9
g1195
ssS'possessivenesses'
p1200
(dp1201
g3
g4
((lp1202
tp1203
Rp1204
sg8
I00
sg9
g1200
ssS'reconsiderations'
p1205
(dp1206
g3
g4
((lp1207
tp1208
Rp1209
sg8
I00
sg9
g1205
ssS'apprehensiveness'
p1210
(dp1211
g3
g4
((lp1212
tp1213
Rp1214
sg8
I00
sg9
g1210
ssS'recertifications'
p1215
(dp1216
g3
g4
((lp1217
tp1218
Rp1219
sg8
I00
sg9
g1215
ssS'acknowledgements'
p1220
(dp1221
g3
g4
((lp1222
tp1223
Rp1224
sg8
I00
sg9
g1220
ssS'bloodthirstiness'
p1225
(dp1226
g3
g4
((lp1227
tp1228
Rp1229
sg8
I00
sg9
g1225
ssS'nonparticipating'
p1230
(dp1231
g3
g4
((lp1232
tp1233
Rp1234
sg8
I00
sg9
g1230
ssS'antiprostitution'
p1235
(dp1236
g3
g4
((lp1237
tp1238
Rp1239
sg8
I00
sg9
g1235
ssS'misappropriation'
p1240
(dp1241
g3
g4
((lp1242
tp1243
Rp1244
sg8
I00
sg9
g1240
ssS'prekindergartens'
p1245
(dp1246
g3
g4
((lp1247
tp1248
Rp1249
sg8
I00
sg9
g1245
ssS'discursivenesses'
p1250
(dp1251
g3
g4
((lp1252
tp1253
Rp1254
sg8
I00
sg9
g1250
ssS'countermovements'
p1255
(dp1256
g3
g4
((lp1257
tp1258
Rp1259
sg8
I00
sg9
g1255
ssS'institutionalize'
p1260
(dp1261
g3
g4
((lp1262
tp1263
Rp1264
sg8
I00
sg9
g1260
ssS'overcapitalizing'
p1265
(dp1266
g3
g4
((lp1267
tp1268
Rp1269
sg8
I00
sg9
g1265
ssS'inalienabilities'
p1270
(dp1271
g3
g4
((lp1272
tp1273
Rp1274
sg8
I00
sg9
g1270
ssS'misconstructions'
p1275
(dp1276
g3
g4
((lp1277
tp1278
Rp1279
sg8
I00
sg9
g1275
ssS'catastrophically'
p1280
(dp1281
g3
g4
((lp1282
tp1283
Rp1284
sg8
I00
sg9
g1280
ssS'feeblemindedness'
p1285
(dp1286
g3
g4
((lp1287
tp1288
Rp1289
sg8
I00
sg9
g1285
ssS'ophthalmologists'
p1290
(dp1291
g3
g4
((lp1292
tp1293
Rp1294
sg8
I00
sg9
g1290
ssS'antituberculosis'
p1295
(dp1296
g3
g4
((lp1297
tp1298
Rp1299
sg8
I00
sg9
g1295
ssS'acquaintanceship'
p1300
(dp1301
g3
g4
((lp1302
tp1303
Rp1304
sg8
I00
sg9
g1300
ssS'subconsciousness'
p1305
(dp1306
g3
g4
((lp1307
tp1308
Rp1309
sg8
I00
sg9
g1305
ss.