(dp0
S'miniaturizations'
p1
(dp2
S'neighbors'
p3
c__builtin__
set
p4
((lp5
tp6
Rp7
sS'visited'
p8
I00
sS'word'
p9
g1
ssS'electrooculogram'
p10
(dp11
g3
g4
((lp12
tp13
Rp14
sg8
I00
sg9
g10
ssS'administratrices'
p15
(dp16
g3
g4
((lp17
tp18
Rp19
sg8
I00
sg9
g15
ssS'maladministering'
p20
(dp21
g3
g4
((lp22
tp23
Rp24
sg8
I00
sg9
g20
ssS'parameterization'
p25
(dp26
g3
g4
((lp27
tp28
Rp29
sg8
I00
sg9
g25
ssS'electrothermally'
p30
(dp31
g3
g4
((lp32
tp33
Rp34
sg8
I00
sg9
g30
ssS'megalomaniacally'
p35
(dp36
g3
g4
((lp37
tp38
Rp39
sg8
I00
sg9
g35
ssS'inexpressibility'
p40
(dp41
g3
g4
((lp42
tp43
Rp44
sg8
I00
sg9
g40
ssS'decarburizations'
p45
(dp46
g3
g4
((lp47
tp48
Rp49
sg8
I00
sg9
g45
ssS'changeablenesses'
p50
(dp51
g3
g4
((lp52
tp53
Rp54
sg8
I00
sg9
g50
ssS'desacralizations'
p55
(dp56
g3
g4
((lp57
tp58
Rp59
sg8
I00
sg9
g55
ssS'abstemiousnesses'
p60
(dp61
g3
g4
((lp62
tp63
Rp64
sg8
I00
sg9
g60
ssS'watertightnesses'
p65
(dp66
g3
g4
((lp67
tp68
Rp69
sg8
I00
sg9
g65
ssS'interiorizations'
p70
(dp71
g3
g4
((lp72
tp73
Rp74
sg8
I00
sg9
g70
ssS'photodissociates'
p75
(dp76
g3
g4
((lp77
S'photodissociated'
p78
atp79
Rp80
sg8
I00
sg9
g75
ssS'oxyphenbutazones'
p81
(dp82
g3
g4
((lp83
tp84
Rp85
sg8
I00
sg9
g81
ssS'transparentizing'
p86
(dp87
g3
g4
((lp88
tp89
Rp90
sg8
I00
sg9
g86
ssS'devitrifications'
p91
(dp92
g3
g4
((lp93
S'denitrifications'
p94
atp95
Rp96
sg8
I00
sg9
g91
ssS'misunderstanding'
p97
(dp98
g3
g4
((lp99
tp100
Rp101
sg8
I00
sg9
g97
ssS'bronchopneumonia'
p102
(dp103
g3
g4
((lp104
tp105
Rp106
sg8
I00
sg9
g102
ssS'dehumidification'
p107
(dp108
g3
g4
((lp109
tp110
Rp111
sg8
I00
sg9
g107
ssg78
(dp112
g3
g4
((lp113
g75
atp114
Rp115
sg8
I00
sg9
g78
ssS'phenolphthaleins'
p116
(dp117
g3
g4
((lp118
tp119
Rp120
sg8
I00
sg9
g116
ssS'hyperrationality'
p121
(dp122
g3
g4
((lp123
tp124
Rp125
sg8
I00
sg9
g121
ssS'thermoperiodisms'
p126
(dp127
g3
g4
((lp128
tp129
Rp130
sg8
I00
sg9
g126
ssS'militaristically'
p131
(dp132
g3
g4
((lp133
tp134
Rp135
sg8
I00
sg9
g131
ssS'infrangibilities'
p136
(dp137
g3
g4
((lp138
tp139
Rp140
sg8
I00
sg9
g136
ssS'existentialistic'
p141
(dp142
g3
g4
((lp143
tp144
Rp145
sg8
I00
sg9
g141
ssS'indefinitenesses'
p146
(dp147
g3
g4
((lp148
tp149
Rp150
sg8
I00
sg9
g146
ssS'invaluablenesses'
p151
(dp152
g3
g4
((lp153
tp154
Rp155
sg8
I00
sg9
g151
ssS'quasiperiodicity'
p156
(dp157
g3
g4
((lp158
tp159
Rp160
sg8
I00
sg9
g156
ssS'substitutability'
p161
(dp162
g3
g4
((lp163
tp164
Rp165
sg8
I00
sg9
g161
ssS'changelessnesses'
p166
(dp167
g3
g4
((lp168
tp169
Rp170
sg8
I00
sg9
g166
ssS'nonschizophrenic'
p171
(dp172
g3
g4
((lp173
tp174
Rp175
sg8
I00
sg9
g171
ssS'capriciousnesses'
p176
(dp177
g3
g4
((lp178
tp179
Rp180
sg8
I00
sg9
g176
ssS'undernourishment'
p181
(dp182
g3
g4
((lp183
tp184
Rp185
sg8
I00
sg9
g181
ssS'iniquitousnesses'
p186
(dp187
g3
g4
((lp188
tp189
Rp190
sg8
I00
sg9
g186
ssS'imperishableness'
p191
(dp192
g3
g4
((lp193
tp194
Rp195
sg8
I00
sg9
g191
ssS'auspiciousnesses'
p196
(dp197
g3
g4
((lp198
S'suspiciousnesses'
p199
atp200
Rp201
sg8
I00
sg9
g196
ssS'forthrightnesses'
p202
(dp203
g3
g4
((lp204
tp205
Rp206
sg8
I00
sg9
g202
ssS'inexplicableness'
p207
(dp208
g3
g4
((lp209
tp210
Rp211
sg8
I00
sg9
g207
ssS'roadworthinesses'
p212
(dp213
g3
g4
((lp214
tp215
Rp216
sg8
I00
sg9
g212
ssS'colonizationists'
p217
(dp218
g3
g4
((lp219
tp220
Rp221
sg8
I00
sg9
g217
ssS'neglectfulnesses'
p222
(dp223
g3
g4
((lp224
tp225
Rp226
sg8
I00
sg9
g222
ssS'roentgenologists'
p227
(dp228
g3
g4
((lp229
tp230
Rp231
sg8
I00
sg9
g227
ssS'polyelectrolytes'
p232
(dp233
g3
g4
((lp234
tp235
Rp236
sg8
I00
sg9
g232
ssS'counterevidences'
p237
(dp238
g3
g4
((lp239
tp240
Rp241
sg8
I00
sg9
g237
ssS'amateurishnesses'
p242
(dp243
g3
g4
((lp244
tp245
Rp246
sg8
I00
sg9
g242
ssS'respectivenesses'
p247
(dp248
g3
g4
((lp249
tp250
Rp251
sg8
I00
sg9
g247
ssS'incomprehensions'
p252
(dp253
g3
g4
((lp254
tp255
Rp256
sg8
I00
sg9
g252
ssS'indecorousnesses'
p257
(dp258
g3
g4
((lp259
tp260
Rp261
sg8
I00
sg9
g257
ssS'hypersusceptible'
p262
(dp263
g3
g4
((lp264
tp265
Rp266
sg8
I00
sg9
g262
ssS'cholecalciferols'
p267
(dp268
g3
g4
((lp269
tp270
Rp271
sg8
I00
sg9
g267
ssS'underrepresented'
p272
(dp273
g3
g4
((lp274
tp275
Rp276
sg8
I00
sg9
g272
ssS'hyperdevelopment'
p277
(dp278
g3
g4
((lp279
tp280
Rp281
sg8
I00
sg9
g277
ssS'overutilizations'
p282
(dp283
g3
g4
((lp284
tp285
Rp286
sg8
I00
sg9
g282
ssS'counterreactions'
p287
(dp288
g3
g4
((lp289
tp290
Rp291
sg8
I00
sg9
g287
ssS'corruptibilities'
p292
(dp293
g3
g4
((lp294
tp295
Rp296
sg8
I00
sg9
g292
ssS'organomercurials'
p297
(dp298
g3
g4
((lp299
tp300
Rp301
sg8
I00
sg9
g297
ssS'manipulativeness'
p302
(dp303
g3
g4
((lp304
tp305
Rp306
sg8
I00
sg9
g302
ssS'counterpicketing'
p307
(dp308
g3
g4
((lp309
tp310
Rp311
sg8
I00
sg9
g307
ssS'unthinkabilities'
p312
(dp313
g3
g4
((lp314
tp315
Rp316
sg8
I00
sg9
g312
ssS'inhospitableness'
p317
(dp318
g3
g4
((lp319
tp320
Rp321
sg8
I00
sg9
g317
ssS'deplorablenesses'
p322
(dp323
g3
g4
((lp324
tp325
Rp326
sg8
I00
sg9
g322
ssS'generalizability'
p327
(dp328
g3
g4
((lp329
tp330
Rp331
sg8
I00
sg9
g327
ssS'compartmentalise'
p332
(dp333
g3
g4
((lp334
S'compartmentalize'
p335
atp336
Rp337
sg8
I00
sg9
g332
ssS'decertifications'
p338
(dp339
g3
g4
((lp340
S'recertifications'
p341
aS'desertifications'
p342
atp343
Rp344
sg8
I00
sg9
g338
ssS'embourgeoisement'
p345
(dp346
g3
g4
((lp347
tp348
Rp349
sg8
I00
sg9
g345
ssS'incompletenesses'
p350
(dp351
g3
g4
((lp352
tp353
Rp354
sg8
I00
sg9
g350
ssS'diverticulosises'
p355
(dp356
g3
g4
((lp357
tp358
Rp359
sg8
I00
sg9
g355
ssS'oligomerizations'
p360
(dp361
g3
g4
((lp362
tp363
Rp364
sg8
I00
sg9
g360
ssS'microsporophylls'
p365
(dp366
g3
g4
((lp367
tp368
Rp369
sg8
I00
sg9
g365
ssS'flexographically'
p370
(dp371
g3
g4
((lp372
tp373
Rp374
sg8
I00
sg9
g370
ssS'subprofessionals'
p375
(dp376
g3
g4
((lp377
tp378
Rp379
sg8
I00
sg9
g375
ssS'reauthorizations'
p380
(dp381
g3
g4
((lp382
tp383
Rp384
sg8
I00
sg9
g380
ssS'preformationists'
p385
(dp386
g3
g4
((lp387
tp388
Rp389
sg8
I00
sg9
g385
ssS'spatiotemporally'
p390
(dp391
g3
g4
((lp392
tp393
Rp394
sg8
I00
sg9
g390
ssS'irresolutenesses'
p395
(dp396
g3
g4
((lp397
tp398
Rp399
sg8
I00
sg9
g395
ssS'submitochondrial'
p400
(dp401
g3
g4
((lp402
tp403
Rp404
sg8
I00
sg9
g400
ssS'oppressivenesses'
p405
(dp406
g3
g4
((lp407
tp408
Rp409
sg8
I00
sg9
g405
ssS'glottochronology'
p410
(dp411
g3
g4
((lp412
tp413
Rp414
sg8
I00
sg9
g410
ssS'counterstatement'
p415
(dp416
g3
g4
((lp417
tp418
Rp419
sg8
I00
sg9
g415
ssS'seasonablenesses'
p420
(dp421
g3
g4
((lp422
S'reasonablenesses'
p423
atp424
Rp425
sg8
I00
sg9
g420
ssS'unassailableness'
p426
(dp427
g3
g4
((lp428
tp429
Rp430
sg8
I00
sg9
g426
ssS'stereomicroscope'
p431
(dp432
g3
g4
((lp433
tp434
Rp435
sg8
I00
sg9
g431
ssS'neurasthenically'
p436
(dp437
g3
g4
((lp438
tp439
Rp440
sg8
I00
sg9
g436
ssS'hypophysectomize'
p441
(dp442
g3
g4
((lp443
tp444
Rp445
sg8
I00
sg9
g441
ssS'unfaithfulnesses'
p446
(dp447
g3
g4
((lp448
tp449
Rp450
sg8
I00
sg9
g446
ssS'inscrutabilities'
p451
(dp452
g3
g4
((lp453
tp454
Rp455
sg8
I00
sg9
g451
ssS'metapsychologies'
p456
(dp457
g3
g4
((lp458
tp459
Rp460
sg8
I00
sg9
g456
ssS'hypercorrections'
p461
(dp462
g3
g4
((lp463
tp464
Rp465
sg8
I00
sg9
g461
ssS'scrupulousnesses'
p466
(dp467
g3
g4
((lp468
tp469
Rp470
sg8
I00
sg9
g466
ssS'simplemindedness'
p471
(dp472
g3
g4
((lp473
tp474
Rp475
sg8
I00
sg9
g471
ssS'psychometricians'
p476
(dp477
g3
g4
((lp478
tp479
Rp480
sg8
I00
sg9
g476
ssS'hexachlorethanes'
p481
(dp482
g3
g4
((lp483
tp484
Rp485
sg8
I00
sg9
g481
ssS'precancellations'
p486
(dp487
g3
g4
((lp488
tp489
Rp490
sg8
I00
sg9
g486
ssS'paedogenetically'
p491
(dp492
g3
g4
((lp493
tp494
Rp495
sg8
I00
sg9
g491
ssS'nondiscretionary'
p496
(dp497
g3
g4
((lp498
tp499
Rp500
sg8
I00
sg9
g496
ssS'inflexiblenesses'
p501
(dp502
g3
g4
((lp503
tp504
Rp505
sg8
I00
sg9
g501
ssS'hyperstimulating'
p506
(dp507
g3
g4
((lp508
tp509
Rp510
sg8
I00
sg9
g506
ssS'psychotomimetics'
p511
(dp512
g3
g4
((lp513
tp514
Rp515
sg8
I00
sg9
g511
ssS'malpractitioners'
p516
(dp517
g3
g4
((lp518
tp519
Rp520
sg8
I00
sg9
g516
ssS'futurelessnesses'
p521
(dp522
g3
g4
((lp523
tp524
Rp525
sg8
I00
sg9
g521
ssS'interchromosomal'
p526
(dp527
g3
g4
((lp528
tp529
Rp530
sg8
I00
sg9
g526
ssS'unostentatiously'
p531
(dp532
g3
g4
((lp533
tp534
Rp535
sg8
I00
sg9
g531
ssS'discriminatorily'
p536
(dp537
g3
g4
((lp538
tp539
Rp540
sg8
I00
sg9
g536
ssS'hemagglutination'
p541
(dp542
g3
g4
((lp543
tp544
Rp545
sg8
I00
sg9
g541
ssS'vaingloriousness'
p546
(dp547
g3
g4
((lp548
tp549
Rp550
sg8
I00
sg9
g546
ssS'predaceousnesses'
p551
(dp552
g3
g4
((lp553
tp554
Rp555
sg8
I00
sg9
g551
ssS'interassociation'
p556
(dp557
g3
g4
((lp558
tp559
Rp560
sg8
I00
sg9
g556
ssS'noninterferences'
p561
(dp562
g3
g4
((lp563
tp564
Rp565
sg8
I00
sg9
g561
ssS'subjectivenesses'
p566
(dp567
g3
g4
((lp568
tp569
Rp570
sg8
I00
sg9
g566
ssS'counterirritants'
p571
(dp572
g3
g4
((lp573
tp574
Rp575
sg8
I00
sg9
g571
ssS'polysyllabically'
p576
(dp577
g3
g4
((lp578
tp579
Rp580
sg8
I00
sg9
g576
ssS'antirecessionary'
p581
(dp582
g3
g4
((lp583
tp584
Rp585
sg8
I00
sg9
g581
ssS'substantialities'
p586
(dp587
g3
g4
((lp588
tp589
Rp590
sg8
I00
sg9
g586
ssS'tremendousnesses'
p591
(dp592
g3
g4
((lp593
tp594
Rp595
sg8
I00
sg9
g591
ssS'disjointednesses'
p596
(dp597
g3
g4
((lp598
tp599
Rp600
sg8
I00
sg9
g596
ssS'pretechnological'
p601
(dp602
g3
g4
((lp603
tp604
Rp605
sg8
I00
sg9
g601
ssS'gastrointestinal'
p606
(dp607
g3
g4
((lp608
tp609
Rp610
sg8
I00
sg9
g606
ssS'carcinomatosises'
p611
(dp612
g3
g4
((lp613
tp614
Rp615
sg8
I00
sg9
g611
ssS'indeterminations'
p616
(dp617
g3
g4
((lp618
tp619
Rp620
sg8
I00
sg9
g616
ssS'biometeorologies'
p621
(dp622
g3
g4
((lp623
tp624
Rp625
sg8
I00
sg9
g621
ssS'counterterrorism'
p626
(dp627
g3
g4
((lp628
S'counterterrorist'
p629
atp630
Rp631
sg8
I00
sg9
g626
ssS'polydispersities'
p632
(dp633
g3
g4
((lp634
tp635
Rp636
sg8
I00
sg9
g632
ssS'phenylketonurics'
p637
(dp638
g3
g4
((lp639
S'phenylketonurias'
p640
atp641
Rp642
sg8
I00
sg9
g637
ssS'chronobiological'
p643
(dp644
g3
g4
((lp645
tp646
Rp647
sg8
I00
sg9
g643
ssS'antievolutionary'
p648
(dp649
g3
g4
((lp650
tp651
Rp652
sg8
I00
sg9
g648
ssS'subcontraoctaves'
p653
(dp654
g3
g4
((lp655
tp656
Rp657
sg8
I00
sg9
g653
ssS'censoriousnesses'
p658
(dp659
g3
g4
((lp660
tp661
Rp662
sg8
I00
sg9
g658
ssg629
(dp663
g3
g4
((lp664
g626
atp665
Rp666
sg8
I00
sg9
g629
ssS'sentimentalising'
p667
(dp668
g3
g4
((lp669
S'sentimentalizing'
p670
atp671
Rp672
sg8
I00
sg9
g667
ssS'physiotherapists'
p673
(dp674
g3
g4
((lp675
tp676
Rp677
sg8
I00
sg9
g673
ssS'conjunctivitises'
p678
(dp679
g3
g4
((lp680
S'conjunctivitides'
p681
atp682
Rp683
sg8
I00
sg9
g678
ssS'diffractometries'
p684
(dp685
g3
g4
((lp686
tp687
Rp688
sg8
I00
sg9
g684
ssS'northeasternmost'
p689
(dp690
g3
g4
((lp691
tp692
Rp693
sg8
I00
sg9
g689
ssS'affectlessnesses'
p694
(dp695
g3
g4
((lp696
tp697
Rp698
sg8
I00
sg9
g694
ssS'multidimensional'
p699
(dp700
g3
g4
((lp701
tp702
Rp703
sg8
I00
sg9
g699
ssS'ungrammaticality'
p704
(dp705
g3
g4
((lp706
tp707
Rp708
sg8
I00
sg9
g704
ssS'hyperthyroidisms'
p709
(dp710
g3
g4
((lp711
tp712
Rp713
sg8
I00
sg9
g709
ssS'incorrigibleness'
p714
(dp715
g3
g4
((lp716
tp717
Rp718
sg8
I00
sg9
g714
ssS'inheritabilities'
p719
(dp720
g3
g4
((lp721
tp722
Rp723
sg8
I00
sg9
g719
ssS'phenylethylamine'
p724
(dp725
g3
g4
((lp726
tp727
Rp728
sg8
I00
sg9
g724
ssS'hematoporphyrins'
p729
(dp730
g3
g4
((lp731
tp732
Rp733
sg8
I00
sg9
g729
ssS'impressibilities'
p734
(dp735
g3
g4
((lp736
tp737
Rp738
sg8
I00
sg9
g734
ssS'psychoanalytical'
p739
(dp740
g3
g4
((lp741
tp742
Rp743
sg8
I00
sg9
g739
ssS'sclerenchymatous'
p744
(dp745
g3
g4
((lp746
tp747
Rp748
sg8
I00
sg9
g744
ssS'hydroelectricity'
p749
(dp750
g3
g4
((lp751
tp752
Rp753
sg8
I00
sg9
g749
ssS'experimentalisms'
p754
(dp755
g3
g4
((lp756
S'experimentalists'
p757
atp758
Rp759
sg8
I00
sg9
g754
ssS'immunogenicities'
p760
(dp761
g3
g4
((lp762
tp763
Rp764
sg8
I00
sg9
g760
ssS'adrenalectomized'
p765
(dp766
g3
g4
((lp767
tp768
Rp769
sg8
I00
sg9
g765
ssS'interpenetrating'
p770
(dp771
g3
g4
((lp772
tp773
Rp774
sg8
I00
sg9
g770
ssS'nonreappointment'
p775
(dp776
g3
g4
((lp777
tp778
Rp779
sg8
I00
sg9
g775
ssS'interministerial'
p780
(dp781
g3
g4
((lp782
tp783
Rp784
sg8
I00
sg9
g780
ssS'photosynthesized'
p785
(dp786
g3
g4
((lp787
S'photosynthesizes'
p788
atp789
Rp790
sg8
I00
sg9
g785
ssS'incommodiousness'
p791
(dp792
g3
g4
((lp793
tp794
Rp795
sg8
I00
sg9
g791
ssS'evenhandednesses'
p796
(dp797
g3
g4
((lp798
tp799
Rp800
sg8
I00
sg9
g796
ssS'insolubilization'
p801
(dp802
g3
g4
((lp803
tp804
Rp805
sg8
I00
sg9
g801
ssg788
(dp806
g3
g4
((lp807
g785
atp808
Rp809
sg8
I00
sg9
g788
ssS'collaborationism'
p810
(dp811
g3
g4
((lp812
S'collaborationist'
p813
atp814
Rp815
sg8
I00
sg9
g810
ssS'coproprietorship'
p816
(dp817
g3
g4
((lp818
tp819
Rp820
sg8
I00
sg9
g816
ssS'predetermination'
p821
(dp822
g3
g4
((lp823
tp824
Rp825
sg8
I00
sg9
g821
ssg813
(dp826
g3
g4
((lp827
g810
atp828
Rp829
sg8
I00
sg9
g813
ssS'gratuitousnesses'
p830
(dp831
g3
g4
((lp832
tp833
Rp834
sg8
I00
sg9
g830
ssS'premodifications'
p835
(dp836
g3
g4
((lp837
tp838
Rp839
sg8
I00
sg9
g835
ssS'intolerantnesses'
p840
(dp841
g3
g4
((lp842
tp843
Rp844
sg8
I00
sg9
g840
ssS'epizootiological'
p845
(dp846
g3
g4
((lp847
tp848
Rp849
sg8
I00
sg9
g845
ssS'repressivenesses'
p850
(dp851
g3
g4
((lp852
S'regressivenesses'
p853
atp854
Rp855
sg8
I00
sg9
g850
ssS'digressivenesses'
p856
(dp857
g3
g4
((lp858
tp859
Rp860
sg8
I00
sg9
g856
ssS'undeniablenesses'
p861
(dp862
g3
g4
((lp863
tp864
Rp865
sg8
I00
sg9
g861
ssS'postsynaptically'
p866
(dp867
g3
g4
((lp868
tp869
Rp870
sg8
I00
sg9
g866
ssS'phosphocreatines'
p871
(dp872
g3
g4
((lp873
tp874
Rp875
sg8
I00
sg9
g871
ssS'superspecialized'
p876
(dp877
g3
g4
((lp878
tp879
Rp880
sg8
I00
sg9
g876
ssS'phrasemongerings'
p881
(dp882
g3
g4
((lp883
tp884
Rp885
sg8
I00
sg9
g881
ssS'antiromanticisms'
p886
(dp887
g3
g4
((lp888
tp889
Rp890
sg8
I00
sg9
g886
ssS'rechoreographing'
p891
(dp892
g3
g4
((lp893
tp894
Rp895
sg8
I00
sg9
g891
ssS'repressibilities'
p896
(dp897
g3
g4
((lp898
tp899
Rp900
sg8
I00
sg9
g896
ssS'vulvovaginitises'
p901
(dp902
g3
g4
((lp903
tp904
Rp905
sg8
I00
sg9
g901
ssS'confessionalisms'
p906
(dp907
g3
g4
((lp908
S'confessionalists'
p909
atp910
Rp911
sg8
I00
sg9
g906
ssS'superimpositions'
p912
(dp913
g3
g4
((lp914
tp915
Rp916
sg8
I00
sg9
g912
ssS'overarticulating'
p917
(dp918
g3
g4
((lp919
tp920
Rp921
sg8
I00
sg9
g917
ssS'internalizations'
p922
(dp923
g3
g4
((lp924
tp925
Rp926
sg8
I00
sg9
g922
ssS'overelaborations'
p927
(dp928
g3
g4
((lp929
tp930
Rp931
sg8
I00
sg9
g927
ssS'anagrammatically'
p932
(dp933
g3
g4
((lp934
tp935
Rp936
sg8
I00
sg9
g932
ssS'disorderednesses'
p937
(dp938
g3
g4
((lp939
tp940
Rp941
sg8
I00
sg9
g937
ssS'ophthalmological'
p942
(dp943
g3
g4
((lp944
tp945
Rp946
sg8
I00
sg9
g942
ssS'heterozygosities'
p947
(dp948
g3
g4
((lp949
tp950
Rp951
sg8
I00
sg9
g947
ssS'referentialities'
p952
(dp953
g3
g4
((lp954
tp955
Rp956
sg8
I00
sg9
g952
ssS'quadricentennial'
p957
(dp958
g3
g4
((lp959
tp960
Rp961
sg8
I00
sg9
g957
ssS'immoderatenesses'
p962
(dp963
g3
g4
((lp964
tp965
Rp966
sg8
I00
sg9
g962
ssS'hypersexualities'
p967
(dp968
g3
g4
((lp969
tp970
Rp971
sg8
I00
sg9
g967
ssS'immunoregulation'
p972
(dp973
g3
g4
((lp974
tp975
Rp976
sg8
I00
sg9
g972
ssS'antihypertensive'
p977
(dp978
g3
g4
((lp979
tp980
Rp981
sg8
I00
sg9
g977
ssS'indomitabilities'
p982
(dp983
g3
g4
((lp984
tp985
Rp986
sg8
I00
sg9
g982
ssS'homoscedasticity'
p987
(dp988
g3
g4
((lp989
tp990
Rp991
sg8
I00
sg9
g987
ssS'neuroradiologies'
p992
(dp993
g3
g4
((lp994
tp995
Rp996
sg8
I00
sg9
g992
ssS'recontaminations'
p997
(dp998
g3
g4
((lp999
S'decontaminations'
p1000
atp1001
Rp1002
sg8
I00
sg9
g997
ssS'technicalization'
p1003
(dp1004
g3
g4
((lp1005
tp1006
Rp1007
sg8
I00
sg9
g1003
ssS'contraindicating'
p1008
(dp1009
g3
g4
((lp1010
tp1011
Rp1012
sg8
I00
sg9
g1008
ssS'puzzleheadedness'
p1013
(dp1014
g3
g4
((lp1015
tp1016
Rp1017
sg8
I00
sg9
g1013
ssS'demystifications'
p1018
(dp1019
g3
g4
((lp1020
tp1021
Rp1022
sg8
I00
sg9
g1018
ssS'diaphanousnesses'
p1023
(dp1024
g3
g4
((lp1025
tp1026
Rp1027
sg8
I00
sg9
g1023
ssS'acetylsalicylate'
p1028
(dp1029
g3
g4
((lp1030
tp1031
Rp1032
sg8
I00
sg9
g1028
ssS'epiphenomenalism'
p1033
(dp1034
g3
g4
((lp1035
tp1036
Rp1037
sg8
I00
sg9
g1033
ssS'acanthocephalans'
p1038
(dp1039
g3
g4
((lp1040
tp1041
Rp1042
sg8
I00
sg9
g1038
ssS'disillusionments'
p1043
(dp1044
g3
g4
((lp1045
tp1046
Rp1047
sg8
I00
sg9
g1043
ssS'photolithographs'
p1048
(dp1049
g3
g4
((lp1050
S'photolithography'
p1051
atp1052
Rp1053
sg8
I00
sg9
g1048
ssS'hendecasyllables'
p1054
(dp1055
g3
g4
((lp1056
tp1057
Rp1058
sg8
I00
sg9
g1054
ssS'successivenesses'
p1059
(dp1060
g3
g4
((lp1061
tp1062
Rp1063
sg8
I00
sg9
g1059
ssS'conversationally'
p1064
(dp1065
g3
g4
((lp1066
tp1067
Rp1068
sg8
I00
sg9
g1064
ssS'hemagglutinating'
p1069
(dp1070
g3
g4
((lp1071
tp1072
Rp1073
sg8
I00
sg9
g1069
ssS'ferroelectricity'
p1074
(dp1075
g3
g4
((lp1076
tp1077
Rp1078
sg8
I00
sg9
g1074
ssS'institutionalist'
p1079
(dp1080
g3
g4
((lp1081
S'institutionalism'
p1082
aS'institutionalise'
p1083
atp1084
Rp1085
sg8
I00
sg9
g1079
ssS'diversifications'
p1086
(dp1087
g3
g4
((lp1088
tp1089
Rp1090
sg8
I00
sg9
g1086
ssS'intertestamental'
p1091
(dp1092
g3
g4
((lp1093
tp1094
Rp1095
sg8
I00
sg9
g1091
ssg1083
(dp1096
g3
g4
((lp1097
S'institutionalize'
p1098
ag1082
ag1079
atp1099
Rp1100
sg8
I00
sg9
g1083
ssg1082
(dp1101
g3
g4
((lp1102
g1083
ag1079
atp1103
Rp1104
sg8
I00
sg9
g1082
ssS'extensionalities'
p1105
(dp1106
g3
g4
((lp1107
tp1108
Rp1109
sg8
I00
sg9
g1105
ssS'confrontationist'
p1110
(dp1111
g3
g4
((lp1112
tp1113
Rp1114
sg8
I00
sg9
g1110
ssS'overaccentuating'
p1115
(dp1116
g3
g4
((lp1117
tp1118
Rp1119
sg8
I00
sg9
g1115
ssS'acknowledgements'
p1120
(dp1121
g3
g4
((lp1122
tp1123
Rp1124
sg8
I00
sg9
g1120
ssS'underinvestments'
p1125
(dp1126
g3
g4
((lp1127
tp1128
Rp1129
sg8
I00
sg9
g1125
ssS'sporotrichosises'
p1130
(dp1131
g3
g4
((lp1132
tp1133
Rp1134
sg8
I00
sg9
g1130
ssS'boisterousnesses'
p1135
(dp1136
g3
g4
((lp1137
tp1138
Rp1139
sg8
I00
sg9
g1135
ssS'preservabilities'
p1140
(dp1141
g3
g4
((lp1142
tp1143
Rp1144
sg8
I00
sg9
g1140
ssS'geochronological'
p1145
(dp1146
g3
g4
((lp1147
tp1148
Rp1149
sg8
I00
sg9
g1145
ssS'counterguerrilla'
p1150
(dp1151
g3
g4
((lp1152
tp1153
Rp1154
sg8
I00
sg9
g1150
ssS'immunoreactivity'
p1155
(dp1156
g3
g4
((lp1157
tp1158
Rp1159
sg8
I00
sg9
g1155
ssS'retroreflections'
p1160
(dp1161
g3
g4
((lp1162
tp1163
Rp1164
sg8
I00
sg9
g1160
ssS'crystallographer'
p1165
(dp1166
g3
g4
((lp1167
tp1168
Rp1169
sg8
I00
sg9
g1165
ssS'adenocarcinomata'
p1170
(dp1171
g3
g4
((lp1172
tp1173
Rp1174
sg8
I00
sg9
g1170
ssS'perceptivenesses'
p1175
(dp1176
g3
g4
((lp1177
tp1178
Rp1179
sg8
I00
sg9
g1175
ssS'photodynamically'
p1180
(dp1181
g3
g4
((lp1182
tp1183
Rp1184
sg8
I00
sg9
g1180
ssS'quantitativeness'
p1185
(dp1186
g3
g4
((lp1187
tp1188
Rp1189
sg8
I00
sg9
g1185
ssS'incorruptibility'
p1190
(dp1191
g3
g4
((lp1192
tp1193
Rp1194
sg8
I00
sg9
g1190
ssS'diagonalizations'
p1195
(dp1196
g3
g4
((lp1197
tp1198
Rp1199
sg8
I00
sg9
g1195
ssS'superromanticism'
p1200
(dp1201
g3
g4
((lp1202
tp1203
Rp1204
sg8
I00
sg9
g1200
ssS'countersignature'
p1205
(dp1206
g3
g4
((lp1207
tp1208
Rp1209
sg8
I00
sg9
g1205
ssS'transfigurations'
p1210
(dp1211
g3
g4
((lp1212
tp1213
Rp1214
sg8
I00
sg9
g1210
ssS'interpenetration'
p1215
(dp1216
g3
g4
((lp1217
tp1218
Rp1219
sg8
I00
sg9
g1215
ssS'extracorporeally'
p1220
(dp1221
g3
g4
((lp1222
tp1223
Rp1224
sg8
I00
sg9
g1220
ssS'destabilizations'
p1225
(dp1226
g3
g4
((lp1227
tp1228
Rp1229
sg8
I00
sg9
g1225
ssS'alphanumerically'
p1230
(dp1231
g3
g4
((lp1232
tp1233
Rp1234
sg8
I00
sg9
g1230
ssS'transilluminator'
p1235
(dp1236
g3
g4
((lp1237
tp1238
Rp1239
sg8
I00
sg9
g1235
ssS'stoutheartedness'
p1240
(dp1241
g3
g4
((lp1242
tp1243
Rp1244
sg8
I00
sg9
g1240
ssS'countercriticism'
p1245
(dp1246
g3
g4
((lp1247
tp1248
Rp1249
sg8
I00
sg9
g1245
ssS'refortifications'
p1250
(dp1251
g3
g4
((lp1252
tp1253
Rp1254
sg8
I00
sg9
g1250
ssS'commissionership'
p1255
(dp1256
g3
g4
((lp1257
tp1258
Rp1259
sg8
I00
sg9
g1255
ssS'meaningfulnesses'
p1260
(dp1261
g3
g4
((lp1262
tp1263
Rp1264
sg8
I00
sg9
g1260
ssS'outdoorsmanships'
p1265
(dp1266
g3
g4
((lp1267
tp1268
Rp1269
sg8
I00
sg9
g1265
ssS'consanguineously'
p1270
(dp1271
g3
g4
((lp1272
tp1273
Rp1274
sg8
I00
sg9
g1270
ssS'fraudulentnesses'
p1275
(dp1276
g3
g4
((lp1277
tp1278
Rp1279
sg8
I00
sg9
g1275
ssS'geomorphologists'
p1280
(dp1281
g3
g4
((lp1282
tp1283
Rp1284
sg8
I00
sg9
g1280
ssS'universalization'
p1285
(dp1286
g3
g4
((lp1287
tp1288
Rp1289
sg8
I00
sg9
g1285
ssS'transcontinental'
p1290
(dp1291
g3
g4
((lp1292
tp1293
Rp1294
sg8
I00
sg9
g1290
ssS'preventivenesses'
p1295
(dp1296
g3
g4
((lp1297
tp1298
Rp1299
sg8
I00
sg9
g1295
ssS'superspeculation'
p1300
(dp1301
g3
g4
((lp1302
tp1303
Rp1304
sg8
I00
sg9
g1300
ssS'hypopituitarisms'
p1305
(dp1306
g3
g4
((lp1307
tp1308
Rp1309
sg8
I00
sg9
g1305
ssS'dithiocarbamates'
p1310
(dp1311
g3
g4
((lp1312
tp1313
Rp1314
sg8
I00
sg9
g1310
ssS'vindictivenesses'
p1315
(dp1316
g3
g4
((lp1317
tp1318
Rp1319
sg8
I00
sg9
g1315
ssS'overdevelopments'
p1320
(dp1321
g3
g4
((lp1322
tp1323
Rp1324
sg8
I00
sg9
g1320
ssS'internationalize'
p1325
(dp1326
g3
g4
((lp1327
S'internationalise'
p1328
atp1329
Rp1330
sg8
I00
sg9
g1325
ssS'supranationalism'
p1331
(dp1332
g3
g4
((lp1333
S'supranationalist'
p1334
atp1335
Rp1336
sg8
I00
sg9
g1331
ssS'terminologically'
p1337
(dp1338
g3
g4
((lp1339
tp1340
Rp1341
sg8
I00
sg9
g1337
ssS'transitorinesses'
p1342
(dp1343
g3
g4
((lp1344
tp1345
Rp1346
sg8
I00
sg9
g1342
ssS'iconoclastically'
p1347
(dp1348
g3
g4
((lp1349
tp1350
Rp1351
sg8
I00
sg9
g1347
ssS'antagonistically'
p1352
(dp1353
g3
g4
((lp1354
tp1355
Rp1356
sg8
I00
sg9
g1352
ssS'naturalistically'
p1357
(dp1358
g3
g4
((lp1359
tp1360
Rp1361
sg8
I00
sg9
g1357
ssg1334
(dp1362
g3
g4
((lp1363
g1331
atp1364
Rp1365
sg8
I00
sg9
g1334
ssS'supersensitivity'
p1366
(dp1367
g3
g4
((lp1368
tp1369
Rp1370
sg8
I00
sg9
g1366
ssS'disagreeableness'
p1371
(dp1372
g3
g4
((lp1373
tp1374
Rp1375
sg8
I00
sg9
g1371
ssS'hypersomnolences'
p1376
(dp1377
g3
g4
((lp1378
tp1379
Rp1380
sg8
I00
sg9
g1376
ssS'preservationists'
p1381
(dp1382
g3
g4
((lp1383
tp1384
Rp1385
sg8
I00
sg9
g1381
ssS'biotechnologists'
p1386
(dp1387
g3
g4
((lp1388
tp1389
Rp1390
sg8
I00
sg9
g1386
ssS'indigenousnesses'
p1391
(dp1392
g3
g4
((lp1393
tp1394
Rp1395
sg8
I00
sg9
g1391
ssS'parapsychologies'
p1396
(dp1397
g3
g4
((lp1398
tp1399
Rp1400
sg8
I00
sg9
g1396
ssS'invulnerableness'
p1401
(dp1402
g3
g4
((lp1403
tp1404
Rp1405
sg8
I00
sg9
g1401
ssS'renormalizations'
p1406
(dp1407
g3
g4
((lp1408
tp1409
Rp1410
sg8
I00
sg9
g1406
ssS'unreservednesses'
p1411
(dp1412
g3
g4
((lp1413
tp1414
Rp1415
sg8
I00
sg9
g1411
ssS'intercorrelating'
p1416
(dp1417
g3
g4
((lp1418
tp1419
Rp1420
sg8
I00
sg9
g1416
ssS'otherworldliness'
p1421
(dp1422
g3
g4
((lp1423
tp1424
Rp1425
sg8
I00
sg9
g1421
ssS'denuclearization'
p1426
(dp1427
g3
g4
((lp1428
tp1429
Rp1430
sg8
I00
sg9
g1426
ssS'overembellishing'
p1431
(dp1432
g3
g4
((lp1433
tp1434
Rp1435
sg8
I00
sg9
g1431
ssS'archaeologically'
p1436
(dp1437
g3
g4
((lp1438
tp1439
Rp1440
sg8
I00
sg9
g1436
ssS'hyperparasitisms'
p1441
(dp1442
g3
g4
((lp1443
tp1444
Rp1445
sg8
I00
sg9
g1441
ssS'stereoscopically'
p1446
(dp1447
g3
g4
((lp1448
tp1449
Rp1450
sg8
I00
sg9
g1446
ssS'microvasculature'
p1451
(dp1452
g3
g4
((lp1453
tp1454
Rp1455
sg8
I00
sg9
g1451
ssS'governmentalists'
p1456
(dp1457
g3
g4
((lp1458
S'governmentalisms'
p1459
atp1460
Rp1461
sg8
I00
sg9
g1456
ssS'contraindication'
p1462
(dp1463
g3
g4
((lp1464
tp1465
Rp1466
sg8
I00
sg9
g1462
ssS'predictabilities'
p1467
(dp1468
g3
g4
((lp1469
tp1470
Rp1471
sg8
I00
sg9
g1467
ssS'inarticulateness'
p1472
(dp1473
g3
g4
((lp1474
tp1475
Rp1476
sg8
I00
sg9
g1472
ssS'ultraliberalisms'
p1477
(dp1478
g3
g4
((lp1479
tp1480
Rp1481
sg8
I00
sg9
g1477
ssS'charitablenesses'
p1482
(dp1483
g3
g4
((lp1484
tp1485
Rp1486
sg8
I00
sg9
g1482
ssS'premanufacturing'
p1487
(dp1488
g3
g4
((lp1489
tp1490
Rp1491
sg8
I00
sg9
g1487
ssS'portentousnesses'
p1492
(dp1493
g3
g4
((lp1494
tp1495
Rp1496
sg8
I00
sg9
g1492
ssS'physiopathologic'
p1497
(dp1498
g3
g4
((lp1499
tp1500
Rp1501
sg8
I00
sg9
g1497
ssS'indivisibilities'
p1502
(dp1503
g3
g4
((lp1504
tp1505
Rp1506
sg8
I00
sg9
g1502
ssS'intolerabilities'
p1507
(dp1508
g3
g4
((lp1509
tp1510
Rp1511
sg8
I00
sg9
g1507
ssS'interinfluencing'
p1512
(dp1513
g3
g4
((lp1514
tp1515
Rp1516
sg8
I00
sg9
g1512
ssS'syncategorematic'
p1517
(dp1518
g3
g4
((lp1519
tp1520
Rp1521
sg8
I00
sg9
g1517
ssS'disarticulations'
p1522
(dp1523
g3
g4
((lp1524
tp1525
Rp1526
sg8
I00
sg9
g1522
ssS'desexualizations'
p1527
(dp1528
g3
g4
((lp1529
tp1530
Rp1531
sg8
I00
sg9
g1527
ssS'straightjacketed'
p1532
(dp1533
g3
g4
((lp1534
tp1535
Rp1536
sg8
I00
sg9
g1532
ssS'impassablenesses'
p1537
(dp1538
g3
g4
((lp1539
tp1540
Rp1541
sg8
I00
sg9
g1537
ssS'refrangibilities'
p1542
(dp1543
g3
g4
((lp1544
tp1545
Rp1546
sg8
I00
sg9
g1542
ssS'conductibilities'
p1547
(dp1548
g3
g4
((lp1549
tp1550
Rp1551
sg8
I00
sg9
g1547
ssS'irreducibilities'
p1552
(dp1553
g3
g4
((lp1554
tp1555
Rp1556
sg8
I00
sg9
g1552
ssS'slanderousnesses'
p1557
(dp1558
g3
g4
((lp1559
tp1560
Rp1561
sg8
I00
sg9
g1557
ssS'dissatisfactions'
p1562
(dp1563
g3
g4
((lp1564
tp1565
Rp1566
sg8
I00
sg9
g1562
ssS'miscomprehension'
p1567
(dp1568
g3
g4
((lp1569
tp1570
Rp1571
sg8
I00
sg9
g1567
ssS'determinednesses'
p1572
(dp1573
g3
g4
((lp1574
tp1575
Rp1576
sg8
I00
sg9
g1572
ssS'externalizations'
p1577
(dp1578
g3
g4
((lp1579
S'externalisations'
p1580
atp1581
Rp1582
sg8
I00
sg9
g1577
ssS'discontentedness'
p1583
(dp1584
g3
g4
((lp1585
tp1586
Rp1587
sg8
I00
sg9
g1583
ssS'hemoglobinopathy'
p1588
(dp1589
g3
g4
((lp1590
tp1591
Rp1592
sg8
I00
sg9
g1588
ssS'superserviceable'
p1593
(dp1594
g3
g4
((lp1595
tp1596
Rp1597
sg8
I00
sg9
g1593
ssS'electroacoustics'
p1598
(dp1599
g3
g4
((lp1600
tp1601
Rp1602
sg8
I00
sg9
g1598
ssS'vegetativenesses'
p1603
(dp1604
g3
g4
((lp1605
tp1606
Rp1607
sg8
I00
sg9
g1603
ssS'departmentalizes'
p1608
(dp1609
g3
g4
((lp1610
S'departmentalized'
p1611
atp1612
Rp1613
sg8
I00
sg9
g1608
ssS'avariciousnesses'
p1614
(dp1615
g3
g4
((lp1616
tp1617
Rp1618
sg8
I00
sg9
g1614
ssS'discriminatingly'
p1619
(dp1620
g3
g4
((lp1621
tp1622
Rp1623
sg8
I00
sg9
g1619
ssS'phenomenological'
p1624
(dp1625
g3
g4
((lp1626
tp1627
Rp1628
sg8
I00
sg9
g1624
ssS'collectivization'
p1629
(dp1630
g3
g4
((lp1631
tp1632
Rp1633
sg8
I00
sg9
g1629
ssS'strongyloidiasis'
p1634
(dp1635
g3
g4
((lp1636
S'strongyloidiases'
p1637
atp1638
Rp1639
sg8
I00
sg9
g1634
ssS'simultaneousness'
p1640
(dp1641
g3
g4
((lp1642
tp1643
Rp1644
sg8
I00
sg9
g1640
ssg1611
(dp1645
g3
g4
((lp1646
g1608
atp1647
Rp1648
sg8
I00
sg9
g1611
ssS'ingressivenesses'
p1649
(dp1650
g3
g4
((lp1651
tp1652
Rp1653
sg8
I00
sg9
g1649
ssS'nonpartisanships'
p1654
(dp1655
g3
g4
((lp1656
tp1657
Rp1658
sg8
I00
sg9
g1654
ssS'misregistrations'
p1659
(dp1660
g3
g4
((lp1661
tp1662
Rp1663
sg8
I00
sg9
g1659
ssS'magnetostrictive'
p1664
(dp1665
g3
g4
((lp1666
tp1667
Rp1668
sg8
I00
sg9
g1664
ssS'hyperinnervation'
p1669
(dp1670
g3
g4
((lp1671
tp1672
Rp1673
sg8
I00
sg9
g1669
ssS'overcompensatory'
p1674
(dp1675
g3
g4
((lp1676
tp1677
Rp1678
sg8
I00
sg9
g1674
ssS'territorialities'
p1679
(dp1680
g3
g4
((lp1681
tp1682
Rp1683
sg8
I00
sg9
g1679
ssS'photointerpreter'
p1684
(dp1685
g3
g4
((lp1686
tp1687
Rp1688
sg8
I00
sg9
g1684
ssS'conservativeness'
p1689
(dp1690
g3
g4
((lp1691
tp1692
Rp1693
sg8
I00
sg9
g1689
ssS'unsociablenesses'
p1694
(dp1695
g3
g4
((lp1696
tp1697
Rp1698
sg8
I00
sg9
g1694
ssS'phosphatizations'
p1699
(dp1700
g3
g4
((lp1701
tp1702
Rp1703
sg8
I00
sg9
g1699
ssS'performabilities'
p1704
(dp1705
g3
g4
((lp1706
tp1707
Rp1708
sg8
I00
sg9
g1704
ssS'fashionabilities'
p1709
(dp1710
g3
g4
((lp1711
tp1712
Rp1713
sg8
I00
sg9
g1709
ssS'pleuropneumonias'
p1714
(dp1715
g3
g4
((lp1716
tp1717
Rp1718
sg8
I00
sg9
g1714
ssS'microprogramming'
p1719
(dp1720
g3
g4
((lp1721
tp1722
Rp1723
sg8
I00
sg9
g1719
ssS'extraneousnesses'
p1724
(dp1725
g3
g4
((lp1726
tp1727
Rp1728
sg8
I00
sg9
g1724
ssS'aluminosilicates'
p1729
(dp1730
g3
g4
((lp1731
tp1732
Rp1733
sg8
I00
sg9
g1729
ssS'whatchamacallits'
p1734
(dp1735
g3
g4
((lp1736
tp1737
Rp1738
sg8
I00
sg9
g1734
ssS'preventabilities'
p1739
(dp1740
g3
g4
((lp1741
S'presentabilities'
p1742
atp1743
Rp1744
sg8
I00
sg9
g1739
ssS'intercomparisons'
p1745
(dp1746
g3
g4
((lp1747
tp1748
Rp1749
sg8
I00
sg9
g1745
ssS'neoconservatisms'
p1750
(dp1751
g3
g4
((lp1752
tp1753
Rp1754
sg8
I00
sg9
g1750
ssS'antirationalisms'
p1755
(dp1756
g3
g4
((lp1757
S'antirationalists'
p1758
atp1759
Rp1760
sg8
I00
sg9
g1755
ssS'radioimmunoassay'
p1761
(dp1762
g3
g4
((lp1763
tp1764
Rp1765
sg8
I00
sg9
g1761
ssS'resolidification'
p1766
(dp1767
g3
g4
((lp1768
tp1769
Rp1770
sg8
I00
sg9
g1766
ssS'cannibalizations'
p1771
(dp1772
g3
g4
((lp1773
tp1774
Rp1775
sg8
I00
sg9
g1771
ssS'trinitrotoluenes'
p1776
(dp1777
g3
g4
((lp1778
tp1779
Rp1780
sg8
I00
sg9
g1776
ssS'archconservative'
p1781
(dp1782
g3
g4
((lp1783
tp1784
Rp1785
sg8
I00
sg9
g1781
ssS'anticonglomerate'
p1786
(dp1787
g3
g4
((lp1788
tp1789
Rp1790
sg8
I00
sg9
g1786
ssS'diastereoisomers'
p1791
(dp1792
g3
g4
((lp1793
tp1794
Rp1795
sg8
I00
sg9
g1791
ssS'unflappabilities'
p1796
(dp1797
g3
g4
((lp1798
tp1799
Rp1800
sg8
I00
sg9
g1796
ssS'maldistributions'
p1801
(dp1802
g3
g4
((lp1803
tp1804
Rp1805
sg8
I00
sg9
g1801
ssS'mathematizations'
p1806
(dp1807
g3
g4
((lp1808
tp1809
Rp1810
sg8
I00
sg9
g1806
ssS'hypersensitizing'
p1811
(dp1812
g3
g4
((lp1813
tp1814
Rp1815
sg8
I00
sg9
g1811
ssS'inextinguishable'
p1816
(dp1817
g3
g4
((lp1818
S'inextinguishably'
p1819
atp1820
Rp1821
sg8
I00
sg9
g1816
ssS'demagnetizations'
p1822
(dp1823
g3
g4
((lp1824
tp1825
Rp1826
sg8
I00
sg9
g1822
ssg1819
(dp1827
g3
g4
((lp1828
g1816
atp1829
Rp1830
sg8
I00
sg9
g1819
ssS'biosynthetically'
p1831
(dp1832
g3
g4
((lp1833
tp1834
Rp1835
sg8
I00
sg9
g1831
ssS'detestablenesses'
p1836
(dp1837
g3
g4
((lp1838
tp1839
Rp1840
sg8
I00
sg9
g1836
ssS'nonprofessionals'
p1841
(dp1842
g3
g4
((lp1843
tp1844
Rp1845
sg8
I00
sg9
g1841
ssS'noninterventions'
p1846
(dp1847
g3
g4
((lp1848
tp1849
Rp1850
sg8
I00
sg9
g1846
ssS'formularizations'
p1851
(dp1852
g3
g4
((lp1853
tp1854
Rp1855
sg8
I00
sg9
g1851
ssS'fissionabilities'
p1856
(dp1857
g3
g4
((lp1858
tp1859
Rp1860
sg8
I00
sg9
g1856
ssS'unscrupulousness'
p1861
(dp1862
g3
g4
((lp1863
tp1864
Rp1865
sg8
I00
sg9
g1861
ssS'cinematographers'
p1866
(dp1867
g3
g4
((lp1868
tp1869
Rp1870
sg8
I00
sg9
g1866
ssS'newfanglednesses'
p1871
(dp1872
g3
g4
((lp1873
tp1874
Rp1875
sg8
I00
sg9
g1871
ssS'pertinaciousness'
p1876
(dp1877
g3
g4
((lp1878
tp1879
Rp1880
sg8
I00
sg9
g1876
ssS'electrotonically'
p1881
(dp1882
g3
g4
((lp1883
tp1884
Rp1885
sg8
I00
sg9
g1881
ssS'alphabetizations'
p1886
(dp1887
g3
g4
((lp1888
tp1889
Rp1890
sg8
I00
sg9
g1886
ssS'fortuitousnesses'
p1891
(dp1892
g3
g4
((lp1893
tp1894
Rp1895
sg8
I00
sg9
g1891
ssS'diminutivenesses'
p1896
(dp1897
g3
g4
((lp1898
tp1899
Rp1900
sg8
I00
sg9
g1896
ssS'incontrovertibly'
p1901
(dp1902
g3
g4
((lp1903
S'incontrovertible'
p1904
atp1905
Rp1906
sg8
I00
sg9
g1901
ssS'counterquestions'
p1907
(dp1908
g3
g4
((lp1909
tp1910
Rp1911
sg8
I00
sg9
g1907
ssS'blepharoplasties'
p1912
(dp1913
g3
g4
((lp1914
tp1915
Rp1916
sg8
I00
sg9
g1912
ssS'indefinabilities'
p1917
(dp1918
g3
g4
((lp1919
tp1920
Rp1921
sg8
I00
sg9
g1917
ssS'artificialnesses'
p1922
(dp1923
g3
g4
((lp1924
tp1925
Rp1926
sg8
I00
sg9
g1922
ssg1904
(dp1927
g3
g4
((lp1928
g1901
atp1929
Rp1930
sg8
I00
sg9
g1904
ssS'territorializing'
p1931
(dp1932
g3
g4
((lp1933
tp1934
Rp1935
sg8
I00
sg9
g1931
ssS'irremediableness'
p1936
(dp1937
g3
g4
((lp1938
tp1939
Rp1940
sg8
I00
sg9
g1936
ssS'immunoregulatory'
p1941
(dp1942
g3
g4
((lp1943
tp1944
Rp1945
sg8
I00
sg9
g1941
ssS'accumulativeness'
p1946
(dp1947
g3
g4
((lp1948
tp1949
Rp1950
sg8
I00
sg9
g1946
ssS'pharmacodynamics'
p1951
(dp1952
g3
g4
((lp1953
tp1954
Rp1955
sg8
I00
sg9
g1951
ssS'diphenhydramines'
p1956
(dp1957
g3
g4
((lp1958
tp1959
Rp1960
sg8
I00
sg9
g1956
ssS'municipalization'
p1961
(dp1962
g3
g4
((lp1963
tp1964
Rp1965
sg8
I00
sg9
g1961
ssS'noteworthinesses'
p1966
(dp1967
g3
g4
((lp1968
tp1969
Rp1970
sg8
I00
sg9
g1966
ssS'percussivenesses'
p1971
(dp1972
g3
g4
((lp1973
tp1974
Rp1975
sg8
I00
sg9
g1971
ssS'theocentricities'
p1976
(dp1977
g3
g4
((lp1978
tp1979
Rp1980
sg8
I00
sg9
g1976
ssS'tumultuousnesses'
p1981
(dp1982
g3
g4
((lp1983
tp1984
Rp1985
sg8
I00
sg9
g1981
ssS'nationalizations'
p1986
(dp1987
g3
g4
((lp1988
S'rationalizations'
p1989
atp1990
Rp1991
sg8
I00
sg9
g1986
ssS'supposititiously'
p1992
(dp1993
g3
g4
((lp1994
tp1995
Rp1996
sg8
I00
sg9
g1992
ssS'inordinatenesses'
p1997
(dp1998
g3
g4
((lp1999
tp2000
Rp2001
sg8
I00
sg9
g1997
ssS'dendrochronology'
p2002
(dp2003
g3
g4
((lp2004
tp2005
Rp2006
sg8
I00
sg9
g2002
ssS'transmissometers'
p2007
(dp2008
g3
g4
((lp2009
tp2010
Rp2011
sg8
I00
sg9
g2007
ssS'conservationists'
p2012
(dp2013
g3
g4
((lp2014
tp2015
Rp2016
sg8
I00
sg9
g2012
ssS'retransformation'
p2017
(dp2018
g3
g4
((lp2019
tp2020
Rp2021
sg8
I00
sg9
g2017
ssS'noncomprehension'
p2022
(dp2023
g3
g4
((lp2024
tp2025
Rp2026
sg8
I00
sg9
g2022
ssS'voluminousnesses'
p2027
(dp2028
g3
g4
((lp2029
tp2030
Rp2031
sg8
I00
sg9
g2027
ssS'unseasonableness'
p2032
(dp2033
g3
g4
((lp2034
S'unreasonableness'
p2035
atp2036
Rp2037
sg8
I00
sg9
g2032
ssS'tyrannicalnesses'
p2038
(dp2039
g3
g4
((lp2040
tp2041
Rp2042
sg8
I00
sg9
g2038
ssS'ultralightweight'
p2043
(dp2044
g3
g4
((lp2045
tp2046
Rp2047
sg8
I00
sg9
g2043
ssS'microradiographs'
p2048
(dp2049
g3
g4
((lp2050
S'microradiography'
p2051
atp2052
Rp2053
sg8
I00
sg9
g2048
ssg2051
(dp2054
g3
g4
((lp2055
g2048
atp2056
Rp2057
sg8
I00
sg9
g2051
ssS'jurisdictionally'
p2058
(dp2059
g3
g4
((lp2060
tp2061
Rp2062
sg8
I00
sg9
g2058
ssS'pathophysiologic'
p2063
(dp2064
g3
g4
((lp2065
tp2066
Rp2067
sg8
I00
sg9
g2063
ssS'nonconservations'
p2068
(dp2069
g3
g4
((lp2070
tp2071
Rp2072
sg8
I00
sg9
g2068
ssS'archaeoastronomy'
p2073
(dp2074
g3
g4
((lp2075
tp2076
Rp2077
sg8
I00
sg9
g2073
ssS'endopolyploidies'
p2078
(dp2079
g3
g4
((lp2080
tp2081
Rp2082
sg8
I00
sg9
g2078
ssS'noncontradictory'
p2083
(dp2084
g3
g4
((lp2085
tp2086
Rp2087
sg8
I00
sg9
g2083
ssS'meristematically'
p2088
(dp2089
g3
g4
((lp2090
tp2091
Rp2092
sg8
I00
sg9
g2088
ssS'methylphenidates'
p2093
(dp2094
g3
g4
((lp2095
tp2096
Rp2097
sg8
I00
sg9
g2093
ssS'heavyheartedness'
p2098
(dp2099
g3
g4
((lp2100
tp2101
Rp2102
sg8
I00
sg9
g2098
ssS'complementations'
p2103
(dp2104
g3
g4
((lp2105
tp2106
Rp2107
sg8
I00
sg9
g2103
ssS'multifariousness'
p2108
(dp2109
g3
g4
((lp2110
tp2111
Rp2112
sg8
I00
sg9
g2108
ssS'turbomachineries'
p2113
(dp2114
g3
g4
((lp2115
tp2116
Rp2117
sg8
I00
sg9
g2113
ssg94
(dp2118
g3
g4
((lp2119
g91
atp2120
Rp2121
sg8
I00
sg9
g94
ssS'daguerreotypists'
p2122
(dp2123
g3
g4
((lp2124
tp2125
Rp2126
sg8
I00
sg9
g2122
ssS'antimaterialists'
p2127
(dp2128
g3
g4
((lp2129
S'antimaterialisms'
p2130
atp2131
Rp2132
sg8
I00
sg9
g2127
ssS'photojournalists'
p2133
(dp2134
g3
g4
((lp2135
S'photojournalisms'
p2136
atp2137
Rp2138
sg8
I00
sg9
g2133
ssS'multibillionaire'
p2139
(dp2140
g3
g4
((lp2141
S'multimillionaire'
p2142
atp2143
Rp2144
sg8
I00
sg9
g2139
ssS'overorchestrates'
p2145
(dp2146
g3
g4
((lp2147
S'overorchestrated'
p2148
atp2149
Rp2150
sg8
I00
sg9
g2145
ssS'cumbersomenesses'
p2151
(dp2152
g3
g4
((lp2153
tp2154
Rp2155
sg8
I00
sg9
g2151
ssS'undercapitalized'
p2156
(dp2157
g3
g4
((lp2158
tp2159
Rp2160
sg8
I00
sg9
g2156
ssS'presumptuousness'
p2161
(dp2162
g3
g4
((lp2163
tp2164
Rp2165
sg8
I00
sg9
g2161
ssS'impracticability'
p2166
(dp2167
g3
g4
((lp2168
tp2169
Rp2170
sg8
I00
sg9
g2166
ssS'organophosphates'
p2171
(dp2172
g3
g4
((lp2173
tp2174
Rp2175
sg8
I00
sg9
g2171
ssS'tintinnabulation'
p2176
(dp2177
g3
g4
((lp2178
tp2179
Rp2180
sg8
I00
sg9
g2176
ssS'gynandromorphies'
p2181
(dp2182
g3
g4
((lp2183
tp2184
Rp2185
sg8
I00
sg9
g2181
ssS'megagametophytes'
p2186
(dp2187
g3
g4
((lp2188
tp2189
Rp2190
sg8
I00
sg9
g2186
ssS'anticholinergics'
p2191
(dp2192
g3
g4
((lp2193
tp2194
Rp2195
sg8
I00
sg9
g2191
ssS'libidinousnesses'
p2196
(dp2197
g3
g4
((lp2198
tp2199
Rp2200
sg8
I00
sg9
g2196
ssS'underestimations'
p2201
(dp2202
g3
g4
((lp2203
tp2204
Rp2205
sg8
I00
sg9
g2201
ssS'conventionalists'
p2206
(dp2207
g3
g4
((lp2208
S'conventionalisms'
p2209
atp2210
Rp2211
sg8
I00
sg9
g2206
ssS'interventionisms'
p2212
(dp2213
g3
g4
((lp2214
S'interventionists'
p2215
atp2216
Rp2217
sg8
I00
sg9
g2212
ssS'experimentations'
p2218
(dp2219
g3
g4
((lp2220
tp2221
Rp2222
sg8
I00
sg9
g2218
ssS'umbrageousnesses'
p2223
(dp2224
g3
g4
((lp2225
tp2226
Rp2227
sg8
I00
sg9
g2223
ssS'microcalorimeter'
p2228
(dp2229
g3
g4
((lp2230
tp2231
Rp2232
sg8
I00
sg9
g2228
ssS'overexpectations'
p2233
(dp2234
g3
g4
((lp2235
tp2236
Rp2237
sg8
I00
sg9
g2233
ssS'apocryphalnesses'
p2238
(dp2239
g3
g4
((lp2240
tp2241
Rp2242
sg8
I00
sg9
g2238
ssS'supernormalities'
p2243
(dp2244
g3
g4
((lp2245
tp2246
Rp2247
sg8
I00
sg9
g2243
ssS'anticonventional'
p2248
(dp2249
g3
g4
((lp2250
tp2251
Rp2252
sg8
I00
sg9
g2248
ssS'nonparticipatory'
p2253
(dp2254
g3
g4
((lp2255
tp2256
Rp2257
sg8
I00
sg9
g2253
ssS'triboluminescent'
p2258
(dp2259
g3
g4
((lp2260
tp2261
Rp2262
sg8
I00
sg9
g2258
ssS'remilitarization'
p2263
(dp2264
g3
g4
((lp2265
S'demilitarization'
p2266
atp2267
Rp2268
sg8
I00
sg9
g2263
ssS'undiscriminating'
p2269
(dp2270
g3
g4
((lp2271
S'indiscriminating'
p2272
atp2273
Rp2274
sg8
I00
sg9
g2269
ssS'effortlessnesses'
p2275
(dp2276
g3
g4
((lp2277
tp2278
Rp2279
sg8
I00
sg9
g2275
ssS'morphometrically'
p2280
(dp2281
g3
g4
((lp2282
tp2283
Rp2284
sg8
I00
sg9
g2280
ssS'praiseworthiness'
p2285
(dp2286
g3
g4
((lp2287
tp2288
Rp2289
sg8
I00
sg9
g2285
ssS'polyrhythmically'
p2290
(dp2291
g3
g4
((lp2292
tp2293
Rp2294
sg8
I00
sg9
g2290
ssS'deliberativeness'
p2295
(dp2296
g3
g4
((lp2297
tp2298
Rp2299
sg8
I00
sg9
g2295
ssS'biotechnological'
p2300
(dp2301
g3
g4
((lp2302
tp2303
Rp2304
sg8
I00
sg9
g2300
ssS'autopolyploidies'
p2305
(dp2306
g3
g4
((lp2307
tp2308
Rp2309
sg8
I00
sg9
g2305
ssS'carboxypeptidase'
p2310
(dp2311
g3
g4
((lp2312
tp2313
Rp2314
sg8
I00
sg9
g2310
ssS'suggestibilities'
p2315
(dp2316
g3
g4
((lp2317
tp2318
Rp2319
sg8
I00
sg9
g2315
ssS'anesthesiologist'
p2320
(dp2321
g3
g4
((lp2322
tp2323
Rp2324
sg8
I00
sg9
g2320
ssS'personablenesses'
p2325
(dp2326
g3
g4
((lp2327
tp2328
Rp2329
sg8
I00
sg9
g2325
ssS'degeneratenesses'
p2330
(dp2331
g3
g4
((lp2332
S'regeneratenesses'
p2333
atp2334
Rp2335
sg8
I00
sg9
g2330
ssS'incombustibility'
p2336
(dp2337
g3
g4
((lp2338
tp2339
Rp2340
sg8
I00
sg9
g2336
ssS'encephalitogenic'
p2341
(dp2342
g3
g4
((lp2343
tp2344
Rp2345
sg8
I00
sg9
g2341
ssS'meditativenesses'
p2346
(dp2347
g3
g4
((lp2348
tp2349
Rp2350
sg8
I00
sg9
g2346
ssS'stresslessnesses'
p2351
(dp2352
g3
g4
((lp2353
tp2354
Rp2355
sg8
I00
sg9
g2351
ssS'histopathologist'
p2356
(dp2357
g3
g4
((lp2358
tp2359
Rp2360
sg8
I00
sg9
g2356
ssS'southeasternmost'
p2361
(dp2362
g3
g4
((lp2363
tp2364
Rp2365
sg8
I00
sg9
g2361
ssS'micrographically'
p2366
(dp2367
g3
g4
((lp2368
tp2369
Rp2370
sg8
I00
sg9
g2366
ssS'dodecaphonically'
p2371
(dp2372
g3
g4
((lp2373
tp2374
Rp2375
sg8
I00
sg9
g2371
ssS'motherlessnesses'
p2376
(dp2377
g3
g4
((lp2378
tp2379
Rp2380
sg8
I00
sg9
g2376
ssS'containerization'
p2381
(dp2382
g3
g4
((lp2383
S'containerisation'
p2384
atp2385
Rp2386
sg8
I00
sg9
g2381
ssS'unfriendlinesses'
p2387
(dp2388
g3
g4
((lp2389
tp2390
Rp2391
sg8
I00
sg9
g2387
ssS'authoritarianism'
p2392
(dp2393
g3
g4
((lp2394
tp2395
Rp2396
sg8
I00
sg9
g2392
ssS'enteropathogenic'
p2397
(dp2398
g3
g4
((lp2399
tp2400
Rp2401
sg8
I00
sg9
g2397
ssS'quintessentially'
p2402
(dp2403
g3
g4
((lp2404
tp2405
Rp2406
sg8
I00
sg9
g2402
ssg199
(dp2407
g3
g4
((lp2408
g196
atp2409
Rp2410
sg8
I00
sg9
g199
ssS'counterattackers'
p2411
(dp2412
g3
g4
((lp2413
tp2414
Rp2415
sg8
I00
sg9
g2411
ssS'inconsiderations'
p2416
(dp2417
g3
g4
((lp2418
tp2419
Rp2420
sg8
I00
sg9
g2416
ssS'unaccountability'
p2421
(dp2422
g3
g4
((lp2423
tp2424
Rp2425
sg8
I00
sg9
g2421
ssS'desulfurizations'
p2426
(dp2427
g3
g4
((lp2428
tp2429
Rp2430
sg8
I00
sg9
g2426
ssS'interhemispheric'
p2431
(dp2432
g3
g4
((lp2433
tp2434
Rp2435
sg8
I00
sg9
g2431
ssS'dispiritednesses'
p2436
(dp2437
g3
g4
((lp2438
tp2439
Rp2440
sg8
I00
sg9
g2436
ssS'antievolutionism'
p2441
(dp2442
g3
g4
((lp2443
S'antievolutionist'
p2444
atp2445
Rp2446
sg8
I00
sg9
g2441
ssS'preregistrations'
p2447
(dp2448
g3
g4
((lp2449
tp2450
Rp2451
sg8
I00
sg9
g2447
ssS'anticarcinogenic'
p2452
(dp2453
g3
g4
((lp2454
tp2455
Rp2456
sg8
I00
sg9
g2452
ssS'disingenuousness'
p2457
(dp2458
g3
g4
((lp2459
tp2460
Rp2461
sg8
I00
sg9
g2457
ssg2444
(dp2462
g3
g4
((lp2463
g2441
atp2464
Rp2465
sg8
I00
sg9
g2444
ssS'interrelatedness'
p2466
(dp2467
g3
g4
((lp2468
tp2469
Rp2470
sg8
I00
sg9
g2466
ssS'microcirculatory'
p2471
(dp2472
g3
g4
((lp2473
tp2474
Rp2475
sg8
I00
sg9
g2471
ssS'undersecretaries'
p2476
(dp2477
g3
g4
((lp2478
tp2479
Rp2480
sg8
I00
sg9
g2476
ssS'responsivenesses'
p2481
(dp2482
g3
g4
((lp2483
tp2484
Rp2485
sg8
I00
sg9
g2481
ssS'totalitarianisms'
p2486
(dp2487
g3
g4
((lp2488
tp2489
Rp2490
sg8
I00
sg9
g2486
ssS'nonproliferation'
p2491
(dp2492
g3
g4
((lp2493
tp2494
Rp2495
sg8
I00
sg9
g2491
ssS'bathythermograph'
p2496
(dp2497
g3
g4
((lp2498
tp2499
Rp2500
sg8
I00
sg9
g2496
ssS'superenciphering'
p2501
(dp2502
g3
g4
((lp2503
tp2504
Rp2505
sg8
I00
sg9
g2501
ssS'insufferableness'
p2506
(dp2507
g3
g4
((lp2508
tp2509
Rp2510
sg8
I00
sg9
g2506
ssS'autoradiographic'
p2511
(dp2512
g3
g4
((lp2513
tp2514
Rp2515
sg8
I00
sg9
g2511
ssS'distributivities'
p2516
(dp2517
g3
g4
((lp2518
tp2519
Rp2520
sg8
I00
sg9
g2516
ssS'rhabdomyosarcoma'
p2521
(dp2522
g3
g4
((lp2523
tp2524
Rp2525
sg8
I00
sg9
g2521
ssS'micromanagements'
p2526
(dp2527
g3
g4
((lp2528
tp2529
Rp2530
sg8
I00
sg9
g2526
ssS'immunohematology'
p2531
(dp2532
g3
g4
((lp2533
tp2534
Rp2535
sg8
I00
sg9
g2531
ssS'programmatically'
p2536
(dp2537
g3
g4
((lp2538
tp2539
Rp2540
sg8
I00
sg9
g2536
ssS'correspondencies'
p2541
(dp2542
g3
g4
((lp2543
tp2544
Rp2545
sg8
I00
sg9
g2541
ssS'circumstantiates'
p2546
(dp2547
g3
g4
((lp2548
S'circumstantiated'
p2549
atp2550
Rp2551
sg8
I00
sg9
g2546
ssS'carcinosarcomata'
p2552
(dp2553
g3
g4
((lp2554
tp2555
Rp2556
sg8
I00
sg9
g2552
ssS'mesembryanthemum'
p2557
(dp2558
g3
g4
((lp2559
tp2560
Rp2561
sg8
I00
sg9
g2557
ssS'montmorillonitic'
p2562
(dp2563
g3
g4
((lp2564
tp2565
Rp2566
sg8
I00
sg9
g2562
ssS'neurohypophyseal'
p2567
(dp2568
g3
g4
((lp2569
S'neurohypophysial'
p2570
atp2571
Rp2572
sg8
I00
sg9
g2567
ssS'recentralization'
p2573
(dp2574
g3
g4
((lp2575
S'decentralization'
p2576
atp2577
Rp2578
sg8
I00
sg9
g2573
ssS'decalcifications'
p2579
(dp2580
g3
g4
((lp2581
tp2582
Rp2583
sg8
I00
sg9
g2579
ssS'boneheadednesses'
p2584
(dp2585
g3
g4
((lp2586
tp2587
Rp2588
sg8
I00
sg9
g2584
ssS'counterattacking'
p2589
(dp2590
g3
g4
((lp2591
tp2592
Rp2593
sg8
I00
sg9
g2589
ssS'positivistically'
p2594
(dp2595
g3
g4
((lp2596
tp2597
Rp2598
sg8
I00
sg9
g2594
ssS'underdevelopment'
p2599
(dp2600
g3
g4
((lp2601
tp2602
Rp2603
sg8
I00
sg9
g2599
ssS'intercommunicate'
p2604
(dp2605
g3
g4
((lp2606
tp2607
Rp2608
sg8
I00
sg9
g2604
ssS'interstratifying'
p2609
(dp2610
g3
g4
((lp2611
tp2612
Rp2613
sg8
I00
sg9
g2609
ssS'hypermetabolisms'
p2614
(dp2615
g3
g4
((lp2616
tp2617
Rp2618
sg8
I00
sg9
g2614
ssS'criminalizations'
p2619
(dp2620
g3
g4
((lp2621
tp2622
Rp2623
sg8
I00
sg9
g2619
ssg681
(dp2624
g3
g4
((lp2625
g678
atp2626
Rp2627
sg8
I00
sg9
g681
ssS'ungraciousnesses'
p2628
(dp2629
g3
g4
((lp2630
tp2631
Rp2632
sg8
I00
sg9
g2628
ssS'obstreperousness'
p2633
(dp2634
g3
g4
((lp2635
tp2636
Rp2637
sg8
I00
sg9
g2633
ssS'terminablenesses'
p2638
(dp2639
g3
g4
((lp2640
tp2641
Rp2642
sg8
I00
sg9
g2638
ssS'dissociabilities'
p2643
(dp2644
g3
g4
((lp2645
tp2646
Rp2647
sg8
I00
sg9
g2643
ssS'supraventricular'
p2648
(dp2649
g3
g4
((lp2650
tp2651
Rp2652
sg8
I00
sg9
g2648
ssS'reorganizational'
p2653
(dp2654
g3
g4
((lp2655
tp2656
Rp2657
sg8
I00
sg9
g2653
ssS'totalitarianized'
p2658
(dp2659
g3
g4
((lp2660
S'totalitarianizes'
p2661
atp2662
Rp2663
sg8
I00
sg9
g2658
ssS'noncontroversial'
p2664
(dp2665
g3
g4
((lp2666
tp2667
Rp2668
sg8
I00
sg9
g2664
ssS'extraterrestrial'
p2669
(dp2670
g3
g4
((lp2671
tp2672
Rp2673
sg8
I00
sg9
g2669
ssS'superintendences'
p2674
(dp2675
g3
g4
((lp2676
tp2677
Rp2678
sg8
I00
sg9
g2674
ssg1580
(dp2679
g3
g4
((lp2680
g1577
atp2681
Rp2682
sg8
I00
sg9
g1580
ssS'microcircuitries'
p2683
(dp2684
g3
g4
((lp2685
tp2686
Rp2687
sg8
I00
sg9
g2683
ssS'reincorporations'
p2688
(dp2689
g3
g4
((lp2690
tp2691
Rp2692
sg8
I00
sg9
g2688
ssS'pronounceability'
p2693
(dp2694
g3
g4
((lp2695
tp2696
Rp2697
sg8
I00
sg9
g2693
ssS'piezoelectricity'
p2698
(dp2699
g3
g4
((lp2700
tp2701
Rp2702
sg8
I00
sg9
g2698
ssS'superfecundation'
p2703
(dp2704
g3
g4
((lp2705
tp2706
Rp2707
sg8
I00
sg9
g2703
ssS'inconclusiveness'
p2708
(dp2709
g3
g4
((lp2710
tp2711
Rp2712
sg8
I00
sg9
g2708
ssS'etherealizations'
p2713
(dp2714
g3
g4
((lp2715
tp2716
Rp2717
sg8
I00
sg9
g2713
ssS'disequilibration'
p2718
(dp2719
g3
g4
((lp2720
tp2721
Rp2722
sg8
I00
sg9
g2718
ssS'propitiousnesses'
p2723
(dp2724
g3
g4
((lp2725
tp2726
Rp2727
sg8
I00
sg9
g2723
ssS'justiciabilities'
p2728
(dp2729
g3
g4
((lp2730
S'justifiabilities'
p2731
atp2732
Rp2733
sg8
I00
sg9
g2728
ssS'photoproductions'
p2734
(dp2735
g3
g4
((lp2736
tp2737
Rp2738
sg8
I00
sg9
g2734
ssS'atrioventricular'
p2739
(dp2740
g3
g4
((lp2741
tp2742
Rp2743
sg8
I00
sg9
g2739
ssS'counterweighting'
p2744
(dp2745
g3
g4
((lp2746
tp2747
Rp2748
sg8
I00
sg9
g2744
ssS'perfectivenesses'
p2749
(dp2750
g3
g4
((lp2751
tp2752
Rp2753
sg8
I00
sg9
g2749
ssS'allopolyploidies'
p2754
(dp2755
g3
g4
((lp2756
tp2757
Rp2758
sg8
I00
sg9
g2754
ssS'archiepiscopally'
p2759
(dp2760
g3
g4
((lp2761
tp2762
Rp2763
sg8
I00
sg9
g2759
ssS'oligodendrocytes'
p2764
(dp2765
g3
g4
((lp2766
tp2767
Rp2768
sg8
I00
sg9
g2764
ssS'appendicectomies'
p2769
(dp2770
g3
g4
((lp2771
tp2772
Rp2773
sg8
I00
sg9
g2769
ssS'prenotifications'
p2774
(dp2775
g3
g4
((lp2776
tp2777
Rp2778
sg8
I00
sg9
g2774
ssS'hardhandednesses'
p2779
(dp2780
g3
g4
((lp2781
tp2782
Rp2783
sg8
I00
sg9
g2779
ssS'fictionalization'
p2784
(dp2785
g3
g4
((lp2786
tp2787
Rp2788
sg8
I00
sg9
g2784
ssS'multidisciplines'
p2789
(dp2790
g3
g4
((lp2791
tp2792
Rp2793
sg8
I00
sg9
g2789
ssS'anthropomorphize'
p2794
(dp2795
g3
g4
((lp2796
tp2797
Rp2798
sg8
I00
sg9
g2794
ssS'transcendentally'
p2799
(dp2800
g3
g4
((lp2801
tp2802
Rp2803
sg8
I00
sg9
g2799
ssS'neuropsychiatric'
p2804
(dp2805
g3
g4
((lp2806
tp2807
Rp2808
sg8
I00
sg9
g2804
ssS'transcriptionist'
p2809
(dp2810
g3
g4
((lp2811
tp2812
Rp2813
sg8
I00
sg9
g2809
ssS'semiabstractions'
p2814
(dp2815
g3
g4
((lp2816
tp2817
Rp2818
sg8
I00
sg9
g2814
ssS'superpatriotisms'
p2819
(dp2820
g3
g4
((lp2821
tp2822
Rp2823
sg8
I00
sg9
g2819
ssS'rhynchocephalian'
p2824
(dp2825
g3
g4
((lp2826
tp2827
Rp2828
sg8
I00
sg9
g2824
ssS'macrophotography'
p2829
(dp2830
g3
g4
((lp2831
S'microphotography'
p2832
aS'macrophotographs'
p2833
atp2834
Rp2835
sg8
I00
sg9
g2829
ssS'hydrophilicities'
p2836
(dp2837
g3
g4
((lp2838
tp2839
Rp2840
sg8
I00
sg9
g2836
ssS'melodramatically'
p2841
(dp2842
g3
g4
((lp2843
tp2844
Rp2845
sg8
I00
sg9
g2841
ssS'mysteriousnesses'
p2846
(dp2847
g3
g4
((lp2848
tp2849
Rp2850
sg8
I00
sg9
g2846
ssg2833
(dp2851
g3
g4
((lp2852
g2829
aS'microphotographs'
p2853
atp2854
Rp2855
sg8
I00
sg9
g2833
ssS'macrolepidoptera'
p2856
(dp2857
g3
g4
((lp2858
S'microlepidoptera'
p2859
atp2860
Rp2861
sg8
I00
sg9
g2856
ssS'overexaggeration'
p2862
(dp2863
g3
g4
((lp2864
tp2865
Rp2866
sg8
I00
sg9
g2862
ssS'constructionally'
p2867
(dp2868
g3
g4
((lp2869
tp2870
Rp2871
sg8
I00
sg9
g2867
ssS'thriftlessnesses'
p2872
(dp2873
g3
g4
((lp2874
tp2875
Rp2876
sg8
I00
sg9
g2872
ssS'intransitiveness'
p2877
(dp2878
g3
g4
((lp2879
tp2880
Rp2881
sg8
I00
sg9
g2877
ssS'imperturbability'
p2882
(dp2883
g3
g4
((lp2884
tp2885
Rp2886
sg8
I00
sg9
g2882
ssS'uneventfulnesses'
p2887
(dp2888
g3
g4
((lp2889
tp2890
Rp2891
sg8
I00
sg9
g2887
ssS'despicablenesses'
p2892
(dp2893
g3
g4
((lp2894
tp2895
Rp2896
sg8
I00
sg9
g2892
ssS'intentionalities'
p2897
(dp2898
g3
g4
((lp2899
S'intensionalities'
p2900
atp2901
Rp2902
sg8
I00
sg9
g2897
ssS'perfidiousnesses'
p2903
(dp2904
g3
g4
((lp2905
tp2906
Rp2907
sg8
I00
sg9
g2903
ssS'electrochemistry'
p2908
(dp2909
g3
g4
((lp2910
tp2911
Rp2912
sg8
I00
sg9
g2908
ssS'sesquicarbonates'
p2913
(dp2914
g3
g4
((lp2915
tp2916
Rp2917
sg8
I00
sg9
g2913
ssS'overhomogenizing'
p2918
(dp2919
g3
g4
((lp2920
tp2921
Rp2922
sg8
I00
sg9
g2918
ssS'reindustrialized'
p2923
(dp2924
g3
g4
((lp2925
S'deindustrialized'
p2926
aS'reindustrializes'
p2927
atp2928
Rp2929
sg8
I00
sg9
g2923
ssS'interterritorial'
p2930
(dp2931
g3
g4
((lp2932
tp2933
Rp2934
sg8
I00
sg9
g2930
ssS'cladogenetically'
p2935
(dp2936
g3
g4
((lp2937
tp2938
Rp2939
sg8
I00
sg9
g2935
ssg2859
(dp2940
g3
g4
((lp2941
g2856
atp2942
Rp2943
sg8
I00
sg9
g2859
ssS'polycondensation'
p2944
(dp2945
g3
g4
((lp2946
tp2947
Rp2948
sg8
I00
sg9
g2944
ssS'recontextualized'
p2949
(dp2950
g3
g4
((lp2951
S'recontextualizes'
p2952
atp2953
Rp2954
sg8
I00
sg9
g2949
ssS'indisputableness'
p2955
(dp2956
g3
g4
((lp2957
tp2958
Rp2959
sg8
I00
sg9
g2955
ssS'extemporisations'
p2960
(dp2961
g3
g4
((lp2962
S'extemporizations'
p2963
atp2964
Rp2965
sg8
I00
sg9
g2960
ssS'substitutionally'
p2966
(dp2967
g3
g4
((lp2968
tp2969
Rp2970
sg8
I00
sg9
g2966
ssS'thrombophlebitis'
p2971
(dp2972
g3
g4
((lp2973
tp2974
Rp2975
sg8
I00
sg9
g2971
ssS'roundaboutnesses'
p2976
(dp2977
g3
g4
((lp2978
tp2979
Rp2980
sg8
I00
sg9
g2976
ssS'polarizabilities'
p2981
(dp2982
g3
g4
((lp2983
tp2984
Rp2985
sg8
I00
sg9
g2981
ssS'hypersensitivity'
p2986
(dp2987
g3
g4
((lp2988
tp2989
Rp2990
sg8
I00
sg9
g2986
ssS'superbureaucrats'
p2991
(dp2992
g3
g4
((lp2993
tp2994
Rp2995
sg8
I00
sg9
g2991
ssS'multilateralisms'
p2996
(dp2997
g3
g4
((lp2998
S'multilateralists'
p2999
atp3000
Rp3001
sg8
I00
sg9
g2996
ssS'coadministration'
p3002
(dp3003
g3
g4
((lp3004
tp3005
Rp3006
sg8
I00
sg9
g3002
ssS'creaturelinesses'
p3007
(dp3008
g3
g4
((lp3009
tp3010
Rp3011
sg8
I00
sg9
g3007
ssS'unsophistication'
p3012
(dp3013
g3
g4
((lp3014
tp3015
Rp3016
sg8
I00
sg9
g3012
ssS'acetophenetidins'
p3017
(dp3018
g3
g4
((lp3019
tp3020
Rp3021
sg8
I00
sg9
g3017
ssS'autotransfusions'
p3022
(dp3023
g3
g4
((lp3024
tp3025
Rp3026
sg8
I00
sg9
g3022
ssS'comparablenesses'
p3027
(dp3028
g3
g4
((lp3029
tp3030
Rp3031
sg8
I00
sg9
g3027
ssS'adenohypophyseal'
p3032
(dp3033
g3
g4
((lp3034
S'adenohypophysial'
p3035
atp3036
Rp3037
sg8
I00
sg9
g3032
ssS'dolichocephalies'
p3038
(dp3039
g3
g4
((lp3040
tp3041
Rp3042
sg8
I00
sg9
g3038
ssS'sociolinguistics'
p3043
(dp3044
g3
g4
((lp3045
tp3046
Rp3047
sg8
I00
sg9
g3043
ssS'codeterminations'
p3048
(dp3049
g3
g4
((lp3050
tp3051
Rp3052
sg8
I00
sg9
g3048
ssS'antiprostitution'
p3053
(dp3054
g3
g4
((lp3055
tp3056
Rp3057
sg8
I00
sg9
g3053
ssg2963
(dp3058
g3
g4
((lp3059
g2960
atp3060
Rp3061
sg8
I00
sg9
g2963
ssS'circumvallations'
p3062
(dp3063
g3
g4
((lp3064
tp3065
Rp3066
sg8
I00
sg9
g3062
ssS'bullheadednesses'
p3067
(dp3068
g3
g4
((lp3069
tp3070
Rp3071
sg8
I00
sg9
g3067
ssS'postpresidential'
p3072
(dp3073
g3
g4
((lp3074
tp3075
Rp3076
sg8
I00
sg9
g3072
ssS'transubstantiate'
p3077
(dp3078
g3
g4
((lp3079
tp3080
Rp3081
sg8
I00
sg9
g3077
ssS'nonconstructions'
p3082
(dp3083
g3
g4
((lp3084
tp3085
Rp3086
sg8
I00
sg9
g3082
ssS'antituberculosis'
p3087
(dp3088
g3
g4
((lp3089
tp3090
Rp3091
sg8
I00
sg9
g3087
ssS'disentanglements'
p3092
(dp3093
g3
g4
((lp3094
tp3095
Rp3096
sg8
I00
sg9
g3092
ssS'acquaintanceship'
p3097
(dp3098
g3
g4
((lp3099
tp3100
Rp3101
sg8
I00
sg9
g3097
ssS'celebratednesses'
p3102
(dp3103
g3
g4
((lp3104
tp3105
Rp3106
sg8
I00
sg9
g3102
ssS'cosmopolitanisms'
p3107
(dp3108
g3
g4
((lp3109
tp3110
Rp3111
sg8
I00
sg9
g3107
ssS'stereophonically'
p3112
(dp3113
g3
g4
((lp3114
tp3115
Rp3116
sg8
I00
sg9
g3112
ssS'threadbarenesses'
p3117
(dp3118
g3
g4
((lp3119
tp3120
Rp3121
sg8
I00
sg9
g3117
ssS'scandalmongering'
p3122
(dp3123
g3
g4
((lp3124
tp3125
Rp3126
sg8
I00
sg9
g3122
ssS'methylcelluloses'
p3127
(dp3128
g3
g4
((lp3129
tp3130
Rp3131
sg8
I00
sg9
g3127
ssS'counterclockwise'
p3132
(dp3133
g3
g4
((lp3134
tp3135
Rp3136
sg8
I00
sg9
g3132
ssS'exterritoriality'
p3137
(dp3138
g3
g4
((lp3139
tp3140
Rp3141
sg8
I00
sg9
g3137
ssS'implausibilities'
p3142
(dp3143
g3
g4
((lp3144
tp3145
Rp3146
sg8
I00
sg9
g3142
ssS'phonocardiograms'
p3147
(dp3148
g3
g4
((lp3149
tp3150
Rp3151
sg8
I00
sg9
g3147
ssS'suburbanizations'
p3152
(dp3153
g3
g4
((lp3154
tp3155
Rp3156
sg8
I00
sg9
g3152
ssS'cholangiographic'
p3157
(dp3158
g3
g4
((lp3159
tp3160
Rp3161
sg8
I00
sg9
g3157
ssS'phytosociologies'
p3162
(dp3163
g3
g4
((lp3164
tp3165
Rp3166
sg8
I00
sg9
g3162
ssS'cryptozoologists'
p3167
(dp3168
g3
g4
((lp3169
tp3170
Rp3171
sg8
I00
sg9
g3167
ssS'nonrevolutionary'
p3172
(dp3173
g3
g4
((lp3174
tp3175
Rp3176
sg8
I00
sg9
g3172
ssS'reflectivenesses'
p3177
(dp3178
g3
g4
((lp3179
tp3180
Rp3181
sg8
I00
sg9
g3177
ssS'phytopathologies'
p3182
(dp3183
g3
g4
((lp3184
tp3185
Rp3186
sg8
I00
sg9
g3182
ssS'forehandednesses'
p3187
(dp3188
g3
g4
((lp3189
tp3190
Rp3191
sg8
I00
sg9
g3187
ssS'unconvincingness'
p3192
(dp3193
g3
g4
((lp3194
tp3195
Rp3196
sg8
I00
sg9
g3192
ssS'thromboembolisms'
p3197
(dp3198
g3
g4
((lp3199
tp3200
Rp3201
sg8
I00
sg9
g3197
ssS'histoplasmosises'
p3202
(dp3203
g3
g4
((lp3204
tp3205
Rp3206
sg8
I00
sg9
g3202
ssS'ridiculousnesses'
p3207
(dp3208
g3
g4
((lp3209
tp3210
Rp3211
sg8
I00
sg9
g3207
ssS'chromatographers'
p3212
(dp3213
g3
g4
((lp3214
tp3215
Rp3216
sg8
I00
sg9
g3212
ssS'underproductions'
p3217
(dp3218
g3
g4
((lp3219
tp3220
Rp3221
sg8
I00
sg9
g3217
ssS'heterokaryosises'
p3222
(dp3223
g3
g4
((lp3224
tp3225
Rp3226
sg8
I00
sg9
g3222
ssS'colorimetrically'
p3227
(dp3228
g3
g4
((lp3229
S'calorimetrically'
p3230
atp3231
Rp3232
sg8
I00
sg9
g3227
ssS'phylogenetically'
p3233
(dp3234
g3
g4
((lp3235
tp3236
Rp3237
sg8
I00
sg9
g3233
ssS'unpredictability'
p3238
(dp3239
g3
g4
((lp3240
tp3241
Rp3242
sg8
I00
sg9
g3238
ssS'microcrystalline'
p3243
(dp3244
g3
g4
((lp3245
tp3246
Rp3247
sg8
I00
sg9
g3243
ssS'exemplifications'
p3248
(dp3249
g3
g4
((lp3250
tp3251
Rp3252
sg8
I00
sg9
g3248
ssS'inimitablenesses'
p3253
(dp3254
g3
g4
((lp3255
tp3256
Rp3257
sg8
I00
sg9
g3253
ssS'respectabilities'
p3258
(dp3259
g3
g4
((lp3260
tp3261
Rp3262
sg8
I00
sg9
g3258
ssS'antitechnologies'
p3263
(dp3264
g3
g4
((lp3265
tp3266
Rp3267
sg8
I00
sg9
g3263
ssS'discriminational'
p3268
(dp3269
g3
g4
((lp3270
tp3271
Rp3272
sg8
I00
sg9
g3268
ssS'unfruitfulnesses'
p3273
(dp3274
g3
g4
((lp3275
tp3276
Rp3277
sg8
I00
sg9
g3273
ssS'videoconferences'
p3278
(dp3279
g3
g4
((lp3280
tp3281
Rp3282
sg8
I00
sg9
g3278
ssS'sentimentalities'
p3283
(dp3284
g3
g4
((lp3285
tp3286
Rp3287
sg8
I00
sg9
g3283
ssS'beneficialnesses'
p3288
(dp3289
g3
g4
((lp3290
tp3291
Rp3292
sg8
I00
sg9
g3288
ssS'anesthesiologies'
p3293
(dp3294
g3
g4
((lp3295
tp3296
Rp3297
sg8
I00
sg9
g3293
ssS'malodorousnesses'
p3298
(dp3299
g3
g4
((lp3300
tp3301
Rp3302
sg8
I00
sg9
g3298
ssS'disequilibrating'
p3303
(dp3304
g3
g4
((lp3305
tp3306
Rp3307
sg8
I00
sg9
g3303
ssS'creditablenesses'
p3308
(dp3309
g3
g4
((lp3310
tp3311
Rp3312
sg8
I00
sg9
g3308
ssS'supplementations'
p3313
(dp3314
g3
g4
((lp3315
tp3316
Rp3317
sg8
I00
sg9
g3313
ssS'psychobiological'
p3318
(dp3319
g3
g4
((lp3320
tp3321
Rp3322
sg8
I00
sg9
g3318
ssS'diverticulitides'
p3323
(dp3324
g3
g4
((lp3325
S'diverticulitises'
p3326
atp3327
Rp3328
sg8
I00
sg9
g3323
ssS'gelatinousnesses'
p3329
(dp3330
g3
g4
((lp3331
tp3332
Rp3333
sg8
I00
sg9
g3329
ssS'overexploitation'
p3334
(dp3335
g3
g4
((lp3336
tp3337
Rp3338
sg8
I00
sg9
g3334
ssS'instrumentalists'
p3339
(dp3340
g3
g4
((lp3341
S'instrumentalisms'
p3342
atp3343
Rp3344
sg8
I00
sg9
g3339
ssS'interpretatively'
p3345
(dp3346
g3
g4
((lp3347
tp3348
Rp3349
sg8
I00
sg9
g3345
ssS'counteroffensive'
p3350
(dp3351
g3
g4
((lp3352
tp3353
Rp3354
sg8
I00
sg9
g3350
ssS'photoduplicating'
p3355
(dp3356
g3
g4
((lp3357
tp3358
Rp3359
sg8
I00
sg9
g3355
ssS'machineabilities'
p3360
(dp3361
g3
g4
((lp3362
tp3363
Rp3364
sg8
I00
sg9
g3360
ssS'regardlessnesses'
p3365
(dp3366
g3
g4
((lp3367
tp3368
Rp3369
sg8
I00
sg9
g3365
ssS'hypercatabolisms'
p3370
(dp3371
g3
g4
((lp3372
tp3373
Rp3374
sg8
I00
sg9
g3370
ssS'revisualizations'
p3375
(dp3376
g3
g4
((lp3377
tp3378
Rp3379
sg8
I00
sg9
g3375
ssS'antinationalists'
p3380
(dp3381
g3
g4
((lp3382
g1758
atp3383
Rp3384
sg8
I00
sg9
g3380
ssS'stereoisomerisms'
p3385
(dp3386
g3
g4
((lp3387
tp3388
Rp3389
sg8
I00
sg9
g3385
ssS'phosphorylations'
p3390
(dp3391
g3
g4
((lp3392
tp3393
Rp3394
sg8
I00
sg9
g3390
ssS'delightfulnesses'
p3395
(dp3396
g3
g4
((lp3397
tp3398
Rp3399
sg8
I00
sg9
g3395
ssS'overexaggerating'
p3400
(dp3401
g3
g4
((lp3402
tp3403
Rp3404
sg8
I00
sg9
g3400
ssS'ornithologically'
p3405
(dp3406
g3
g4
((lp3407
tp3408
Rp3409
sg8
I00
sg9
g3405
ssS'nondocumentaries'
p3410
(dp3411
g3
g4
((lp3412
tp3413
Rp3414
sg8
I00
sg9
g3410
ssS'monotonousnesses'
p3415
(dp3416
g3
g4
((lp3417
tp3418
Rp3419
sg8
I00
sg9
g3415
ssS'unattractiveness'
p3420
(dp3421
g3
g4
((lp3422
tp3423
Rp3424
sg8
I00
sg9
g3420
ssS'vascularizations'
p3425
(dp3426
g3
g4
((lp3427
tp3428
Rp3429
sg8
I00
sg9
g3425
ssS'decarboxylations'
p3430
(dp3431
g3
g4
((lp3432
tp3433
Rp3434
sg8
I00
sg9
g3430
ssS'reapportionments'
p3435
(dp3436
g3
g4
((lp3437
tp3438
Rp3439
sg8
I00
sg9
g3435
ssg853
(dp3440
g3
g4
((lp3441
g850
atp3442
Rp3443
sg8
I00
sg9
g853
ssS'ultracentrifuges'
p3444
(dp3445
g3
g4
((lp3446
S'ultracentrifuged'
p3447
atp3448
Rp3449
sg8
I00
sg9
g3444
ssg2148
(dp3450
g3
g4
((lp3451
g2145
atp3452
Rp3453
sg8
I00
sg9
g2148
ssS'courageousnesses'
p3454
(dp3455
g3
g4
((lp3456
tp3457
Rp3458
sg8
I00
sg9
g3454
ssS'proletarianizing'
p3459
(dp3460
g3
g4
((lp3461
S'proletarianising'
p3462
atp3463
Rp3464
sg8
I00
sg9
g3459
ssS'intercommunities'
p3465
(dp3466
g3
g4
((lp3467
tp3468
Rp3469
sg8
I00
sg9
g3465
ssS'intersexualities'
p3470
(dp3471
g3
g4
((lp3472
tp3473
Rp3474
sg8
I00
sg9
g3470
ssS'unchangeableness'
p3475
(dp3476
g3
g4
((lp3477
tp3478
Rp3479
sg8
I00
sg9
g3475
ssS'endarterectomies'
p3480
(dp3481
g3
g4
((lp3482
tp3483
Rp3484
sg8
I00
sg9
g3480
ssS'supercorporation'
p3485
(dp3486
g3
g4
((lp3487
tp3488
Rp3489
sg8
I00
sg9
g3485
ssS'psychobiographer'
p3490
(dp3491
g3
g4
((lp3492
tp3493
Rp3494
sg8
I00
sg9
g3490
ssS'assimilationists'
p3495
(dp3496
g3
g4
((lp3497
S'assimilationisms'
p3498
atp3499
Rp3500
sg8
I00
sg9
g3495
ssS'exteriorizations'
p3501
(dp3502
g3
g4
((lp3503
tp3504
Rp3505
sg8
I00
sg9
g3501
ssS'peremptorinesses'
p3506
(dp3507
g3
g4
((lp3508
tp3509
Rp3510
sg8
I00
sg9
g3506
ssS'retinoblastomata'
p3511
(dp3512
g3
g4
((lp3513
tp3514
Rp3515
sg8
I00
sg9
g3511
ssS'biostratigraphic'
p3516
(dp3517
g3
g4
((lp3518
tp3519
Rp3520
sg8
I00
sg9
g3516
ssS'harmoniousnesses'
p3521
(dp3522
g3
g4
((lp3523
tp3524
Rp3525
sg8
I00
sg9
g3521
ssS'vasoconstriction'
p3526
(dp3527
g3
g4
((lp3528
tp3529
Rp3530
sg8
I00
sg9
g3526
ssS'oligonucleotides'
p3531
(dp3532
g3
g4
((lp3533
tp3534
Rp3535
sg8
I00
sg9
g3531
ssS'deindustrializes'
p3536
(dp3537
g3
g4
((lp3538
g2926
ag2927
atp3539
Rp3540
sg8
I00
sg9
g3536
ssS'compatiblenesses'
p3541
(dp3542
g3
g4
((lp3543
tp3544
Rp3545
sg8
I00
sg9
g3541
ssS'opinionativeness'
p3546
(dp3547
g3
g4
((lp3548
tp3549
Rp3550
sg8
I00
sg9
g3546
ssS'seronegativities'
p3551
(dp3552
g3
g4
((lp3553
tp3554
Rp3555
sg8
I00
sg9
g3551
ssS'unsatisfactorily'
p3556
(dp3557
g3
g4
((lp3558
tp3559
Rp3560
sg8
I00
sg9
g3556
ssS'fundamentalistic'
p3561
(dp3562
g3
g4
((lp3563
tp3564
Rp3565
sg8
I00
sg9
g3561
ssS'orthogenetically'
p3566
(dp3567
g3
g4
((lp3568
tp3569
Rp3570
sg8
I00
sg9
g3566
ssS'rechromatographs'
p3571
(dp3572
g3
g4
((lp3573
S'rechromatography'
p3574
atp3575
Rp3576
sg8
I00
sg9
g3571
ssS'lugubriousnesses'
p3577
(dp3578
g3
g4
((lp3579
tp3580
Rp3581
sg8
I00
sg9
g3577
ssS'immunocompetence'
p3582
(dp3583
g3
g4
((lp3584
tp3585
Rp3586
sg8
I00
sg9
g3582
ssg3574
(dp3587
g3
g4
((lp3588
g3571
atp3589
Rp3590
sg8
I00
sg9
g3574
ssS'neuroradiologist'
p3591
(dp3592
g3
g4
((lp3593
tp3594
Rp3595
sg8
I00
sg9
g3591
ssS'weltanschauungen'
p3596
(dp3597
g3
g4
((lp3598
tp3599
Rp3600
sg8
I00
sg9
g3596
ssS'supersensitively'
p3601
(dp3602
g3
g4
((lp3603
tp3604
Rp3605
sg8
I00
sg9
g3601
ssS'aggressivenesses'
p3606
(dp3607
g3
g4
((lp3608
tp3609
Rp3610
sg8
I00
sg9
g3606
ssS'supergovernments'
p3611
(dp3612
g3
g4
((lp3613
tp3614
Rp3615
sg8
I00
sg9
g3611
ssS'practicabilities'
p3616
(dp3617
g3
g4
((lp3618
tp3619
Rp3620
sg8
I00
sg9
g3616
ssS'equalitarianisms'
p3621
(dp3622
g3
g4
((lp3623
tp3624
Rp3625
sg8
I00
sg9
g3621
ssS'paraprofessional'
p3626
(dp3627
g3
g4
((lp3628
tp3629
Rp3630
sg8
I00
sg9
g3626
ssS'thyroidectomized'
p3631
(dp3632
g3
g4
((lp3633
tp3634
Rp3635
sg8
I00
sg9
g3631
ssS'illiteratenesses'
p3636
(dp3637
g3
g4
((lp3638
tp3639
Rp3640
sg8
I00
sg9
g3636
ssS'grammaticalities'
p3641
(dp3642
g3
g4
((lp3643
tp3644
Rp3645
sg8
I00
sg9
g3641
ssS'goitrogenicities'
p3646
(dp3647
g3
g4
((lp3648
tp3649
Rp3650
sg8
I00
sg9
g3646
ssS'reconsiderations'
p3651
(dp3652
g3
g4
((lp3653
tp3654
Rp3655
sg8
I00
sg9
g3651
ssS'overapplications'
p3656
(dp3657
g3
g4
((lp3658
tp3659
Rp3660
sg8
I00
sg9
g3656
ssS'submissivenesses'
p3661
(dp3662
g3
g4
((lp3663
tp3664
Rp3665
sg8
I00
sg9
g3661
ssS'monotheistically'
p3666
(dp3667
g3
g4
((lp3668
tp3669
Rp3670
sg8
I00
sg9
g3666
ssS'mechanoreceptive'
p3671
(dp3672
g3
g4
((lp3673
tp3674
Rp3675
sg8
I00
sg9
g3671
ssS'spiritlessnesses'
p3676
(dp3677
g3
g4
((lp3678
tp3679
Rp3680
sg8
I00
sg9
g3676
ssS'salvageabilities'
p3681
(dp3682
g3
g4
((lp3683
tp3684
Rp3685
sg8
I00
sg9
g3681
ssS'precociousnesses'
p3686
(dp3687
g3
g4
((lp3688
tp3689
Rp3690
sg8
I00
sg9
g3686
ssS'fathomlessnesses'
p3691
(dp3692
g3
g4
((lp3693
tp3694
Rp3695
sg8
I00
sg9
g3691
ssS'meretriciousness'
p3696
(dp3697
g3
g4
((lp3698
tp3699
Rp3700
sg8
I00
sg9
g3696
ssS'hardheadednesses'
p3701
(dp3702
g3
g4
((lp3703
tp3704
Rp3705
sg8
I00
sg9
g3701
ssS'methodologically'
p3706
(dp3707
g3
g4
((lp3708
tp3709
Rp3710
sg8
I00
sg9
g3706
ssS'landlubberliness'
p3711
(dp3712
g3
g4
((lp3713
tp3714
Rp3715
sg8
I00
sg9
g3711
ssS'dichlorobenzenes'
p3716
(dp3717
g3
g4
((lp3718
tp3719
Rp3720
sg8
I00
sg9
g3716
ssS'postdepositional'
p3721
(dp3722
g3
g4
((lp3723
tp3724
Rp3725
sg8
I00
sg9
g3721
ssS'enfranchisements'
p3726
(dp3727
g3
g4
((lp3728
tp3729
Rp3730
sg8
I00
sg9
g3726
ssg2549
(dp3731
g3
g4
((lp3732
g2546
atp3733
Rp3734
sg8
I00
sg9
g2549
ssS'partridgeberries'
p3735
(dp3736
g3
g4
((lp3737
tp3738
Rp3739
sg8
I00
sg9
g3735
ssS'psychophysicists'
p3740
(dp3741
g3
g4
((lp3742
tp3743
Rp3744
sg8
I00
sg9
g3740
ssS'macroinstruction'
p3745
(dp3746
g3
g4
((lp3747
S'microinstruction'
p3748
atp3749
Rp3750
sg8
I00
sg9
g3745
ssS'governmentalizes'
p3751
(dp3752
g3
g4
((lp3753
S'governmentalized'
p3754
atp3755
Rp3756
sg8
I00
sg9
g3751
ssS'unprofitableness'
p3757
(dp3758
g3
g4
((lp3759
tp3760
Rp3761
sg8
I00
sg9
g3757
ssg3754
(dp3762
g3
g4
((lp3763
g3751
atp3764
Rp3765
sg8
I00
sg9
g3754
ssS'cartographically'
p3766
(dp3767
g3
g4
((lp3768
tp3769
Rp3770
sg8
I00
sg9
g3766
ssS'hygroscopicities'
p3771
(dp3772
g3
g4
((lp3773
tp3774
Rp3775
sg8
I00
sg9
g3771
ssS'intractabilities'
p3776
(dp3777
g3
g4
((lp3778
tp3779
Rp3780
sg8
I00
sg9
g3776
ssS'oversubscription'
p3781
(dp3782
g3
g4
((lp3783
tp3784
Rp3785
sg8
I00
sg9
g3781
ssS'phosphorescences'
p3786
(dp3787
g3
g4
((lp3788
tp3789
Rp3790
sg8
I00
sg9
g3786
ssS'stretchabilities'
p3791
(dp3792
g3
g4
((lp3793
tp3794
Rp3795
sg8
I00
sg9
g3791
ssS'relentlessnesses'
p3796
(dp3797
g3
g4
((lp3798
tp3799
Rp3800
sg8
I00
sg9
g3796
ssS'electrohydraulic'
p3801
(dp3802
g3
g4
((lp3803
tp3804
Rp3805
sg8
I00
sg9
g3801
ssS'oleaginousnesses'
p3806
(dp3807
g3
g4
((lp3808
tp3809
Rp3810
sg8
I00
sg9
g3806
ssS'assimilabilities'
p3811
(dp3812
g3
g4
((lp3813
tp3814
Rp3815
sg8
I00
sg9
g3811
ssS'electropherogram'
p3816
(dp3817
g3
g4
((lp3818
tp3819
Rp3820
sg8
I00
sg9
g3816
ssS'weatherproofness'
p3821
(dp3822
g3
g4
((lp3823
tp3824
Rp3825
sg8
I00
sg9
g3821
ssS'permissivenesses'
p3826
(dp3827
g3
g4
((lp3828
tp3829
Rp3830
sg8
I00
sg9
g3826
ssS'synchronizations'
p3831
(dp3832
g3
g4
((lp3833
S'synchronisations'
p3834
atp3835
Rp3836
sg8
I00
sg9
g3831
ssS'aeroelasticities'
p3837
(dp3838
g3
g4
((lp3839
tp3840
Rp3841
sg8
I00
sg9
g3837
ssS'photographically'
p3842
(dp3843
g3
g4
((lp3844
S'phonographically'
p3845
atp3846
Rp3847
sg8
I00
sg9
g3842
ssg1637
(dp3848
g3
g4
((lp3849
g1634
atp3850
Rp3851
sg8
I00
sg9
g1637
ssS'historicalnesses'
p3852
(dp3853
g3
g4
((lp3854
tp3855
Rp3856
sg8
I00
sg9
g3852
ssS'miraculousnesses'
p3857
(dp3858
g3
g4
((lp3859
tp3860
Rp3861
sg8
I00
sg9
g3857
ssS'requalifications'
p3862
(dp3863
g3
g4
((lp3864
tp3865
Rp3866
sg8
I00
sg9
g3862
ssS'administratively'
p3867
(dp3868
g3
g4
((lp3869
tp3870
Rp3871
sg8
I00
sg9
g3867
ssS'accommodationist'
p3872
(dp3873
g3
g4
((lp3874
tp3875
Rp3876
sg8
I00
sg9
g3872
ssS'intramolecularly'
p3877
(dp3878
g3
g4
((lp3879
tp3880
Rp3881
sg8
I00
sg9
g3877
ssS'overconstructing'
p3882
(dp3883
g3
g4
((lp3884
tp3885
Rp3886
sg8
I00
sg9
g3882
ssS'nonconfrontation'
p3887
(dp3888
g3
g4
((lp3889
tp3890
Rp3891
sg8
I00
sg9
g3887
ssS'malcontentedness'
p3892
(dp3893
g3
g4
((lp3894
tp3895
Rp3896
sg8
I00
sg9
g3892
ssS'unapologetically'
p3897
(dp3898
g3
g4
((lp3899
tp3900
Rp3901
sg8
I00
sg9
g3897
ssS'psychobiologists'
p3902
(dp3903
g3
g4
((lp3904
tp3905
Rp3906
sg8
I00
sg9
g3902
ssS'underutilization'
p3907
(dp3908
g3
g4
((lp3909
tp3910
Rp3911
sg8
I00
sg9
g3907
ssS'orthopsychiatric'
p3912
(dp3913
g3
g4
((lp3914
tp3915
Rp3916
sg8
I00
sg9
g3912
ssS'phosphoglycerate'
p3917
(dp3918
g3
g4
((lp3919
tp3920
Rp3921
sg8
I00
sg9
g3917
ssS'criminologically'
p3922
(dp3923
g3
g4
((lp3924
tp3925
Rp3926
sg8
I00
sg9
g3922
ssS'ultramicroscopes'
p3927
(dp3928
g3
g4
((lp3929
tp3930
Rp3931
sg8
I00
sg9
g3927
ssS'objectifications'
p3932
(dp3933
g3
g4
((lp3934
tp3935
Rp3936
sg8
I00
sg9
g3932
ssS'speechlessnesses'
p3937
(dp3938
g3
g4
((lp3939
tp3940
Rp3941
sg8
I00
sg9
g3937
ssS'insubstantiality'
p3942
(dp3943
g3
g4
((lp3944
S'unsubstantiality'
p3945
atp3946
Rp3947
sg8
I00
sg9
g3942
ssS'dehydrogenations'
p3948
(dp3949
g3
g4
((lp3950
tp3951
Rp3952
sg8
I00
sg9
g3948
ssS'despiritualizing'
p3953
(dp3954
g3
g4
((lp3955
S'respiritualizing'
p3956
atp3957
Rp3958
sg8
I00
sg9
g3953
ssS'colorblindnesses'
p3959
(dp3960
g3
g4
((lp3961
tp3962
Rp3963
sg8
I00
sg9
g3959
ssS'geomorphological'
p3964
(dp3965
g3
g4
((lp3966
tp3967
Rp3968
sg8
I00
sg9
g3964
ssS'deglamorizations'
p3969
(dp3970
g3
g4
((lp3971
tp3972
Rp3973
sg8
I00
sg9
g3969
ssS'inharmoniousness'
p3974
(dp3975
g3
g4
((lp3976
tp3977
Rp3978
sg8
I00
sg9
g3974
ssS'bioluminescences'
p3979
(dp3980
g3
g4
((lp3981
tp3982
Rp3983
sg8
I00
sg9
g3979
ssS'characterization'
p3984
(dp3985
g3
g4
((lp3986
tp3987
Rp3988
sg8
I00
sg9
g3984
ssS'photocomposition'
p3989
(dp3990
g3
g4
((lp3991
tp3992
Rp3993
sg8
I00
sg9
g3989
ssS'parapsychologist'
p3994
(dp3995
g3
g4
((lp3996
tp3997
Rp3998
sg8
I00
sg9
g3994
ssS'curmudgeonliness'
p3999
(dp4000
g3
g4
((lp4001
tp4002
Rp4003
sg8
I00
sg9
g3999
ssS'interconversions'
p4004
(dp4005
g3
g4
((lp4006
tp4007
Rp4008
sg8
I00
sg9
g4004
ssS'interconvertible'
p4009
(dp4010
g3
g4
((lp4011
tp4012
Rp4013
sg8
I00
sg9
g4009
ssS'familiarizations'
p4014
(dp4015
g3
g4
((lp4016
tp4017
Rp4018
sg8
I00
sg9
g4014
ssS'indiscrimination'
p4019
(dp4020
g3
g4
((lp4021
tp4022
Rp4023
sg8
I00
sg9
g4019
ssS'detribalizations'
p4024
(dp4025
g3
g4
((lp4026
tp4027
Rp4028
sg8
I00
sg9
g4024
ssS'photogrammetrist'
p4029
(dp4030
g3
g4
((lp4031
tp4032
Rp4033
sg8
I00
sg9
g4029
ssS'depolymerization'
p4034
(dp4035
g3
g4
((lp4036
tp4037
Rp4038
sg8
I00
sg9
g4034
ssS'stenographically'
p4039
(dp4040
g3
g4
((lp4041
tp4042
Rp4043
sg8
I00
sg9
g4039
ssS'accidentalnesses'
p4044
(dp4045
g3
g4
((lp4046
tp4047
Rp4048
sg8
I00
sg9
g4044
ssS'indiscreetnesses'
p4049
(dp4050
g3
g4
((lp4051
tp4052
Rp4053
sg8
I00
sg9
g4049
ssS'dimensionalities'
p4054
(dp4055
g3
g4
((lp4056
tp4057
Rp4058
sg8
I00
sg9
g4054
ssS'photopolarimeter'
p4059
(dp4060
g3
g4
((lp4061
tp4062
Rp4063
sg8
I00
sg9
g4059
ssS'phonocardiograph'
p4064
(dp4065
g3
g4
((lp4066
tp4067
Rp4068
sg8
I00
sg9
g4064
ssS'montmorillonites'
p4069
(dp4070
g3
g4
((lp4071
tp4072
Rp4073
sg8
I00
sg9
g4069
ssS'intellectualisms'
p4074
(dp4075
g3
g4
((lp4076
S'intellectualists'
p4077
atp4078
Rp4079
sg8
I00
sg9
g4074
ssg335
(dp4080
g3
g4
((lp4081
g332
atp4082
Rp4083
sg8
I00
sg9
g335
ssS'propertylessness'
p4084
(dp4085
g3
g4
((lp4086
tp4087
Rp4088
sg8
I00
sg9
g4084
ssS'irresponsiveness'
p4089
(dp4090
g3
g4
((lp4091
tp4092
Rp4093
sg8
I00
sg9
g4089
ssS'intercorrelation'
p4094
(dp4095
g3
g4
((lp4096
tp4097
Rp4098
sg8
I00
sg9
g4094
ssS'supernaturalisms'
p4099
(dp4100
g3
g4
((lp4101
S'supernaturalists'
p4102
atp4103
Rp4104
sg8
I00
sg9
g4099
ssS'accustomednesses'
p4105
(dp4106
g3
g4
((lp4107
tp4108
Rp4109
sg8
I00
sg9
g4105
ssS'noncommunicative'
p4110
(dp4111
g3
g4
((lp4112
tp4113
Rp4114
sg8
I00
sg9
g4110
ssS'appreciativeness'
p4115
(dp4116
g3
g4
((lp4117
tp4118
Rp4119
sg8
I00
sg9
g4115
ssS'psychophysically'
p4120
(dp4121
g3
g4
((lp4122
tp4123
Rp4124
sg8
I00
sg9
g4120
ssS'objectlessnesses'
p4125
(dp4126
g3
g4
((lp4127
tp4128
Rp4129
sg8
I00
sg9
g4125
ssS'reconcentrations'
p4130
(dp4131
g3
g4
((lp4132
S'deconcentrations'
p4133
atp4134
Rp4135
sg8
I00
sg9
g4130
ssS'disreputableness'
p4136
(dp4137
g3
g4
((lp4138
tp4139
Rp4140
sg8
I00
sg9
g4136
ssS'quadruplications'
p4141
(dp4142
g3
g4
((lp4143
tp4144
Rp4145
sg8
I00
sg9
g4141
ssS'transplantations'
p4146
(dp4147
g3
g4
((lp4148
tp4149
Rp4150
sg8
I00
sg9
g4146
ssS'superheterodynes'
p4151
(dp4152
g3
g4
((lp4153
tp4154
Rp4155
sg8
I00
sg9
g4151
ssS'radiotelemetries'
p4156
(dp4157
g3
g4
((lp4158
tp4159
Rp4160
sg8
I00
sg9
g4156
ssS'intracutaneously'
p4161
(dp4162
g3
g4
((lp4163
tp4164
Rp4165
sg8
I00
sg9
g4161
ssS'ultrasonographer'
p4166
(dp4167
g3
g4
((lp4168
tp4169
Rp4170
sg8
I00
sg9
g4166
ssS'associationistic'
p4171
(dp4172
g3
g4
((lp4173
tp4174
Rp4175
sg8
I00
sg9
g4171
ssS'rectifiabilities'
p4176
(dp4177
g3
g4
((lp4178
tp4179
Rp4180
sg8
I00
sg9
g4176
ssS'personalizations'
p4181
(dp4182
g3
g4
((lp4183
tp4184
Rp4185
sg8
I00
sg9
g4181
ssS'hexachlorophenes'
p4186
(dp4187
g3
g4
((lp4188
tp4189
Rp4190
sg8
I00
sg9
g4186
ssS'intervocalically'
p4191
(dp4192
g3
g4
((lp4193
tp4194
Rp4195
sg8
I00
sg9
g4191
ssS'freehandednesses'
p4196
(dp4197
g3
g4
((lp4198
tp4199
Rp4200
sg8
I00
sg9
g4196
ssS'transnationalism'
p4201
(dp4202
g3
g4
((lp4203
tp4204
Rp4205
sg8
I00
sg9
g4201
ssS'electromyography'
p4206
(dp4207
g3
g4
((lp4208
S'electromyographs'
p4209
atp4210
Rp4211
sg8
I00
sg9
g4206
ssS'inadequatenesses'
p4212
(dp4213
g3
g4
((lp4214
tp4215
Rp4216
sg8
I00
sg9
g4212
ssS'intraventricular'
p4217
(dp4218
g3
g4
((lp4219
tp4220
Rp4221
sg8
I00
sg9
g4217
ssS'chromatographing'
p4222
(dp4223
g3
g4
((lp4224
tp4225
Rp4226
sg8
I00
sg9
g4222
ssg4209
(dp4227
g3
g4
((lp4228
g4206
atp4229
Rp4230
sg8
I00
sg9
g4209
ssS'distensibilities'
p4231
(dp4232
g3
g4
((lp4233
tp4234
Rp4235
sg8
I00
sg9
g4231
ssS'overprescription'
p4236
(dp4237
g3
g4
((lp4238
tp4239
Rp4240
sg8
I00
sg9
g4236
ssS'paramagnetically'
p4241
(dp4242
g3
g4
((lp4243
tp4244
Rp4245
sg8
I00
sg9
g4241
ssS'nonmanufacturing'
p4246
(dp4247
g3
g4
((lp4248
tp4249
Rp4250
sg8
I00
sg9
g4246
ssS'tumorigenicities'
p4251
(dp4252
g3
g4
((lp4253
tp4254
Rp4255
sg8
I00
sg9
g4251
ssS'civilianizations'
p4256
(dp4257
g3
g4
((lp4258
tp4259
Rp4260
sg8
I00
sg9
g4256
ssS'demineralization'
p4261
(dp4262
g3
g4
((lp4263
tp4264
Rp4265
sg8
I00
sg9
g4261
ssS'antipathetically'
p4266
(dp4267
g3
g4
((lp4268
tp4269
Rp4270
sg8
I00
sg9
g4266
ssS'meteorologically'
p4271
(dp4272
g3
g4
((lp4273
tp4274
Rp4275
sg8
I00
sg9
g4271
ssS'nucleophilically'
p4276
(dp4277
g3
g4
((lp4278
tp4279
Rp4280
sg8
I00
sg9
g4276
ssS'iconographically'
p4281
(dp4282
g3
g4
((lp4283
tp4284
Rp4285
sg8
I00
sg9
g4281
ssS'saccharification'
p4286
(dp4287
g3
g4
((lp4288
tp4289
Rp4290
sg8
I00
sg9
g4286
ssS'psychohistorians'
p4291
(dp4292
g3
g4
((lp4293
tp4294
Rp4295
sg8
I00
sg9
g4291
ssS'radiographically'
p4296
(dp4297
g3
g4
((lp4298
tp4299
Rp4300
sg8
I00
sg9
g4296
ssS'semiquantitative'
p4301
(dp4302
g3
g4
((lp4303
tp4304
Rp4305
sg8
I00
sg9
g4301
ssS'neuropathologist'
p4306
(dp4307
g3
g4
((lp4308
tp4309
Rp4310
sg8
I00
sg9
g4306
ssS'triphenylmethane'
p4311
(dp4312
g3
g4
((lp4313
tp4314
Rp4315
sg8
I00
sg9
g4311
ssS'infantilizations'
p4316
(dp4317
g3
g4
((lp4318
tp4319
Rp4320
sg8
I00
sg9
g4316
ssS'biodeterioration'
p4321
(dp4322
g3
g4
((lp4323
tp4324
Rp4325
sg8
I00
sg9
g4321
ssS'overcommunicates'
p4326
(dp4327
g3
g4
((lp4328
S'overcommunicated'
p4329
atp4330
Rp4331
sg8
I00
sg9
g4326
ssS'technostructures'
p4332
(dp4333
g3
g4
((lp4334
tp4335
Rp4336
sg8
I00
sg9
g4332
ssS'phonogrammically'
p4337
(dp4338
g3
g4
((lp4339
tp4340
Rp4341
sg8
I00
sg9
g4337
ssS'retrievabilities'
p4342
(dp4343
g3
g4
((lp4344
tp4345
Rp4346
sg8
I00
sg9
g4342
ssS'counterproposals'
p4347
(dp4348
g3
g4
((lp4349
tp4350
Rp4351
sg8
I00
sg9
g4347
ssS'hieroglyphically'
p4352
(dp4353
g3
g4
((lp4354
tp4355
Rp4356
sg8
I00
sg9
g4352
ssg4329
(dp4357
g3
g4
((lp4358
g4326
atp4359
Rp4360
sg8
I00
sg9
g4329
ssS'insurrectionists'
p4361
(dp4362
g3
g4
((lp4363
tp4364
Rp4365
sg8
I00
sg9
g4361
ssS'disproportionate'
p4366
(dp4367
g3
g4
((lp4368
tp4369
Rp4370
sg8
I00
sg9
g4366
ssg2576
(dp4371
g3
g4
((lp4372
g2573
atp4373
Rp4374
sg8
I00
sg9
g2576
ssS'susceptivenesses'
p4375
(dp4376
g3
g4
((lp4377
tp4378
Rp4379
sg8
I00
sg9
g4375
ssg3748
(dp4380
g3
g4
((lp4381
g3745
atp4382
Rp4383
sg8
I00
sg9
g3748
ssS'irretrievability'
p4384
(dp4385
g3
g4
((lp4386
tp4387
Rp4388
sg8
I00
sg9
g4384
ssS'circumambulating'
p4389
(dp4390
g3
g4
((lp4391
tp4392
Rp4393
sg8
I00
sg9
g4389
ssS'superficialities'
p4394
(dp4395
g3
g4
((lp4396
tp4397
Rp4398
sg8
I00
sg9
g4394
ssS'materializations'
p4399
(dp4400
g3
g4
((lp4401
tp4402
Rp4403
sg8
I00
sg9
g4399
ssS'systematicnesses'
p4404
(dp4405
g3
g4
((lp4406
tp4407
Rp4408
sg8
I00
sg9
g4404
ssS'ophthalmoscopies'
p4409
(dp4410
g3
g4
((lp4411
tp4412
Rp4413
sg8
I00
sg9
g4409
ssS'unrepresentative'
p4414
(dp4415
g3
g4
((lp4416
tp4417
Rp4418
sg8
I00
sg9
g4414
ssS'parliamentarians'
p4419
(dp4420
g3
g4
((lp4421
tp4422
Rp4423
sg8
I00
sg9
g4419
ssS'echocardiography'
p4424
(dp4425
g3
g4
((lp4426
tp4427
Rp4428
sg8
I00
sg9
g4424
ssS'salubriousnesses'
p4429
(dp4430
g3
g4
((lp4431
tp4432
Rp4433
sg8
I00
sg9
g4429
ssS'indemnifications'
p4434
(dp4435
g3
g4
((lp4436
tp4437
Rp4438
sg8
I00
sg9
g4434
ssS'malapportionment'
p4439
(dp4440
g3
g4
((lp4441
tp4442
Rp4443
sg8
I00
sg9
g4439
ssS'counterculturist'
p4444
(dp4445
g3
g4
((lp4446
tp4447
Rp4448
sg8
I00
sg9
g4444
ssS'medulloblastomas'
p4449
(dp4450
g3
g4
((lp4451
tp4452
Rp4453
sg8
I00
sg9
g4449
ssS'undifferentiated'
p4454
(dp4455
g3
g4
((lp4456
tp4457
Rp4458
sg8
I00
sg9
g4454
ssS'satisfactoriness'
p4459
(dp4460
g3
g4
((lp4461
tp4462
Rp4463
sg8
I00
sg9
g4459
ssS'misapprehensions'
p4464
(dp4465
g3
g4
((lp4466
tp4467
Rp4468
sg8
I00
sg9
g4464
ssS'southwesternmost'
p4469
(dp4470
g3
g4
((lp4471
tp4472
Rp4473
sg8
I00
sg9
g4469
ssg2130
(dp4474
g3
g4
((lp4475
g2127
atp4476
Rp4477
sg8
I00
sg9
g2130
ssS'commonsensically'
p4478
(dp4479
g3
g4
((lp4480
tp4481
Rp4482
sg8
I00
sg9
g4478
ssS'countercampaigns'
p4483
(dp4484
g3
g4
((lp4485
tp4486
Rp4487
sg8
I00
sg9
g4483
ssS'pyrometallurgies'
p4488
(dp4489
g3
g4
((lp4490
tp4491
Rp4492
sg8
I00
sg9
g4488
ssS'inexorablenesses'
p4493
(dp4494
g3
g4
((lp4495
tp4496
Rp4497
sg8
I00
sg9
g4493
ssS'inadvisabilities'
p4498
(dp4499
g3
g4
((lp4500
tp4501
Rp4502
sg8
I00
sg9
g4498
ssS'transliterations'
p4503
(dp4504
g3
g4
((lp4505
tp4506
Rp4507
sg8
I00
sg9
g4503
ssS'counterintuitive'
p4508
(dp4509
g3
g4
((lp4510
tp4511
Rp4512
sg8
I00
sg9
g4508
ssS'reconfigurations'
p4513
(dp4514
g3
g4
((lp4515
tp4516
Rp4517
sg8
I00
sg9
g4513
ssS'asymptomatically'
p4518
(dp4519
g3
g4
((lp4520
tp4521
Rp4522
sg8
I00
sg9
g4518
ssg3845
(dp4523
g3
g4
((lp4524
g3842
atp4525
Rp4526
sg8
I00
sg9
g3845
ssS'preincorporation'
p4527
(dp4528
g3
g4
((lp4529
tp4530
Rp4531
sg8
I00
sg9
g4527
ssS'meddlesomenesses'
p4532
(dp4533
g3
g4
((lp4534
tp4535
Rp4536
sg8
I00
sg9
g4532
ssS'noncannibalistic'
p4537
(dp4538
g3
g4
((lp4539
tp4540
Rp4541
sg8
I00
sg9
g4537
ssS'vulnerablenesses'
p4542
(dp4543
g3
g4
((lp4544
tp4545
Rp4546
sg8
I00
sg9
g4542
ssS'nonentertainment'
p4547
(dp4548
g3
g4
((lp4549
tp4550
Rp4551
sg8
I00
sg9
g4547
ssS'purposefulnesses'
p4552
(dp4553
g3
g4
((lp4554
tp4555
Rp4556
sg8
I00
sg9
g4552
ssS'indefatigability'
p4557
(dp4558
g3
g4
((lp4559
tp4560
Rp4561
sg8
I00
sg9
g4557
ssS'evangelistically'
p4562
(dp4563
g3
g4
((lp4564
tp4565
Rp4566
sg8
I00
sg9
g4562
ssS'rectangularities'
p4567
(dp4568
g3
g4
((lp4569
tp4570
Rp4571
sg8
I00
sg9
g4567
ssS'paleobotanically'
p4572
(dp4573
g3
g4
((lp4574
tp4575
Rp4576
sg8
I00
sg9
g4572
ssS'expressionlessly'
p4577
(dp4578
g3
g4
((lp4579
tp4580
Rp4581
sg8
I00
sg9
g4577
ssS'personifications'
p4582
(dp4583
g3
g4
((lp4584
tp4585
Rp4586
sg8
I00
sg9
g4582
ssS'insignificancies'
p4587
(dp4588
g3
g4
((lp4589
tp4590
Rp4591
sg8
I00
sg9
g4587
ssS'counterinsurgent'
p4592
(dp4593
g3
g4
((lp4594
tp4595
Rp4596
sg8
I00
sg9
g4592
ssS'interdependently'
p4597
(dp4598
g3
g4
((lp4599
tp4600
Rp4601
sg8
I00
sg9
g4597
ssS'photoionizations'
p4602
(dp4603
g3
g4
((lp4604
tp4605
Rp4606
sg8
I00
sg9
g4602
ssS'cyclophosphamide'
p4607
(dp4608
g3
g4
((lp4609
tp4610
Rp4611
sg8
I00
sg9
g4607
ssg4102
(dp4612
g3
g4
((lp4613
g4099
atp4614
Rp4615
sg8
I00
sg9
g4102
ssS'excommunications'
p4616
(dp4617
g3
g4
((lp4618
tp4619
Rp4620
sg8
I00
sg9
g4616
ssS'immunodeficiency'
p4621
(dp4622
g3
g4
((lp4623
tp4624
Rp4625
sg8
I00
sg9
g4621
ssS'representatively'
p4626
(dp4627
g3
g4
((lp4628
tp4629
Rp4630
sg8
I00
sg9
g4626
ssS'professionalizes'
p4631
(dp4632
g3
g4
((lp4633
S'professionalized'
p4634
atp4635
Rp4636
sg8
I00
sg9
g4631
ssS'deacidifications'
p4637
(dp4638
g3
g4
((lp4639
tp4640
Rp4641
sg8
I00
sg9
g4637
ssS'cantankerousness'
p4642
(dp4643
g3
g4
((lp4644
tp4645
Rp4646
sg8
I00
sg9
g4642
ssS'surrealistically'
p4647
(dp4648
g3
g4
((lp4649
tp4650
Rp4651
sg8
I00
sg9
g4647
ssS'radioautographic'
p4652
(dp4653
g3
g4
((lp4654
tp4655
Rp4656
sg8
I00
sg9
g4652
ssS'resocializations'
p4657
(dp4658
g3
g4
((lp4659
tp4660
Rp4661
sg8
I00
sg9
g4657
ssS'discountenancing'
p4662
(dp4663
g3
g4
((lp4664
tp4665
Rp4666
sg8
I00
sg9
g4662
ssS'derivativenesses'
p4667
(dp4668
g3
g4
((lp4669
tp4670
Rp4671
sg8
I00
sg9
g4667
ssS'biodegradability'
p4672
(dp4673
g3
g4
((lp4674
tp4675
Rp4676
sg8
I00
sg9
g4672
ssS'ineluctabilities'
p4677
(dp4678
g3
g4
((lp4679
tp4680
Rp4681
sg8
I00
sg9
g4677
ssS'hydrometeorology'
p4682
(dp4683
g3
g4
((lp4684
tp4685
Rp4686
sg8
I00
sg9
g4682
ssS'thermolabilities'
p4687
(dp4688
g3
g4
((lp4689
tp4690
Rp4691
sg8
I00
sg9
g4687
ssS'conceivabilities'
p4692
(dp4693
g3
g4
((lp4694
tp4695
Rp4696
sg8
I00
sg9
g4692
ssS'sensationalizing'
p4697
(dp4698
g3
g4
((lp4699
S'sensationalising'
p4700
atp4701
Rp4702
sg8
I00
sg9
g4697
ssS'autointoxication'
p4703
(dp4704
g3
g4
((lp4705
tp4706
Rp4707
sg8
I00
sg9
g4703
ssS'crystallizations'
p4708
(dp4709
g3
g4
((lp4710
tp4711
Rp4712
sg8
I00
sg9
g4708
ssg1328
(dp4713
g3
g4
((lp4714
S'internationalist'
p4715
aS'internationalism'
p4716
ag1325
atp4717
Rp4718
sg8
I00
sg9
g1328
ssS'controversialism'
p4719
(dp4720
g3
g4
((lp4721
S'controversialist'
p4722
atp4723
Rp4724
sg8
I00
sg9
g4719
ssS'supercompetitive'
p4725
(dp4726
g3
g4
((lp4727
tp4728
Rp4729
sg8
I00
sg9
g4725
ssS'obsequiousnesses'
p4730
(dp4731
g3
g4
((lp4732
tp4733
Rp4734
sg8
I00
sg9
g4730
ssS'nondeductibility'
p4735
(dp4736
g3
g4
((lp4737
tp4738
Rp4739
sg8
I00
sg9
g4735
ssS'transportational'
p4740
(dp4741
g3
g4
((lp4742
tp4743
Rp4744
sg8
I00
sg9
g4740
ssS'insusceptibility'
p4745
(dp4746
g3
g4
((lp4747
tp4748
Rp4749
sg8
I00
sg9
g4745
ssS'phytogeographers'
p4750
(dp4751
g3
g4
((lp4752
tp4753
Rp4754
sg8
I00
sg9
g4750
ssS'semiprofessional'
p4755
(dp4756
g3
g4
((lp4757
tp4758
Rp4759
sg8
I00
sg9
g4755
ssS'procrastinations'
p4760
(dp4761
g3
g4
((lp4762
tp4763
Rp4764
sg8
I00
sg9
g4760
ssS'overconservative'
p4765
(dp4766
g3
g4
((lp4767
tp4768
Rp4769
sg8
I00
sg9
g4765
ssS'supernaturalness'
p4770
(dp4771
g3
g4
((lp4772
tp4773
Rp4774
sg8
I00
sg9
g4770
ssS'thermoplasticity'
p4775
(dp4776
g3
g4
((lp4777
tp4778
Rp4779
sg8
I00
sg9
g4775
ssS'incomprehensibly'
p4780
(dp4781
g3
g4
((lp4782
S'incomprehensible'
p4783
atp4784
Rp4785
sg8
I00
sg9
g4780
ssS'intercontinental'
p4786
(dp4787
g3
g4
((lp4788
tp4789
Rp4790
sg8
I00
sg9
g4786
ssS'sedimentological'
p4791
(dp4792
g3
g4
((lp4793
tp4794
Rp4795
sg8
I00
sg9
g4791
ssS'confirmabilities'
p4796
(dp4797
g3
g4
((lp4798
tp4799
Rp4800
sg8
I00
sg9
g4796
ssg4783
(dp4801
g3
g4
((lp4802
g4780
atp4803
Rp4804
sg8
I00
sg9
g4783
ssS'pictorialization'
p4805
(dp4806
g3
g4
((lp4807
tp4808
Rp4809
sg8
I00
sg9
g4805
ssS'operationalistic'
p4810
(dp4811
g3
g4
((lp4812
tp4813
Rp4814
sg8
I00
sg9
g4810
ssS'pharmaceutically'
p4815
(dp4816
g3
g4
((lp4817
tp4818
Rp4819
sg8
I00
sg9
g4815
ssS'cyanocobalamines'
p4820
(dp4821
g3
g4
((lp4822
tp4823
Rp4824
sg8
I00
sg9
g4820
ssS'soporiferousness'
p4825
(dp4826
g3
g4
((lp4827
tp4828
Rp4829
sg8
I00
sg9
g4825
ssS'hypersalivations'
p4830
(dp4831
g3
g4
((lp4832
tp4833
Rp4834
sg8
I00
sg9
g4830
ssS'apprehensiveness'
p4835
(dp4836
g3
g4
((lp4837
tp4838
Rp4839
sg8
I00
sg9
g4835
ssS'mischaracterized'
p4840
(dp4841
g3
g4
((lp4842
S'mischaracterizes'
p4843
atp4844
Rp4845
sg8
I00
sg9
g4840
ssS'nutritiousnesses'
p4846
(dp4847
g3
g4
((lp4848
tp4849
Rp4850
sg8
I00
sg9
g4846
ssS'inconvertibility'
p4851
(dp4852
g3
g4
((lp4853
tp4854
Rp4855
sg8
I00
sg9
g4851
ssS'dedifferentiated'
p4856
(dp4857
g3
g4
((lp4858
S'dedifferentiates'
p4859
atp4860
Rp4861
sg8
I00
sg9
g4856
ssS'countermovements'
p4862
(dp4863
g3
g4
((lp4864
tp4865
Rp4866
sg8
I00
sg9
g4862
ssS'sphygmomanometer'
p4867
(dp4868
g3
g4
((lp4869
tp4870
Rp4871
sg8
I00
sg9
g4867
ssg2272
(dp4872
g3
g4
((lp4873
g2269
atp4874
Rp4875
sg8
I00
sg9
g2272
ssS'impracticalities'
p4876
(dp4877
g3
g4
((lp4878
tp4879
Rp4880
sg8
I00
sg9
g4876
ssg4843
(dp4881
g3
g4
((lp4882
g4840
atp4883
Rp4884
sg8
I00
sg9
g4843
ssS'inexhaustibility'
p4885
(dp4886
g3
g4
((lp4887
tp4888
Rp4889
sg8
I00
sg9
g4885
ssS'overcapitalizing'
p4890
(dp4891
g3
g4
((lp4892
tp4893
Rp4894
sg8
I00
sg9
g4890
ssg4859
(dp4895
g3
g4
((lp4896
g4856
atp4897
Rp4898
sg8
I00
sg9
g4859
ssS'farsightednesses'
p4899
(dp4900
g3
g4
((lp4901
tp4902
Rp4903
sg8
I00
sg9
g4899
ssS'circumambulation'
p4904
(dp4905
g3
g4
((lp4906
tp4907
Rp4908
sg8
I00
sg9
g4904
ssS'ethnomethodology'
p4909
(dp4910
g3
g4
((lp4911
tp4912
Rp4913
sg8
I00
sg9
g4909
ssS'chivalrousnesses'
p4914
(dp4915
g3
g4
((lp4916
tp4917
Rp4918
sg8
I00
sg9
g4914
ssS'unskillfulnesses'
p4919
(dp4920
g3
g4
((lp4921
tp4922
Rp4923
sg8
I00
sg9
g4919
ssS'ungratefulnesses'
p4924
(dp4925
g3
g4
((lp4926
tp4927
Rp4928
sg8
I00
sg9
g4924
ssS'uncommercialized'
p4929
(dp4930
g3
g4
((lp4931
tp4932
Rp4933
sg8
I00
sg9
g4929
ssS'superciliousness'
p4934
(dp4935
g3
g4
((lp4936
tp4937
Rp4938
sg8
I00
sg9
g4934
ssS'heterochromatins'
p4939
(dp4940
g3
g4
((lp4941
tp4942
Rp4943
sg8
I00
sg9
g4939
ssS'remorsefulnesses'
p4944
(dp4945
g3
g4
((lp4946
tp4947
Rp4948
sg8
I00
sg9
g4944
ssS'victoriousnesses'
p4949
(dp4950
g3
g4
((lp4951
tp4952
Rp4953
sg8
I00
sg9
g4949
ssS'precertification'
p4954
(dp4955
g3
g4
((lp4956
tp4957
Rp4958
sg8
I00
sg9
g4954
ssS'suboptimizations'
p4959
(dp4960
g3
g4
((lp4961
tp4962
Rp4963
sg8
I00
sg9
g4959
ssS'determinableness'
p4964
(dp4965
g3
g4
((lp4966
tp4967
Rp4968
sg8
I00
sg9
g4964
ssS'majoritarianisms'
p4969
(dp4970
g3
g4
((lp4971
tp4972
Rp4973
sg8
I00
sg9
g4969
ssS'factitiousnesses'
p4974
(dp4975
g3
g4
((lp4976
S'fictitiousnesses'
p4977
atp4978
Rp4979
sg8
I00
sg9
g4974
ssS'disfranchisement'
p4980
(dp4981
g3
g4
((lp4982
tp4983
Rp4984
sg8
I00
sg9
g4980
ssS'historiographers'
p4985
(dp4986
g3
g4
((lp4987
tp4988
Rp4989
sg8
I00
sg9
g4985
ssS'synchrocyclotron'
p4990
(dp4991
g3
g4
((lp4992
tp4993
Rp4994
sg8
I00
sg9
g4990
ssS'subconsciousness'
p4995
(dp4996
g3
g4
((lp4997
tp4998
Rp4999
sg8
I00
sg9
g4995
ssS'agriculturalists'
p5000
(dp5001
g3
g4
((lp5002
tp5003
Rp5004
sg8
I00
sg9
g5000
ssS'nonexploitations'
p5005
(dp5006
g3
g4
((lp5007
tp5008
Rp5009
sg8
I00
sg9
g5005
ssS'capitalistically'
p5010
(dp5011
g3
g4
((lp5012
tp5013
Rp5014
sg8
I00
sg9
g5010
ssS'organizationally'
p5015
(dp5016
g3
g4
((lp5017
tp5018
Rp5019
sg8
I00
sg9
g5015
ssS'epigrammatically'
p5020
(dp5021
g3
g4
((lp5022
tp5023
Rp5024
sg8
I00
sg9
g5020
ssS'antiuniversities'
p5025
(dp5026
g3
g4
((lp5027
tp5028
Rp5029
sg8
I00
sg9
g5025
ssS'stupendousnesses'
p5030
(dp5031
g3
g4
((lp5032
tp5033
Rp5034
sg8
I00
sg9
g5030
ssS'photoduplication'
p5035
(dp5036
g3
g4
((lp5037
tp5038
Rp5039
sg8
I00
sg9
g5035
ssS'electrifications'
p5040
(dp5041
g3
g4
((lp5042
tp5043
Rp5044
sg8
I00
sg9
g5040
ssS'presuppositional'
p5045
(dp5046
g3
g4
((lp5047
tp5048
Rp5049
sg8
I00
sg9
g5045
ssS'thrombocytopenic'
p5050
(dp5051
g3
g4
((lp5052
S'thrombocytopenia'
p5053
atp5054
Rp5055
sg8
I00
sg9
g5050
ssS'disconsolateness'
p5056
(dp5057
g3
g4
((lp5058
tp5059
Rp5060
sg8
I00
sg9
g5056
ssS'leukodystrophies'
p5061
(dp5062
g3
g4
((lp5063
tp5064
Rp5065
sg8
I00
sg9
g5061
ssS'marginalizations'
p5066
(dp5067
g3
g4
((lp5068
tp5069
Rp5070
sg8
I00
sg9
g5066
ssS'transportability'
p5071
(dp5072
g3
g4
((lp5073
tp5074
Rp5075
sg8
I00
sg9
g5071
ssS'overcompensation'
p5076
(dp5077
g3
g4
((lp5078
tp5079
Rp5080
sg8
I00
sg9
g5076
ssS'ophthalmologists'
p5081
(dp5082
g3
g4
((lp5083
tp5084
Rp5085
sg8
I00
sg9
g5081
ssS'untouchabilities'
p5086
(dp5087
g3
g4
((lp5088
tp5089
Rp5090
sg8
I00
sg9
g5086
ssS'sesquicentennial'
p5091
(dp5092
g3
g4
((lp5093
tp5094
Rp5095
sg8
I00
sg9
g5091
ssS'ingloriousnesses'
p5096
(dp5097
g3
g4
((lp5098
tp5099
Rp5100
sg8
I00
sg9
g5096
ssS'circuitousnesses'
p5101
(dp5102
g3
g4
((lp5103
tp5104
Rp5105
sg8
I00
sg9
g5101
ssS'unaffectionately'
p5106
(dp5107
g3
g4
((lp5108
tp5109
Rp5110
sg8
I00
sg9
g5106
ssS'otolaryngologies'
p5111
(dp5112
g3
g4
((lp5113
tp5114
Rp5115
sg8
I00
sg9
g5111
ssS'superbillionaire'
p5116
(dp5117
g3
g4
((lp5118
S'supermillionaire'
p5119
atp5120
Rp5121
sg8
I00
sg9
g5116
ssg342
(dp5122
g3
g4
((lp5123
g338
atp5124
Rp5125
sg8
I00
sg9
g342
ssS'conveyorizations'
p5126
(dp5127
g3
g4
((lp5128
tp5129
Rp5130
sg8
I00
sg9
g5126
ssS'transplacentally'
p5131
(dp5132
g3
g4
((lp5133
tp5134
Rp5135
sg8
I00
sg9
g5131
ssS'micromanipulator'
p5136
(dp5137
g3
g4
((lp5138
tp5139
Rp5140
sg8
I00
sg9
g5136
ssS'countercomplaint'
p5141
(dp5142
g3
g4
((lp5143
tp5144
Rp5145
sg8
I00
sg9
g5141
ssS'encephalopathies'
p5146
(dp5147
g3
g4
((lp5148
tp5149
Rp5150
sg8
I00
sg9
g5146
ssS'papillomaviruses'
p5151
(dp5152
g3
g4
((lp5153
tp5154
Rp5155
sg8
I00
sg9
g5151
ssS'benevolentnesses'
p5156
(dp5157
g3
g4
((lp5158
tp5159
Rp5160
sg8
I00
sg9
g5156
ssS'conclusivenesses'
p5161
(dp5162
g3
g4
((lp5163
tp5164
Rp5165
sg8
I00
sg9
g5161
ssS'upgradeabilities'
p5166
(dp5167
g3
g4
((lp5168
tp5169
Rp5170
sg8
I00
sg9
g5166
ssS'monocotyledonous'
p5171
(dp5172
g3
g4
((lp5173
tp5174
Rp5175
sg8
I00
sg9
g5171
ssS'chauvinistically'
p5176
(dp5177
g3
g4
((lp5178
tp5179
Rp5180
sg8
I00
sg9
g5176
ssS'impressivenesses'
p5181
(dp5182
g3
g4
((lp5183
tp5184
Rp5185
sg8
I00
sg9
g5181
ssS'prestidigitators'
p5186
(dp5187
g3
g4
((lp5188
tp5189
Rp5190
sg8
I00
sg9
g5186
ssS'circularizations'
p5191
(dp5192
g3
g4
((lp5193
tp5194
Rp5195
sg8
I00
sg9
g5191
ssS'nonpsychological'
p5196
(dp5197
g3
g4
((lp5198
tp5199
Rp5200
sg8
I00
sg9
g5196
ssS'acclimatizations'
p5201
(dp5202
g3
g4
((lp5203
tp5204
Rp5205
sg8
I00
sg9
g5201
ssS'methodicalnesses'
p5206
(dp5207
g3
g4
((lp5208
tp5209
Rp5210
sg8
I00
sg9
g5206
ssS'nonchronological'
p5211
(dp5212
g3
g4
((lp5213
tp5214
Rp5215
sg8
I00
sg9
g5211
ssS'remunerativeness'
p5216
(dp5217
g3
g4
((lp5218
tp5219
Rp5220
sg8
I00
sg9
g5216
ssS'intercrystalline'
p5221
(dp5222
g3
g4
((lp5223
tp5224
Rp5225
sg8
I00
sg9
g5221
ssS'phantasmagorical'
p5226
(dp5227
g3
g4
((lp5228
tp5229
Rp5230
sg8
I00
sg9
g5226
ssS'pancreatectomies'
p5231
(dp5232
g3
g4
((lp5233
tp5234
Rp5235
sg8
I00
sg9
g5231
ssS'superheavyweight'
p5236
(dp5237
g3
g4
((lp5238
tp5239
Rp5240
sg8
I00
sg9
g5236
ssS'bottomlessnesses'
p5241
(dp5242
g3
g4
((lp5243
tp5244
Rp5245
sg8
I00
sg9
g5241
ssS'polyphyletically'
p5246
(dp5247
g3
g4
((lp5248
tp5249
Rp5250
sg8
I00
sg9
g5246
ssS'highhandednesses'
p5251
(dp5252
g3
g4
((lp5253
tp5254
Rp5255
sg8
I00
sg9
g5251
ssS'compulsivenesses'
p5256
(dp5257
g3
g4
((lp5258
tp5259
Rp5260
sg8
I00
sg9
g5256
ssg2266
(dp5261
g3
g4
((lp5262
g2263
atp5263
Rp5264
sg8
I00
sg9
g2266
ssS'antiprofiteering'
p5265
(dp5266
g3
g4
((lp5267
tp5268
Rp5269
sg8
I00
sg9
g5265
ssS'convulsivenesses'
p5270
(dp5271
g3
g4
((lp5272
tp5273
Rp5274
sg8
I00
sg9
g5270
ssS'undenominational'
p5275
(dp5276
g3
g4
((lp5277
tp5278
Rp5279
sg8
I00
sg9
g5275
ssS'exceptionalities'
p5280
(dp5281
g3
g4
((lp5282
tp5283
Rp5284
sg8
I00
sg9
g5280
ssS'anticonservation'
p5285
(dp5286
g3
g4
((lp5287
tp5288
Rp5289
sg8
I00
sg9
g5285
ssS'stroboscopically'
p5290
(dp5291
g3
g4
((lp5292
tp5293
Rp5294
sg8
I00
sg9
g5290
ssS'licentiousnesses'
p5295
(dp5296
g3
g4
((lp5297
tp5298
Rp5299
sg8
I00
sg9
g5295
ssS'hypocoristically'
p5300
(dp5301
g3
g4
((lp5302
tp5303
Rp5304
sg8
I00
sg9
g5300
ssS'spiritualization'
p5305
(dp5306
g3
g4
((lp5307
tp5308
Rp5309
sg8
I00
sg9
g5305
ssS'internationality'
p5310
(dp5311
g3
g4
((lp5312
tp5313
Rp5314
sg8
I00
sg9
g5310
ssS'biocompatibility'
p5315
(dp5316
g3
g4
((lp5317
tp5318
Rp5319
sg8
I00
sg9
g5315
ssS'psychophysiology'
p5320
(dp5321
g3
g4
((lp5322
tp5323
Rp5324
sg8
I00
sg9
g5320
ssS'ultramicrotomies'
p5325
(dp5326
g3
g4
((lp5327
tp5328
Rp5329
sg8
I00
sg9
g5325
ssS'convertibilities'
p5330
(dp5331
g3
g4
((lp5332
tp5333
Rp5334
sg8
I00
sg9
g5330
ssS'collapsibilities'
p5335
(dp5336
g3
g4
((lp5337
tp5338
Rp5339
sg8
I00
sg9
g5335
ssS'fantasticalities'
p5340
(dp5341
g3
g4
((lp5342
tp5343
Rp5344
sg8
I00
sg9
g5340
ssS'vociferousnesses'
p5345
(dp5346
g3
g4
((lp5347
tp5348
Rp5349
sg8
I00
sg9
g5345
ssS'companionability'
p5350
(dp5351
g3
g4
((lp5352
tp5353
Rp5354
sg8
I00
sg9
g5350
ssS'overcomplicating'
p5355
(dp5356
g3
g4
((lp5357
tp5358
Rp5359
sg8
I00
sg9
g5355
ssS'counterresponses'
p5360
(dp5361
g3
g4
((lp5362
tp5363
Rp5364
sg8
I00
sg9
g5360
ssS'radiotelephonies'
p5365
(dp5366
g3
g4
((lp5367
tp5368
Rp5369
sg8
I00
sg9
g5365
ssS'photocoagulation'
p5370
(dp5371
g3
g4
((lp5372
tp5373
Rp5374
sg8
I00
sg9
g5370
ssS'radioprotections'
p5375
(dp5376
g3
g4
((lp5377
tp5378
Rp5379
sg8
I00
sg9
g5375
ssS'necessitarianism'
p5380
(dp5381
g3
g4
((lp5382
tp5383
Rp5384
sg8
I00
sg9
g5380
ssS'counterinstances'
p5385
(dp5386
g3
g4
((lp5387
tp5388
Rp5389
sg8
I00
sg9
g5385
ssS'inevitablenesses'
p5390
(dp5391
g3
g4
((lp5392
tp5393
Rp5394
sg8
I00
sg9
g5390
ssS'unsystematically'
p5395
(dp5396
g3
g4
((lp5397
tp5398
Rp5399
sg8
I00
sg9
g5395
ssS'manageablenesses'
p5400
(dp5401
g3
g4
((lp5402
tp5403
Rp5404
sg8
I00
sg9
g5400
ssS'multifactorially'
p5405
(dp5406
g3
g4
((lp5407
tp5408
Rp5409
sg8
I00
sg9
g5405
ssS'lamentablenesses'
p5410
(dp5411
g3
g4
((lp5412
tp5413
Rp5414
sg8
I00
sg9
g5410
ssS'unpalatabilities'
p5415
(dp5416
g3
g4
((lp5417
tp5418
Rp5419
sg8
I00
sg9
g5415
ssS'transilluminated'
p5420
(dp5421
g3
g4
((lp5422
S'transilluminates'
p5423
atp5424
Rp5425
sg8
I00
sg9
g5420
ssS'entrepreneurship'
p5426
(dp5427
g3
g4
((lp5428
tp5429
Rp5430
sg8
I00
sg9
g5426
ssS'antibureaucratic'
p5431
(dp5432
g3
g4
((lp5433
tp5434
Rp5435
sg8
I00
sg9
g5431
ssS'hyperinvolutions'
p5436
(dp5437
g3
g4
((lp5438
tp5439
Rp5440
sg8
I00
sg9
g5436
ssS'misanthropically'
p5441
(dp5442
g3
g4
((lp5443
tp5444
Rp5445
sg8
I00
sg9
g5441
ssS'definitivenesses'
p5446
(dp5447
g3
g4
((lp5448
tp5449
Rp5450
sg8
I00
sg9
g5446
ssg5423
(dp5451
g3
g4
((lp5452
g5420
atp5453
Rp5454
sg8
I00
sg9
g5423
ssS'precariousnesses'
p5455
(dp5456
g3
g4
((lp5457
tp5458
Rp5459
sg8
I00
sg9
g5455
ssS'dishonorableness'
p5460
(dp5461
g3
g4
((lp5462
tp5463
Rp5464
sg8
I00
sg9
g5460
ssS'antimetaphysical'
p5465
(dp5466
g3
g4
((lp5467
tp5468
Rp5469
sg8
I00
sg9
g5465
ssS'respectfulnesses'
p5470
(dp5471
g3
g4
((lp5472
tp5473
Rp5474
sg8
I00
sg9
g5470
ssS'underemployments'
p5475
(dp5476
g3
g4
((lp5477
tp5478
Rp5479
sg8
I00
sg9
g5475
ssS'immunosuppresses'
p5480
(dp5481
g3
g4
((lp5482
S'immunosuppressed'
p5483
atp5484
Rp5485
sg8
I00
sg9
g5480
ssS'unidirectionally'
p5486
(dp5487
g3
g4
((lp5488
tp5489
Rp5490
sg8
I00
sg9
g5486
ssS'extractabilities'
p5491
(dp5492
g3
g4
((lp5493
tp5494
Rp5495
sg8
I00
sg9
g5491
ssg5483
(dp5496
g3
g4
((lp5497
g5480
atp5498
Rp5499
sg8
I00
sg9
g5483
ssS'romanticizations'
p5500
(dp5501
g3
g4
((lp5502
tp5503
Rp5504
sg8
I00
sg9
g5500
ssg909
(dp5505
g3
g4
((lp5506
g906
atp5507
Rp5508
sg8
I00
sg9
g909
ssS'intussusceptions'
p5509
(dp5510
g3
g4
((lp5511
tp5512
Rp5513
sg8
I00
sg9
g5509
ssS'untruthfulnesses'
p5514
(dp5515
g3
g4
((lp5516
tp5517
Rp5518
sg8
I00
sg9
g5514
ssS'politicalization'
p5519
(dp5520
g3
g4
((lp5521
tp5522
Rp5523
sg8
I00
sg9
g5519
ssS'reprivatizations'
p5524
(dp5525
g3
g4
((lp5526
tp5527
Rp5528
sg8
I00
sg9
g5524
ssS'counterblockaded'
p5529
(dp5530
g3
g4
((lp5531
S'counterblockades'
p5532
atp5533
Rp5534
sg8
I00
sg9
g5529
ssS'lymphogranulomas'
p5535
(dp5536
g3
g4
((lp5537
tp5538
Rp5539
sg8
I00
sg9
g5535
ssS'faintheartedness'
p5540
(dp5541
g3
g4
((lp5542
tp5543
Rp5544
sg8
I00
sg9
g5540
ssS'microdissections'
p5545
(dp5546
g3
g4
((lp5547
tp5548
Rp5549
sg8
I00
sg9
g5545
ssS'anticlericalisms'
p5550
(dp5551
g3
g4
((lp5552
S'anticlericalists'
p5553
atp5554
Rp5555
sg8
I00
sg9
g5550
ssS'triboelectricity'
p5556
(dp5557
g3
g4
((lp5558
tp5559
Rp5560
sg8
I00
sg9
g5556
ssS'trifluoperazines'
p5561
(dp5562
g3
g4
((lp5563
tp5564
Rp5565
sg8
I00
sg9
g5561
ssg5532
(dp5566
g3
g4
((lp5567
g5529
atp5568
Rp5569
sg8
I00
sg9
g5532
ssS'environmentalist'
p5570
(dp5571
g3
g4
((lp5572
S'environmentalism'
p5573
atp5574
Rp5575
sg8
I00
sg9
g5570
ssg3945
(dp5576
g3
g4
((lp5577
g3942
atp5578
Rp5579
sg8
I00
sg9
g3945
ssg4133
(dp5580
g3
g4
((lp5581
g4130
atp5582
Rp5583
sg8
I00
sg9
g4133
ssS'hermaphroditisms'
p5584
(dp5585
g3
g4
((lp5586
tp5587
Rp5588
sg8
I00
sg9
g5584
ssS'microenvironment'
p5589
(dp5590
g3
g4
((lp5591
tp5592
Rp5593
sg8
I00
sg9
g5589
ssg5573
(dp5594
g3
g4
((lp5595
g5570
atp5596
Rp5597
sg8
I00
sg9
g5573
ssS'mistranscription'
p5598
(dp5599
g3
g4
((lp5600
tp5601
Rp5602
sg8
I00
sg9
g5598
ssS'interstimulation'
p5603
(dp5604
g3
g4
((lp5605
tp5606
Rp5607
sg8
I00
sg9
g5603
ssS'processibilities'
p5608
(dp5609
g3
g4
((lp5610
S'processabilities'
p5611
atp5612
Rp5613
sg8
I00
sg9
g5608
ssS'inviolablenesses'
p5614
(dp5615
g3
g4
((lp5616
tp5617
Rp5618
sg8
I00
sg9
g5614
ssS'autocorrelations'
p5619
(dp5620
g3
g4
((lp5621
tp5622
Rp5623
sg8
I00
sg9
g5619
ssS'gregariousnesses'
p5624
(dp5625
g3
g4
((lp5626
tp5627
Rp5628
sg8
I00
sg9
g5624
ssS'prodigiousnesses'
p5629
(dp5630
g3
g4
((lp5631
tp5632
Rp5633
sg8
I00
sg9
g5629
ssS'illimitabilities'
p5634
(dp5635
g3
g4
((lp5636
tp5637
Rp5638
sg8
I00
sg9
g5634
ssS'loquaciousnesses'
p5639
(dp5640
g3
g4
((lp5641
tp5642
Rp5643
sg8
I00
sg9
g5639
ssS'overenthusiastic'
p5644
(dp5645
g3
g4
((lp5646
tp5647
Rp5648
sg8
I00
sg9
g5644
ssS'consequentiality'
p5649
(dp5650
g3
g4
((lp5651
tp5652
Rp5653
sg8
I00
sg9
g5649
ssS'denaturalization'
p5654
(dp5655
g3
g4
((lp5656
tp5657
Rp5658
sg8
I00
sg9
g5654
ssS'absentmindedness'
p5659
(dp5660
g3
g4
((lp5661
tp5662
Rp5663
sg8
I00
sg9
g5659
ssS'perniciousnesses'
p5664
(dp5665
g3
g4
((lp5666
tp5667
Rp5668
sg8
I00
sg9
g5664
ssS'unaffectednesses'
p5669
(dp5670
g3
g4
((lp5671
tp5672
Rp5673
sg8
I00
sg9
g5669
ssS'hypervitaminosis'
p5674
(dp5675
g3
g4
((lp5676
S'hypervitaminoses'
p5677
atp5678
Rp5679
sg8
I00
sg9
g5674
ssS'semicolonialisms'
p5680
(dp5681
g3
g4
((lp5682
tp5683
Rp5684
sg8
I00
sg9
g5680
ssS'erythroblastosis'
p5685
(dp5686
g3
g4
((lp5687
S'erythroblastoses'
p5688
atp5689
Rp5690
sg8
I00
sg9
g5685
ssS'disestablishment'
p5691
(dp5692
g3
g4
((lp5693
tp5694
Rp5695
sg8
I00
sg9
g5691
ssS'autobiographical'
p5696
(dp5697
g3
g4
((lp5698
tp5699
Rp5700
sg8
I00
sg9
g5696
ssS'physiognomically'
p5701
(dp5702
g3
g4
((lp5703
tp5704
Rp5705
sg8
I00
sg9
g5701
ssS'teleconferencing'
p5706
(dp5707
g3
g4
((lp5708
tp5709
Rp5710
sg8
I00
sg9
g5706
ssS'tachyarrhythmias'
p5711
(dp5712
g3
g4
((lp5713
tp5714
Rp5715
sg8
I00
sg9
g5711
ssS'immunogeneticist'
p5716
(dp5717
g3
g4
((lp5718
tp5719
Rp5720
sg8
I00
sg9
g5716
ssS'irrevocabilities'
p5721
(dp5722
g3
g4
((lp5723
tp5724
Rp5725
sg8
I00
sg9
g5721
ssS'pyelonephritides'
p5726
(dp5727
g3
g4
((lp5728
tp5729
Rp5730
sg8
I00
sg9
g5726
ssS'disruptivenesses'
p5731
(dp5732
g3
g4
((lp5733
tp5734
Rp5735
sg8
I00
sg9
g5731
ssS'ichthyologically'
p5736
(dp5737
g3
g4
((lp5738
tp5739
Rp5740
sg8
I00
sg9
g5736
ssS'microphotometers'
p5741
(dp5742
g3
g4
((lp5743
tp5744
Rp5745
sg8
I00
sg9
g5741
ssS'supercalendering'
p5746
(dp5747
g3
g4
((lp5748
tp5749
Rp5750
sg8
I00
sg9
g5746
ssS'nondestructively'
p5751
(dp5752
g3
g4
((lp5753
tp5754
Rp5755
sg8
I00
sg9
g5751
ssS'surefootednesses'
p5756
(dp5757
g3
g4
((lp5758
tp5759
Rp5760
sg8
I00
sg9
g5756
ssS'despitefulnesses'
p5761
(dp5762
g3
g4
((lp5763
tp5764
Rp5765
sg8
I00
sg9
g5761
ssS'unavailingnesses'
p5766
(dp5767
g3
g4
((lp5768
tp5769
Rp5770
sg8
I00
sg9
g5766
ssS'orthographically'
p5771
(dp5772
g3
g4
((lp5773
tp5774
Rp5775
sg8
I00
sg9
g5771
ssS'constructionists'
p5776
(dp5777
g3
g4
((lp5778
tp5779
Rp5780
sg8
I00
sg9
g5776
ssS'exhaustivenesses'
p5781
(dp5782
g3
g4
((lp5783
tp5784
Rp5785
sg8
I00
sg9
g5781
ssS'overspeculations'
p5786
(dp5787
g3
g4
((lp5788
tp5789
Rp5790
sg8
I00
sg9
g5786
ssS'anticolonialisms'
p5791
(dp5792
g3
g4
((lp5793
S'anticolonialists'
p5794
atp5795
Rp5796
sg8
I00
sg9
g5791
ssg2853
(dp5797
g3
g4
((lp5798
g2832
ag2833
atp5799
Rp5800
sg8
I00
sg9
g2853
ssS'supersexualities'
p5801
(dp5802
g3
g4
((lp5803
tp5804
Rp5805
sg8
I00
sg9
g5801
ssS'monosyllabically'
p5806
(dp5807
g3
g4
((lp5808
tp5809
Rp5810
sg8
I00
sg9
g5806
ssg2832
(dp5811
g3
g4
((lp5812
g2829
ag2853
atp5813
Rp5814
sg8
I00
sg9
g2832
ssS'postindependence'
p5815
(dp5816
g3
g4
((lp5817
tp5818
Rp5819
sg8
I00
sg9
g5815
ssS'computerizations'
p5820
(dp5821
g3
g4
((lp5822
tp5823
Rp5824
sg8
I00
sg9
g5820
ssS'overstimulations'
p5825
(dp5826
g3
g4
((lp5827
tp5828
Rp5829
sg8
I00
sg9
g5825
ssS'premillennialist'
p5830
(dp5831
g3
g4
((lp5832
S'premillennialism'
p5833
atp5834
Rp5835
sg8
I00
sg9
g5830
ssS'relativistically'
p5836
(dp5837
g3
g4
((lp5838
tp5839
Rp5840
sg8
I00
sg9
g5836
ssS'meticulousnesses'
p5841
(dp5842
g3
g4
((lp5843
tp5844
Rp5845
sg8
I00
sg9
g5841
ssS'nonsignificantly'
p5846
(dp5847
g3
g4
((lp5848
tp5849
Rp5850
sg8
I00
sg9
g5846
ssS'imperviousnesses'
p5851
(dp5852
g3
g4
((lp5853
tp5854
Rp5855
sg8
I00
sg9
g5851
ssS'dogmaticalnesses'
p5856
(dp5857
g3
g4
((lp5858
tp5859
Rp5860
sg8
I00
sg9
g5856
ssS'intelligibleness'
p5861
(dp5862
g3
g4
((lp5863
tp5864
Rp5865
sg8
I00
sg9
g5861
ssS'epichlorohydrins'
p5866
(dp5867
g3
g4
((lp5868
tp5869
Rp5870
sg8
I00
sg9
g5866
ssS'autotransformers'
p5871
(dp5872
g3
g4
((lp5873
tp5874
Rp5875
sg8
I00
sg9
g5871
ssS'impossiblenesses'
p5876
(dp5877
g3
g4
((lp5878
tp5879
Rp5880
sg8
I00
sg9
g5876
ssS'phototypesetters'
p5881
(dp5882
g3
g4
((lp5883
tp5884
Rp5885
sg8
I00
sg9
g5881
ssS'verifiablenesses'
p5886
(dp5887
g3
g4
((lp5888
tp5889
Rp5890
sg8
I00
sg9
g5886
ssS'slatternlinesses'
p5891
(dp5892
g3
g4
((lp5893
tp5894
Rp5895
sg8
I00
sg9
g5891
ssS'immunodiffusions'
p5896
(dp5897
g3
g4
((lp5898
tp5899
Rp5900
sg8
I00
sg9
g5896
ssS'conventionalized'
p5901
(dp5902
g3
g4
((lp5903
S'conventionalizes'
p5904
atp5905
Rp5906
sg8
I00
sg9
g5901
ssS'symptomatologies'
p5907
(dp5908
g3
g4
((lp5909
tp5910
Rp5911
sg8
I00
sg9
g5907
ssS'rambunctiousness'
p5912
(dp5913
g3
g4
((lp5914
tp5915
Rp5916
sg8
I00
sg9
g5912
ssS'overconsumptions'
p5917
(dp5918
g3
g4
((lp5919
tp5920
Rp5921
sg8
I00
sg9
g5917
ssS'noncomparability'
p5922
(dp5923
g3
g4
((lp5924
tp5925
Rp5926
sg8
I00
sg9
g5922
ssg5904
(dp5927
g3
g4
((lp5928
g5901
atp5929
Rp5930
sg8
I00
sg9
g5904
ssS'electromagnetism'
p5931
(dp5932
g3
g4
((lp5933
tp5934
Rp5935
sg8
I00
sg9
g5931
ssS'hyperventilating'
p5936
(dp5937
g3
g4
((lp5938
tp5939
Rp5940
sg8
I00
sg9
g5936
ssS'disqualification'
p5941
(dp5942
g3
g4
((lp5943
tp5944
Rp5945
sg8
I00
sg9
g5941
ssS'indissolubleness'
p5946
(dp5947
g3
g4
((lp5948
tp5949
Rp5950
sg8
I00
sg9
g5946
ssS'uncongenialities'
p5951
(dp5952
g3
g4
((lp5953
tp5954
Rp5955
sg8
I00
sg9
g5951
ssg2209
(dp5956
g3
g4
((lp5957
g2206
atp5958
Rp5959
sg8
I00
sg9
g2209
ssS'dichotomizations'
p5960
(dp5961
g3
g4
((lp5962
tp5963
Rp5964
sg8
I00
sg9
g5960
ssS'microcalorimetry'
p5965
(dp5966
g3
g4
((lp5967
tp5968
Rp5969
sg8
I00
sg9
g5965
ssS'disciplinarities'
p5970
(dp5971
g3
g4
((lp5972
tp5973
Rp5974
sg8
I00
sg9
g5970
ssS'semipermeability'
p5975
(dp5976
g3
g4
((lp5977
tp5978
Rp5979
sg8
I00
sg9
g5975
ssS'overcompensating'
p5980
(dp5981
g3
g4
((lp5982
tp5983
Rp5984
sg8
I00
sg9
g5980
ssS'nonobjectivities'
p5985
(dp5986
g3
g4
((lp5987
tp5988
Rp5989
sg8
I00
sg9
g5985
ssS'semipornographic'
p5990
(dp5991
g3
g4
((lp5992
tp5993
Rp5994
sg8
I00
sg9
g5990
ssS'roentgenographic'
p5995
(dp5996
g3
g4
((lp5997
tp5998
Rp5999
sg8
I00
sg9
g5995
ssS'indecisivenesses'
p6000
(dp6001
g3
g4
((lp6002
tp6003
Rp6004
sg8
I00
sg9
g6000
ssg2136
(dp6005
g3
g4
((lp6006
g2133
atp6007
Rp6008
sg8
I00
sg9
g2136
ssS'grandparenthoods'
p6009
(dp6010
g3
g4
((lp6011
tp6012
Rp6013
sg8
I00
sg9
g6009
ssg1989
(dp6014
g3
g4
((lp6015
g1986
atp6016
Rp6017
sg8
I00
sg9
g1989
ssS'nonauthoritarian'
p6018
(dp6019
g3
g4
((lp6020
tp6021
Rp6022
sg8
I00
sg9
g6018
ssS'cytotechnologist'
p6023
(dp6024
g3
g4
((lp6025
tp6026
Rp6027
sg8
I00
sg9
g6023
ssS'nonmetropolitans'
p6028
(dp6029
g3
g4
((lp6030
tp6031
Rp6032
sg8
I00
sg9
g6028
ssS'pharmacokinetics'
p6033
(dp6034
g3
g4
((lp6035
tp6036
Rp6037
sg8
I00
sg9
g6033
ssS'spectroheliogram'
p6038
(dp6039
g3
g4
((lp6040
tp6041
Rp6042
sg8
I00
sg9
g6038
ssS'supportivenesses'
p6043
(dp6044
g3
g4
((lp6045
tp6046
Rp6047
sg8
I00
sg9
g6043
ssS'anthropopathisms'
p6048
(dp6049
g3
g4
((lp6050
tp6051
Rp6052
sg8
I00
sg9
g6048
ssS'comptrollerships'
p6053
(dp6054
g3
g4
((lp6055
tp6056
Rp6057
sg8
I00
sg9
g6053
ssS'antipornographic'
p6058
(dp6059
g3
g4
((lp6060
tp6061
Rp6062
sg8
I00
sg9
g6058
ssS'inalterabilities'
p6063
(dp6064
g3
g4
((lp6065
S'unalterabilities'
p6066
atp6067
Rp6068
sg8
I00
sg9
g6063
ssS'cholecystokinins'
p6069
(dp6070
g3
g4
((lp6071
tp6072
Rp6073
sg8
I00
sg9
g6069
ssS'directionalities'
p6074
(dp6075
g3
g4
((lp6076
tp6077
Rp6078
sg8
I00
sg9
g6074
ssS'pronunciamentoes'
p6079
(dp6080
g3
g4
((lp6081
tp6082
Rp6083
sg8
I00
sg9
g6079
ssS'refractivenesses'
p6084
(dp6085
g3
g4
((lp6086
tp6087
Rp6088
sg8
I00
sg9
g6084
ssS'inexpressiveness'
p6089
(dp6090
g3
g4
((lp6091
tp6092
Rp6093
sg8
I00
sg9
g6089
ssS'cytophotometries'
p6094
(dp6095
g3
g4
((lp6096
tp6097
Rp6098
sg8
I00
sg9
g6094
ssS'ultrafiltrations'
p6099
(dp6100
g3
g4
((lp6101
tp6102
Rp6103
sg8
I00
sg9
g6099
ssS'megasporogenesis'
p6104
(dp6105
g3
g4
((lp6106
S'megasporogeneses'
p6107
atp6108
Rp6109
sg8
I00
sg9
g6104
ssS'aminotransferase'
p6110
(dp6111
g3
g4
((lp6112
tp6113
Rp6114
sg8
I00
sg9
g6110
ssS'pseudoscientists'
p6115
(dp6116
g3
g4
((lp6117
tp6118
Rp6119
sg8
I00
sg9
g6115
ssg2900
(dp6120
g3
g4
((lp6121
g2897
atp6122
Rp6123
sg8
I00
sg9
g2900
ssg1098
(dp6124
g3
g4
((lp6125
g1083
atp6126
Rp6127
sg8
I00
sg9
g1098
ssS'transmissibility'
p6128
(dp6129
g3
g4
((lp6130
tp6131
Rp6132
sg8
I00
sg9
g6128
ssS'feeblemindedness'
p6133
(dp6134
g3
g4
((lp6135
tp6136
Rp6137
sg8
I00
sg9
g6133
ssS'syllabifications'
p6138
(dp6139
g3
g4
((lp6140
tp6141
Rp6142
sg8
I00
sg9
g6138
ssS'antihumanitarian'
p6143
(dp6144
g3
g4
((lp6145
tp6146
Rp6147
sg8
I00
sg9
g6143
ssS'reprehensibility'
p6148
(dp6149
g3
g4
((lp6150
tp6151
Rp6152
sg8
I00
sg9
g6148
ssS'resurrectionists'
p6153
(dp6154
g3
g4
((lp6155
tp6156
Rp6157
sg8
I00
sg9
g6153
ssS'counterincentive'
p6158
(dp6159
g3
g4
((lp6160
tp6161
Rp6162
sg8
I00
sg9
g6158
ssS'nonarchitectures'
p6163
(dp6164
g3
g4
((lp6165
tp6166
Rp6167
sg8
I00
sg9
g6163
ssg2661
(dp6168
g3
g4
((lp6169
g2658
atp6170
Rp6171
sg8
I00
sg9
g2661
ssS'endocrinologists'
p6172
(dp6173
g3
g4
((lp6174
tp6175
Rp6176
sg8
I00
sg9
g6172
ssS'overachievements'
p6177
(dp6178
g3
g4
((lp6179
tp6180
Rp6181
sg8
I00
sg9
g6177
ssS'microencapsulate'
p6182
(dp6183
g3
g4
((lp6184
tp6185
Rp6186
sg8
I00
sg9
g6182
ssS'prerevolutionary'
p6187
(dp6188
g3
g4
((lp6189
tp6190
Rp6191
sg8
I00
sg9
g6187
ssS'persuasivenesses'
p6192
(dp6193
g3
g4
((lp6194
tp6195
Rp6196
sg8
I00
sg9
g6192
ssS'unconstitutional'
p6197
(dp6198
g3
g4
((lp6199
tp6200
Rp6201
sg8
I00
sg9
g6197
ssS'oligosaccharides'
p6202
(dp6203
g3
g4
((lp6204
tp6205
Rp6206
sg8
I00
sg9
g6202
ssg2142
(dp6207
g3
g4
((lp6208
g2139
atp6209
Rp6210
sg8
I00
sg9
g2142
ssS'unconventionally'
p6211
(dp6212
g3
g4
((lp6213
tp6214
Rp6215
sg8
I00
sg9
g6211
ssS'chronometrically'
p6216
(dp6217
g3
g4
((lp6218
tp6219
Rp6220
sg8
I00
sg9
g6216
ssS'acceptablenesses'
p6221
(dp6222
g3
g4
((lp6223
tp6224
Rp6225
sg8
I00
sg9
g6221
ssS'regionalizations'
p6226
(dp6227
g3
g4
((lp6228
tp6229
Rp6230
sg8
I00
sg9
g6226
ssS'nephrotoxicities'
p6231
(dp6232
g3
g4
((lp6233
tp6234
Rp6235
sg8
I00
sg9
g6231
ssS'reconceptualizes'
p6236
(dp6237
g3
g4
((lp6238
S'reconceptualized'
p6239
atp6240
Rp6241
sg8
I00
sg9
g6236
ssS'intermissionless'
p6242
(dp6243
g3
g4
((lp6244
tp6245
Rp6246
sg8
I00
sg9
g6242
ssg6239
(dp6247
g3
g4
((lp6248
g6236
atp6249
Rp6250
sg8
I00
sg9
g6239
ssS'cyanoethylations'
p6251
(dp6252
g3
g4
((lp6253
tp6254
Rp6255
sg8
I00
sg9
g6251
ssS'thyrocalcitonins'
p6256
(dp6257
g3
g4
((lp6258
tp6259
Rp6260
sg8
I00
sg9
g6256
ssS'electrolytically'
p6261
(dp6262
g3
g4
((lp6263
tp6264
Rp6265
sg8
I00
sg9
g6261
ssS'contiguousnesses'
p6266
(dp6267
g3
g4
((lp6268
S'continuousnesses'
p6269
atp6270
Rp6271
sg8
I00
sg9
g6266
ssg4715
(dp6272
g3
g4
((lp6273
g4716
ag1328
atp6274
Rp6275
sg8
I00
sg9
g4715
ssS'counterinfluence'
p6276
(dp6277
g3
g4
((lp6278
tp6279
Rp6280
sg8
I00
sg9
g6276
ssS'accessiblenesses'
p6281
(dp6282
g3
g4
((lp6283
tp6284
Rp6285
sg8
I00
sg9
g6281
ssS'inauthenticities'
p6286
(dp6287
g3
g4
((lp6288
tp6289
Rp6290
sg8
I00
sg9
g6286
ssS'circumscriptions'
p6291
(dp6292
g3
g4
((lp6293
tp6294
Rp6295
sg8
I00
sg9
g6291
ssS'interferometries'
p6296
(dp6297
g3
g4
((lp6298
tp6299
Rp6300
sg8
I00
sg9
g6296
ssg4716
(dp6301
g3
g4
((lp6302
g4715
ag1328
atp6303
Rp6304
sg8
I00
sg9
g4716
ssS'chemoprophylaxes'
p6305
(dp6306
g3
g4
((lp6307
S'chemoprophylaxis'
p6308
atp6309
Rp6310
sg8
I00
sg9
g6305
ssS'accountabilities'
p6311
(dp6312
g3
g4
((lp6313
tp6314
Rp6315
sg8
I00
sg9
g6311
ssS'immunodiagnostic'
p6316
(dp6317
g3
g4
((lp6318
tp6319
Rp6320
sg8
I00
sg9
g6316
ssS'geochronologists'
p6321
(dp6322
g3
g4
((lp6323
tp6324
Rp6325
sg8
I00
sg9
g6321
ssS'catachrestically'
p6326
(dp6327
g3
g4
((lp6328
tp6329
Rp6330
sg8
I00
sg9
g6326
ssS'irresistibleness'
p6331
(dp6332
g3
g4
((lp6333
tp6334
Rp6335
sg8
I00
sg9
g6331
ssg5119
(dp6336
g3
g4
((lp6337
g5116
atp6338
Rp6339
sg8
I00
sg9
g5119
ssS'repetitivenesses'
p6340
(dp6341
g3
g4
((lp6342
tp6343
Rp6344
sg8
I00
sg9
g6340
ssS'hepatopancreases'
p6345
(dp6346
g3
g4
((lp6347
tp6348
Rp6349
sg8
I00
sg9
g6345
ssS'circumstantially'
p6350
(dp6351
g3
g4
((lp6352
tp6353
Rp6354
sg8
I00
sg9
g6350
ssg423
(dp6355
g3
g4
((lp6356
g420
atp6357
Rp6358
sg8
I00
sg9
g423
ssS'unmannerlinesses'
p6359
(dp6360
g3
g4
((lp6361
tp6362
Rp6363
sg8
I00
sg9
g6359
ssS'calculatednesses'
p6364
(dp6365
g3
g4
((lp6366
tp6367
Rp6368
sg8
I00
sg9
g6364
ssg6066
(dp6369
g3
g4
((lp6370
g6063
atp6371
Rp6372
sg8
I00
sg9
g6066
ssS'intransitivities'
p6373
(dp6374
g3
g4
((lp6375
tp6376
Rp6377
sg8
I00
sg9
g6373
ssS'pseudoparenchyma'
p6378
(dp6379
g3
g4
((lp6380
tp6381
Rp6382
sg8
I00
sg9
g6378
ssS'petrochemistries'
p6383
(dp6384
g3
g4
((lp6385
tp6386
Rp6387
sg8
I00
sg9
g6383
ssS'weatherboardings'
p6388
(dp6389
g3
g4
((lp6390
tp6391
Rp6392
sg8
I00
sg9
g6388
ssS'noninstructional'
p6393
(dp6394
g3
g4
((lp6395
tp6396
Rp6397
sg8
I00
sg9
g6393
ssg1051
(dp6398
g3
g4
((lp6399
g1048
atp6400
Rp6401
sg8
I00
sg9
g1051
ssS'deliverabilities'
p6402
(dp6403
g3
g4
((lp6404
tp6405
Rp6406
sg8
I00
sg9
g6402
ssg5611
(dp6407
g3
g4
((lp6408
g5608
atp6409
Rp6410
sg8
I00
sg9
g5611
ssS'irresponsibility'
p6411
(dp6412
g3
g4
((lp6413
tp6414
Rp6415
sg8
I00
sg9
g6411
ssS'psychotherapists'
p6416
(dp6417
g3
g4
((lp6418
tp6419
Rp6420
sg8
I00
sg9
g6416
ssS'subjectivization'
p6421
(dp6422
g3
g4
((lp6423
tp6424
Rp6425
sg8
I00
sg9
g6421
ssS'unchangingnesses'
p6426
(dp6427
g3
g4
((lp6428
tp6429
Rp6430
sg8
I00
sg9
g6426
ssS'mispronunciation'
p6431
(dp6432
g3
g4
((lp6433
tp6434
Rp6435
sg8
I00
sg9
g6431
ssS'hypophysectomies'
p6436
(dp6437
g3
g4
((lp6438
tp6439
Rp6440
sg8
I00
sg9
g6436
ssS'immunochemically'
p6441
(dp6442
g3
g4
((lp6443
tp6444
Rp6445
sg8
I00
sg9
g6441
ssS'thermometrically'
p6446
(dp6447
g3
g4
((lp6448
tp6449
Rp6450
sg8
I00
sg9
g6446
ssS'monopolistically'
p6451
(dp6452
g3
g4
((lp6453
tp6454
Rp6455
sg8
I00
sg9
g6451
ssS'reinvestigations'
p6456
(dp6457
g3
g4
((lp6458
tp6459
Rp6460
sg8
I00
sg9
g6456
ssS'pseudepigraphies'
p6461
(dp6462
g3
g4
((lp6463
tp6464
Rp6465
sg8
I00
sg9
g6461
ssS'catheterizations'
p6466
(dp6467
g3
g4
((lp6468
tp6469
Rp6470
sg8
I00
sg9
g6466
ssS'undecidabilities'
p6471
(dp6472
g3
g4
((lp6473
tp6474
Rp6475
sg8
I00
sg9
g6471
ssS'electrophilicity'
p6476
(dp6477
g3
g4
((lp6478
tp6479
Rp6480
sg8
I00
sg9
g6476
ssS'straightforwards'
p6481
(dp6482
g3
g4
((lp6483
tp6484
Rp6485
sg8
I00
sg9
g6481
ssS'underachievement'
p6486
(dp6487
g3
g4
((lp6488
tp6489
Rp6490
sg8
I00
sg9
g6486
ssS'immunomodulatory'
p6491
(dp6492
g3
g4
((lp6493
S'immunomodulators'
p6494
atp6495
Rp6496
sg8
I00
sg9
g6491
ssS'subversivenesses'
p6497
(dp6498
g3
g4
((lp6499
tp6500
Rp6501
sg8
I00
sg9
g6497
ssS'sphygmomanometry'
p6502
(dp6503
g3
g4
((lp6504
tp6505
Rp6506
sg8
I00
sg9
g6502
ssg6494
(dp6507
g3
g4
((lp6508
g6491
atp6509
Rp6510
sg8
I00
sg9
g6494
ssS'postpositionally'
p6511
(dp6512
g3
g4
((lp6513
tp6514
Rp6515
sg8
I00
sg9
g6511
ssS'astrophotography'
p6516
(dp6517
g3
g4
((lp6518
S'astrophotographs'
p6519
atp6520
Rp6521
sg8
I00
sg9
g6516
ssS'cinematographies'
p6522
(dp6523
g3
g4
((lp6524
tp6525
Rp6526
sg8
I00
sg9
g6522
ssS'democratizations'
p6527
(dp6528
g3
g4
((lp6529
tp6530
Rp6531
sg8
I00
sg9
g6527
ssg6519
(dp6532
g3
g4
((lp6533
g6516
atp6534
Rp6535
sg8
I00
sg9
g6519
ssS'semisubmersibles'
p6536
(dp6537
g3
g4
((lp6538
tp6539
Rp6540
sg8
I00
sg9
g6536
ssS'phosphorescently'
p6541
(dp6542
g3
g4
((lp6543
tp6544
Rp6545
sg8
I00
sg9
g6541
ssS'ultrarespectable'
p6546
(dp6547
g3
g4
((lp6548
tp6549
Rp6550
sg8
I00
sg9
g6546
ssS'sustainabilities'
p6551
(dp6552
g3
g4
((lp6553
tp6554
Rp6555
sg8
I00
sg9
g6551
ssS'historiographies'
p6556
(dp6557
g3
g4
((lp6558
tp6559
Rp6560
sg8
I00
sg9
g6556
ssS'enterochromaffin'
p6561
(dp6562
g3
g4
((lp6563
tp6564
Rp6565
sg8
I00
sg9
g6561
ssS'indispensability'
p6566
(dp6567
g3
g4
((lp6568
tp6569
Rp6570
sg8
I00
sg9
g6566
ssS'photosensitivity'
p6571
(dp6572
g3
g4
((lp6573
tp6574
Rp6575
sg8
I00
sg9
g6571
ssS'ultracentrifugal'
p6576
(dp6577
g3
g4
((lp6578
tp6579
Rp6580
sg8
I00
sg9
g6576
ssS'autoimmunization'
p6581
(dp6582
g3
g4
((lp6583
tp6584
Rp6585
sg8
I00
sg9
g6581
ssS'superstimulating'
p6586
(dp6587
g3
g4
((lp6588
tp6589
Rp6590
sg8
I00
sg9
g6586
ssS'nonestablishment'
p6591
(dp6592
g3
g4
((lp6593
tp6594
Rp6595
sg8
I00
sg9
g6591
ssS'sedimentologists'
p6596
(dp6597
g3
g4
((lp6598
tp6599
Rp6600
sg8
I00
sg9
g6596
ssS'prekindergartens'
p6601
(dp6602
g3
g4
((lp6603
tp6604
Rp6605
sg8
I00
sg9
g6601
ssS'muddleheadedness'
p6606
(dp6607
g3
g4
((lp6608
tp6609
Rp6610
sg8
I00
sg9
g6606
ssS'interdependences'
p6611
(dp6612
g3
g4
((lp6613
tp6614
Rp6615
sg8
I00
sg9
g6611
ssS'futilitarianisms'
p6616
(dp6617
g3
g4
((lp6618
tp6619
Rp6620
sg8
I00
sg9
g6616
ssS'hyperventilation'
p6621
(dp6622
g3
g4
((lp6623
tp6624
Rp6625
sg8
I00
sg9
g6621
ssS'nongravitational'
p6626
(dp6627
g3
g4
((lp6628
tp6629
Rp6630
sg8
I00
sg9
g6626
ssS'polysynaptically'
p6631
(dp6632
g3
g4
((lp6633
tp6634
Rp6635
sg8
I00
sg9
g6631
ssS'manipulabilities'
p6636
(dp6637
g3
g4
((lp6638
tp6639
Rp6640
sg8
I00
sg9
g6636
ssS'commensurability'
p6641
(dp6642
g3
g4
((lp6643
tp6644
Rp6645
sg8
I00
sg9
g6641
ssS'prosopographical'
p6646
(dp6647
g3
g4
((lp6648
tp6649
Rp6650
sg8
I00
sg9
g6646
ssS'contemptuousness'
p6651
(dp6652
g3
g4
((lp6653
tp6654
Rp6655
sg8
I00
sg9
g6651
ssS'interpretability'
p6656
(dp6657
g3
g4
((lp6658
tp6659
Rp6660
sg8
I00
sg9
g6656
ssS'nonmaterialistic'
p6661
(dp6662
g3
g4
((lp6663
tp6664
Rp6665
sg8
I00
sg9
g6661
ssS'hypercorrectness'
p6666
(dp6667
g3
g4
((lp6668
tp6669
Rp6670
sg8
I00
sg9
g6666
ssS'microphotometric'
p6671
(dp6672
g3
g4
((lp6673
tp6674
Rp6675
sg8
I00
sg9
g6671
ssS'representational'
p6676
(dp6677
g3
g4
((lp6678
tp6679
Rp6680
sg8
I00
sg9
g6676
ssS'pardonablenesses'
p6681
(dp6682
g3
g4
((lp6683
tp6684
Rp6685
sg8
I00
sg9
g6681
ssS'unprofessionally'
p6686
(dp6687
g3
g4
((lp6688
tp6689
Rp6690
sg8
I00
sg9
g6686
ssS'worshipfulnesses'
p6691
(dp6692
g3
g4
((lp6693
tp6694
Rp6695
sg8
I00
sg9
g6691
ssS'hospitalizations'
p6696
(dp6697
g3
g4
((lp6698
tp6699
Rp6700
sg8
I00
sg9
g6696
ssS'posthumousnesses'
p6701
(dp6702
g3
g4
((lp6703
tp6704
Rp6705
sg8
I00
sg9
g6701
ssS'traditionalistic'
p6706
(dp6707
g3
g4
((lp6708
tp6709
Rp6710
sg8
I00
sg9
g6706
ssS'multihandicapped'
p6711
(dp6712
g3
g4
((lp6713
tp6714
Rp6715
sg8
I00
sg9
g6711
ssS'fluoroscopically'
p6716
(dp6717
g3
g4
((lp6718
tp6719
Rp6720
sg8
I00
sg9
g6716
ssS'enthusiastically'
p6721
(dp6722
g3
g4
((lp6723
tp6724
Rp6725
sg8
I00
sg9
g6721
ssS'intensifications'
p6726
(dp6727
g3
g4
((lp6728
tp6729
Rp6730
sg8
I00
sg9
g6726
ssS'climatologically'
p6731
(dp6732
g3
g4
((lp6733
tp6734
Rp6735
sg8
I00
sg9
g6731
ssS'obstructionistic'
p6736
(dp6737
g3
g4
((lp6738
tp6739
Rp6740
sg8
I00
sg9
g6736
ssS'histophysiologic'
p6741
(dp6742
g3
g4
((lp6743
tp6744
Rp6745
sg8
I00
sg9
g6741
ssS'extracurriculars'
p6746
(dp6747
g3
g4
((lp6748
tp6749
Rp6750
sg8
I00
sg9
g6746
ssS'exhaustibilities'
p6751
(dp6752
g3
g4
((lp6753
tp6754
Rp6755
sg8
I00
sg9
g6751
ssS'organophosphorus'
p6756
(dp6757
g3
g4
((lp6758
tp6759
Rp6760
sg8
I00
sg9
g6756
ssS'disorganizations'
p6761
(dp6762
g3
g4
((lp6763
tp6764
Rp6765
sg8
I00
sg9
g6761
ssg757
(dp6766
g3
g4
((lp6767
g754
atp6768
Rp6769
sg8
I00
sg9
g757
ssS'parametrizations'
p6770
(dp6771
g3
g4
((lp6772
tp6773
Rp6774
sg8
I00
sg9
g6770
ssS'suborganizations'
p6775
(dp6776
g3
g4
((lp6777
tp6778
Rp6779
sg8
I00
sg9
g6775
ssS'photomultipliers'
p6780
(dp6781
g3
g4
((lp6782
tp6783
Rp6784
sg8
I00
sg9
g6780
ssS'lymphangiography'
p6785
(dp6786
g3
g4
((lp6787
tp6788
Rp6789
sg8
I00
sg9
g6785
ssS'largeheartedness'
p6790
(dp6791
g3
g4
((lp6792
tp6793
Rp6794
sg8
I00
sg9
g6790
ssS'micrometeorology'
p6795
(dp6796
g3
g4
((lp6797
tp6798
Rp6799
sg8
I00
sg9
g6795
ssS'nondeterministic'
p6800
(dp6801
g3
g4
((lp6802
tp6803
Rp6804
sg8
I00
sg9
g6800
ssS'desensitizations'
p6805
(dp6806
g3
g4
((lp6807
tp6808
Rp6809
sg8
I00
sg9
g6805
ssS'uncharitableness'
p6810
(dp6811
g3
g4
((lp6812
tp6813
Rp6814
sg8
I00
sg9
g6810
ssS'unprincipledness'
p6815
(dp6816
g3
g4
((lp6817
tp6818
Rp6819
sg8
I00
sg9
g6815
ssS'farfetchednesses'
p6820
(dp6821
g3
g4
((lp6822
tp6823
Rp6824
sg8
I00
sg9
g6820
ssS'semiconservative'
p6825
(dp6826
g3
g4
((lp6827
tp6828
Rp6829
sg8
I00
sg9
g6825
ssS'unpreparednesses'
p6830
(dp6831
g3
g4
((lp6832
tp6833
Rp6834
sg8
I00
sg9
g6830
ssg3498
(dp6835
g3
g4
((lp6836
g3495
atp6837
Rp6838
sg8
I00
sg9
g3498
ssg3342
(dp6839
g3
g4
((lp6840
g3339
atp6841
Rp6842
sg8
I00
sg9
g3342
ssS'multicellularity'
p6843
(dp6844
g3
g4
((lp6845
tp6846
Rp6847
sg8
I00
sg9
g6843
ssS'immeasurableness'
p6848
(dp6849
g3
g4
((lp6850
tp6851
Rp6852
sg8
I00
sg9
g6848
ssS'photogrammetries'
p6853
(dp6854
g3
g4
((lp6855
tp6856
Rp6857
sg8
I00
sg9
g6853
ssS'glossopharyngeal'
p6858
(dp6859
g3
g4
((lp6860
tp6861
Rp6862
sg8
I00
sg9
g6858
ssS'breathlessnesses'
p6863
(dp6864
g3
g4
((lp6865
tp6866
Rp6867
sg8
I00
sg9
g6863
ssS'hyperinsulinisms'
p6868
(dp6869
g3
g4
((lp6870
tp6871
Rp6872
sg8
I00
sg9
g6868
ssS'nonbiodegradable'
p6873
(dp6874
g3
g4
((lp6875
tp6876
Rp6877
sg8
I00
sg9
g6873
ssS'photoexcitations'
p6878
(dp6879
g3
g4
((lp6880
tp6881
Rp6882
sg8
I00
sg9
g6878
ssS'antistrophically'
p6883
(dp6884
g3
g4
((lp6885
tp6886
Rp6887
sg8
I00
sg9
g6883
ssS'oligodendroglial'
p6888
(dp6889
g3
g4
((lp6890
S'oligodendroglias'
p6891
atp6892
Rp6893
sg8
I00
sg9
g6888
ssS'discontinuations'
p6894
(dp6895
g3
g4
((lp6896
tp6897
Rp6898
sg8
I00
sg9
g6894
ssS'unpleasantnesses'
p6899
(dp6900
g3
g4
((lp6901
tp6902
Rp6903
sg8
I00
sg9
g6899
ssS'antiabortionists'
p6904
(dp6905
g3
g4
((lp6906
tp6907
Rp6908
sg8
I00
sg9
g6904
ssg6891
(dp6909
g3
g4
((lp6910
g6888
atp6911
Rp6912
sg8
I00
sg9
g6891
ssS'supranationality'
p6913
(dp6914
g3
g4
((lp6915
tp6916
Rp6917
sg8
I00
sg9
g6913
ssS'counterpetitions'
p6918
(dp6919
g3
g4
((lp6920
tp6921
Rp6922
sg8
I00
sg9
g6918
ssS'hydrophobicities'
p6923
(dp6924
g3
g4
((lp6925
tp6926
Rp6927
sg8
I00
sg9
g6923
ssS'interfertilities'
p6928
(dp6929
g3
g4
((lp6930
tp6931
Rp6932
sg8
I00
sg9
g6928
ssS'ecclesiasticisms'
p6933
(dp6934
g3
g4
((lp6935
tp6936
Rp6937
sg8
I00
sg9
g6933
ssS'nonparticipation'
p6938
(dp6939
g3
g4
((lp6940
tp6941
Rp6942
sg8
I00
sg9
g6938
ssS'weatherabilities'
p6943
(dp6944
g3
g4
((lp6945
tp6946
Rp6947
sg8
I00
sg9
g6943
ssg2926
(dp6948
g3
g4
((lp6949
g2923
ag3536
atp6950
Rp6951
sg8
I00
sg9
g2926
ssS'misappropriating'
p6952
(dp6953
g3
g4
((lp6954
tp6955
Rp6956
sg8
I00
sg9
g6952
ssS'circumnavigators'
p6957
(dp6958
g3
g4
((lp6959
tp6960
Rp6961
sg8
I00
sg9
g6957
ssS'depoliticization'
p6962
(dp6963
g3
g4
((lp6964
tp6965
Rp6966
sg8
I00
sg9
g6962
ssS'hyperawarenesses'
p6967
(dp6968
g3
g4
((lp6969
tp6970
Rp6971
sg8
I00
sg9
g6967
ssg3230
(dp6972
g3
g4
((lp6973
g3227
atp6974
Rp6975
sg8
I00
sg9
g3230
ssS'photomicrography'
p6976
(dp6977
g3
g4
((lp6978
S'photomicrographs'
p6979
atp6980
Rp6981
sg8
I00
sg9
g6976
ssS'mechanoreception'
p6982
(dp6983
g3
g4
((lp6984
tp6985
Rp6986
sg8
I00
sg9
g6982
ssS'teratocarcinomas'
p6987
(dp6988
g3
g4
((lp6989
tp6990
Rp6991
sg8
I00
sg9
g6987
ssS'dispersivenesses'
p6992
(dp6993
g3
g4
((lp6994
tp6995
Rp6996
sg8
I00
sg9
g6992
ssS'dessertspoonsful'
p6997
(dp6998
g3
g4
((lp6999
tp7000
Rp7001
sg8
I00
sg9
g6997
ssS'foreseeabilities'
p7002
(dp7003
g3
g4
((lp7004
tp7005
Rp7006
sg8
I00
sg9
g7002
ssS'transitivenesses'
p7007
(dp7008
g3
g4
((lp7009
tp7010
Rp7011
sg8
I00
sg9
g7007
ssS'nondisjunctional'
p7012
(dp7013
g3
g4
((lp7014
tp7015
Rp7016
sg8
I00
sg9
g7012
ssS'disenfranchising'
p7017
(dp7018
g3
g4
((lp7019
tp7020
Rp7021
sg8
I00
sg9
g7017
ssS'convincingnesses'
p7022
(dp7023
g3
g4
((lp7024
tp7025
Rp7026
sg8
I00
sg9
g7022
ssS'nanotechnologies'
p7027
(dp7028
g3
g4
((lp7029
tp7030
Rp7031
sg8
I00
sg9
g7027
ssS'tracheobronchial'
p7032
(dp7033
g3
g4
((lp7034
tp7035
Rp7036
sg8
I00
sg9
g7032
ssS'masculinizations'
p7037
(dp7038
g3
g4
((lp7039
tp7040
Rp7041
sg8
I00
sg9
g7037
ssS'nonindependences'
p7042
(dp7043
g3
g4
((lp7044
tp7045
Rp7046
sg8
I00
sg9
g7042
ssS'addressabilities'
p7047
(dp7048
g3
g4
((lp7049
tp7050
Rp7051
sg8
I00
sg9
g7047
ssS'humanitarianisms'
p7052
(dp7053
g3
g4
((lp7054
tp7055
Rp7056
sg8
I00
sg9
g7052
ssS'microsporangiate'
p7057
(dp7058
g3
g4
((lp7059
tp7060
Rp7061
sg8
I00
sg9
g7057
ssS'ultrasonographic'
p7062
(dp7063
g3
g4
((lp7064
tp7065
Rp7066
sg8
I00
sg9
g7062
ssS'mendaciousnesses'
p7067
(dp7068
g3
g4
((lp7069
tp7070
Rp7071
sg8
I00
sg9
g7067
ssS'unbecomingnesses'
p7072
(dp7073
g3
g4
((lp7074
tp7075
Rp7076
sg8
I00
sg9
g7072
ssS'prophylactically'
p7077
(dp7078
g3
g4
((lp7079
tp7080
Rp7081
sg8
I00
sg9
g7077
ssS'vasoconstrictive'
p7082
(dp7083
g3
g4
((lp7084
tp7085
Rp7086
sg8
I00
sg9
g7082
ssg6979
(dp7087
g3
g4
((lp7088
g6976
atp7089
Rp7090
sg8
I00
sg9
g6979
ssS'tetramethylleads'
p7091
(dp7092
g3
g4
((lp7093
tp7094
Rp7095
sg8
I00
sg9
g7091
ssS'nonconservatives'
p7096
(dp7097
g3
g4
((lp7098
tp7099
Rp7100
sg8
I00
sg9
g7096
ssS'recoverabilities'
p7101
(dp7102
g3
g4
((lp7103
tp7104
Rp7105
sg8
I00
sg9
g7101
ssS'redistributional'
p7106
(dp7107
g3
g4
((lp7108
tp7109
Rp7110
sg8
I00
sg9
g7106
ssS'elementarinesses'
p7111
(dp7112
g3
g4
((lp7113
tp7114
Rp7115
sg8
I00
sg9
g7111
ssS'impermeabilities'
p7116
(dp7117
g3
g4
((lp7118
tp7119
Rp7120
sg8
I00
sg9
g7116
ssS'traditionalizing'
p7121
(dp7122
g3
g4
((lp7123
tp7124
Rp7125
sg8
I00
sg9
g7121
ssS'distributorships'
p7126
(dp7127
g3
g4
((lp7128
tp7129
Rp7130
sg8
I00
sg9
g7126
ssS'groundlessnesses'
p7131
(dp7132
g3
g4
((lp7133
tp7134
Rp7135
sg8
I00
sg9
g7131
ssS'paleographically'
p7136
(dp7137
g3
g4
((lp7138
tp7139
Rp7140
sg8
I00
sg9
g7136
ssS'imaginablenesses'
p7141
(dp7142
g3
g4
((lp7143
tp7144
Rp7145
sg8
I00
sg9
g7141
ssg5688
(dp7146
g3
g4
((lp7147
g5685
atp7148
Rp7149
sg8
I00
sg9
g5688
ssS'hendecasyllabics'
p7150
(dp7151
g3
g4
((lp7152
tp7153
Rp7154
sg8
I00
sg9
g7150
ssS'osteoarthritides'
p7155
(dp7156
g3
g4
((lp7157
tp7158
Rp7159
sg8
I00
sg9
g7155
ssS'sympathomimetics'
p7160
(dp7161
g3
g4
((lp7162
tp7163
Rp7164
sg8
I00
sg9
g7160
ssS'articulatenesses'
p7165
(dp7166
g3
g4
((lp7167
tp7168
Rp7169
sg8
I00
sg9
g7165
ssS'radiochemistries'
p7170
(dp7171
g3
g4
((lp7172
tp7173
Rp7174
sg8
I00
sg9
g7170
ssS'miscommunication'
p7175
(dp7176
g3
g4
((lp7177
tp7178
Rp7179
sg8
I00
sg9
g7175
ssS'antilibertarians'
p7180
(dp7181
g3
g4
((lp7182
tp7183
Rp7184
sg8
I00
sg9
g7180
ssS'hyperfunctioning'
p7185
(dp7186
g3
g4
((lp7187
tp7188
Rp7189
sg8
I00
sg9
g7185
ssS'ubiquitousnesses'
p7190
(dp7191
g3
g4
((lp7192
tp7193
Rp7194
sg8
I00
sg9
g7190
ssS'semigovernmental'
p7195
(dp7196
g3
g4
((lp7197
tp7198
Rp7199
sg8
I00
sg9
g7195
ssS'upstandingnesses'
p7200
(dp7201
g3
g4
((lp7202
tp7203
Rp7204
sg8
I00
sg9
g7200
ssS'neurochemistries'
p7205
(dp7206
g3
g4
((lp7207
tp7208
Rp7209
sg8
I00
sg9
g7205
ssS'trafficabilities'
p7210
(dp7211
g3
g4
((lp7212
tp7213
Rp7214
sg8
I00
sg9
g7210
ssS'bloodthirstiness'
p7215
(dp7216
g3
g4
((lp7217
tp7218
Rp7219
sg8
I00
sg9
g7215
ssS'irrefutabilities'
p7220
(dp7221
g3
g4
((lp7222
tp7223
Rp7224
sg8
I00
sg9
g7220
ssS'discourteousness'
p7225
(dp7226
g3
g4
((lp7227
tp7228
Rp7229
sg8
I00
sg9
g7225
ssS'disintoxications'
p7230
(dp7231
g3
g4
((lp7232
tp7233
Rp7234
sg8
I00
sg9
g7230
ssS'postmillenarians'
p7235
(dp7236
g3
g4
((lp7237
tp7238
Rp7239
sg8
I00
sg9
g7235
ssS'ecclesiastically'
p7240
(dp7241
g3
g4
((lp7242
tp7243
Rp7244
sg8
I00
sg9
g7240
ssS'superincumbently'
p7245
(dp7246
g3
g4
((lp7247
tp7248
Rp7249
sg8
I00
sg9
g7245
ssS'productivenesses'
p7250
(dp7251
g3
g4
((lp7252
tp7253
Rp7254
sg8
I00
sg9
g7250
ssS'microprojections'
p7255
(dp7256
g3
g4
((lp7257
tp7258
Rp7259
sg8
I00
sg9
g7255
ssS'dessertspoonfuls'
p7260
(dp7261
g3
g4
((lp7262
tp7263
Rp7264
sg8
I00
sg9
g7260
ssS'onomatopoeically'
p7265
(dp7266
g3
g4
((lp7267
tp7268
Rp7269
sg8
I00
sg9
g7265
ssS'conditionalities'
p7270
(dp7271
g3
g4
((lp7272
tp7273
Rp7274
sg8
I00
sg9
g7270
ssS'diphthongization'
p7275
(dp7276
g3
g4
((lp7277
tp7278
Rp7279
sg8
I00
sg9
g7275
ssS'infectiousnesses'
p7280
(dp7281
g3
g4
((lp7282
tp7283
Rp7284
sg8
I00
sg9
g7280
ssS'dependablenesses'
p7285
(dp7286
g3
g4
((lp7287
tp7288
Rp7289
sg8
I00
sg9
g7285
ssS'bioelectricities'
p7290
(dp7291
g3
g4
((lp7292
tp7293
Rp7294
sg8
I00
sg9
g7290
ssS'inauspiciousness'
p7295
(dp7296
g3
g4
((lp7297
tp7298
Rp7299
sg8
I00
sg9
g7295
ssS'reorchestrations'
p7300
(dp7301
g3
g4
((lp7302
tp7303
Rp7304
sg8
I00
sg9
g7300
ssS'nonproprietaries'
p7305
(dp7306
g3
g4
((lp7307
tp7308
Rp7309
sg8
I00
sg9
g7305
ssS'hyperstimulation'
p7310
(dp7311
g3
g4
((lp7312
tp7313
Rp7314
sg8
I00
sg9
g7310
ssS'nonintellectuals'
p7315
(dp7316
g3
g4
((lp7317
tp7318
Rp7319
sg8
I00
sg9
g7315
ssS'hyperviscosities'
p7320
(dp7321
g3
g4
((lp7322
tp7323
Rp7324
sg8
I00
sg9
g7320
ssS'discombobulation'
p7325
(dp7326
g3
g4
((lp7327
tp7328
Rp7329
sg8
I00
sg9
g7325
ssS'ineffectualities'
p7330
(dp7331
g3
g4
((lp7332
tp7333
Rp7334
sg8
I00
sg9
g7330
ssS'dephosphorylated'
p7335
(dp7336
g3
g4
((lp7337
S'dephosphorylates'
p7338
atp7339
Rp7340
sg8
I00
sg9
g7335
ssS'phytogeographies'
p7341
(dp7342
g3
g4
((lp7343
tp7344
Rp7345
sg8
I00
sg9
g7341
ssg5833
(dp7346
g3
g4
((lp7347
g5830
atp7348
Rp7349
sg8
I00
sg9
g5833
ssS'counterviolences'
p7350
(dp7351
g3
g4
((lp7352
tp7353
Rp7354
sg8
I00
sg9
g7350
ssg7338
(dp7355
g3
g4
((lp7356
g7335
atp7357
Rp7358
sg8
I00
sg9
g7338
ssS'waterproofnesses'
p7359
(dp7360
g3
g4
((lp7361
tp7362
Rp7363
sg8
I00
sg9
g7359
ssS'photochemistries'
p7364
(dp7365
g3
g4
((lp7366
S'phytochemistries'
p7367
atp7368
Rp7369
sg8
I00
sg9
g7364
ssg3035
(dp7370
g3
g4
((lp7371
g3032
atp7372
Rp7373
sg8
I00
sg9
g3035
ssg2927
(dp7374
g3
g4
((lp7375
g2923
ag3536
atp7376
Rp7377
sg8
I00
sg9
g2927
ssS'intangiblenesses'
p7378
(dp7379
g3
g4
((lp7380
tp7381
Rp7382
sg8
I00
sg9
g7378
ssS'electrophoresing'
p7383
(dp7384
g3
g4
((lp7385
tp7386
Rp7387
sg8
I00
sg9
g7383
ssS'overgeneralizing'
p7388
(dp7389
g3
g4
((lp7390
tp7391
Rp7392
sg8
I00
sg9
g7388
ssS'motionlessnesses'
p7393
(dp7394
g3
g4
((lp7395
tp7396
Rp7397
sg8
I00
sg9
g7393
ssS'pugnaciousnesses'
p7398
(dp7399
g3
g4
((lp7400
tp7401
Rp7402
sg8
I00
sg9
g7398
ssS'reclassification'
p7403
(dp7404
g3
g4
((lp7405
S'declassification'
p7406
atp7407
Rp7408
sg8
I00
sg9
g7403
ssS'northwesternmost'
p7409
(dp7410
g3
g4
((lp7411
tp7412
Rp7413
sg8
I00
sg9
g7409
ssS'systematizations'
p7414
(dp7415
g3
g4
((lp7416
tp7417
Rp7418
sg8
I00
sg9
g7414
ssS'cyclohexylamines'
p7419
(dp7420
g3
g4
((lp7421
tp7422
Rp7423
sg8
I00
sg9
g7419
ssS'calligraphically'
p7424
(dp7425
g3
g4
((lp7426
tp7427
Rp7428
sg8
I00
sg9
g7424
ssS'counterarguments'
p7429
(dp7430
g3
g4
((lp7431
tp7432
Rp7433
sg8
I00
sg9
g7429
ssS'counterbalancing'
p7434
(dp7435
g3
g4
((lp7436
tp7437
Rp7438
sg8
I00
sg9
g7434
ssS'weightlessnesses'
p7439
(dp7440
g3
g4
((lp7441
tp7442
Rp7443
sg8
I00
sg9
g7439
ssS'counterpressures'
p7444
(dp7445
g3
g4
((lp7446
tp7447
Rp7448
sg8
I00
sg9
g7444
ssg4077
(dp7449
g3
g4
((lp7450
g4074
atp7451
Rp7452
sg8
I00
sg9
g4077
ssS'philoprogenitive'
p7453
(dp7454
g3
g4
((lp7455
tp7456
Rp7457
sg8
I00
sg9
g7453
ssS'interjectionally'
p7458
(dp7459
g3
g4
((lp7460
tp7461
Rp7462
sg8
I00
sg9
g7458
ssS'cryopreservation'
p7463
(dp7464
g3
g4
((lp7465
tp7466
Rp7467
sg8
I00
sg9
g7463
ssS'prosperousnesses'
p7468
(dp7469
g3
g4
((lp7470
tp7471
Rp7472
sg8
I00
sg9
g7468
ssS'supercomfortable'
p7473
(dp7474
g3
g4
((lp7475
tp7476
Rp7477
sg8
I00
sg9
g7473
ssS'deliberatenesses'
p7478
(dp7479
g3
g4
((lp7480
tp7481
Rp7482
sg8
I00
sg9
g7478
ssS'intermediateness'
p7483
(dp7484
g3
g4
((lp7485
tp7486
Rp7487
sg8
I00
sg9
g7483
ssS'intergenerations'
p7488
(dp7489
g3
g4
((lp7490
tp7491
Rp7492
sg8
I00
sg9
g7488
ssS'flagitiousnesses'
p7493
(dp7494
g3
g4
((lp7495
tp7496
Rp7497
sg8
I00
sg9
g7493
ssS'phenomenologists'
p7498
(dp7499
g3
g4
((lp7500
tp7501
Rp7502
sg8
I00
sg9
g7498
ssS'biostatisticians'
p7503
(dp7504
g3
g4
((lp7505
tp7506
Rp7507
sg8
I00
sg9
g7503
ssS'thermodynamicist'
p7508
(dp7509
g3
g4
((lp7510
tp7511
Rp7512
sg8
I00
sg9
g7508
ssS'hyperproductions'
p7513
(dp7514
g3
g4
((lp7515
tp7516
Rp7517
sg8
I00
sg9
g7513
ssg6107
(dp7518
g3
g4
((lp7519
g6104
atp7520
Rp7521
sg8
I00
sg9
g6107
ssS'preposterousness'
p7522
(dp7523
g3
g4
((lp7524
tp7525
Rp7526
sg8
I00
sg9
g7522
ssS'paradigmatically'
p7527
(dp7528
g3
g4
((lp7529
tp7530
Rp7531
sg8
I00
sg9
g7527
ssS'antihierarchical'
p7532
(dp7533
g3
g4
((lp7534
tp7535
Rp7536
sg8
I00
sg9
g7532
ssS'seropositivities'
p7537
(dp7538
g3
g4
((lp7539
tp7540
Rp7541
sg8
I00
sg9
g7537
ssS'arterioscleroses'
p7542
(dp7543
g3
g4
((lp7544
S'arteriosclerosis'
p7545
atp7546
Rp7547
sg8
I00
sg9
g7542
ssS'commodiousnesses'
p7548
(dp7549
g3
g4
((lp7550
tp7551
Rp7552
sg8
I00
sg9
g7548
ssS'undemocratically'
p7553
(dp7554
g3
g4
((lp7555
tp7556
Rp7557
sg8
I00
sg9
g7553
ssS'extrachromosomal'
p7558
(dp7559
g3
g4
((lp7560
tp7561
Rp7562
sg8
I00
sg9
g7558
ssS'reaccreditations'
p7563
(dp7564
g3
g4
((lp7565
tp7566
Rp7567
sg8
I00
sg9
g7563
ssS'exceptionability'
p7568
(dp7569
g3
g4
((lp7570
tp7571
Rp7572
sg8
I00
sg9
g7568
ssS'unresponsiveness'
p7573
(dp7574
g3
g4
((lp7575
tp7576
Rp7577
sg8
I00
sg9
g7573
ssS'hydrodynamicists'
p7578
(dp7579
g3
g4
((lp7580
tp7581
Rp7582
sg8
I00
sg9
g7578
ssS'cardiomyopathies'
p7583
(dp7584
g3
g4
((lp7585
tp7586
Rp7587
sg8
I00
sg9
g7583
ssS'constitutionally'
p7588
(dp7589
g3
g4
((lp7590
tp7591
Rp7592
sg8
I00
sg9
g7588
ssS'otolaryngologist'
p7593
(dp7594
g3
g4
((lp7595
tp7596
Rp7597
sg8
I00
sg9
g7593
ssS'representativity'
p7598
(dp7599
g3
g4
((lp7600
tp7601
Rp7602
sg8
I00
sg9
g7598
ssS'incautiousnesses'
p7603
(dp7604
g3
g4
((lp7605
tp7606
Rp7607
sg8
I00
sg9
g7603
ssS'flibbertigibbety'
p7608
(dp7609
g3
g4
((lp7610
S'flibbertigibbets'
p7611
atp7612
Rp7613
sg8
I00
sg9
g7608
ssS'noncomplementary'
p7614
(dp7615
g3
g4
((lp7616
tp7617
Rp7618
sg8
I00
sg9
g7614
ssg7611
(dp7619
g3
g4
((lp7620
g7608
atp7621
Rp7622
sg8
I00
sg9
g7611
ssS'overproportioned'
p7623
(dp7624
g3
g4
((lp7625
tp7626
Rp7627
sg8
I00
sg9
g7623
ssS'psychohistorical'
p7628
(dp7629
g3
g4
((lp7630
tp7631
Rp7632
sg8
I00
sg9
g7628
ssg1742
(dp7633
g3
g4
((lp7634
g1739
atp7635
Rp7636
sg8
I00
sg9
g1742
ssS'misdistributions'
p7637
(dp7638
g3
g4
((lp7639
tp7640
Rp7641
sg8
I00
sg9
g7637
ssS'paleogeographies'
p7642
(dp7643
g3
g4
((lp7644
tp7645
Rp7646
sg8
I00
sg9
g7642
ssg2952
(dp7647
g3
g4
((lp7648
g2949
atp7649
Rp7650
sg8
I00
sg9
g2952
ssS'inexpugnableness'
p7651
(dp7652
g3
g4
((lp7653
tp7654
Rp7655
sg8
I00
sg9
g7651
ssS'chemiluminescent'
p7656
(dp7657
g3
g4
((lp7658
tp7659
Rp7660
sg8
I00
sg9
g7656
ssS'gynandromorphism'
p7661
(dp7662
g3
g4
((lp7663
tp7664
Rp7665
sg8
I00
sg9
g7661
ssS'constructiveness'
p7666
(dp7667
g3
g4
((lp7668
tp7669
Rp7670
sg8
I00
sg9
g7666
ssS'thermoregulating'
p7671
(dp7672
g3
g4
((lp7673
tp7674
Rp7675
sg8
I00
sg9
g7671
ssS'intergradational'
p7676
(dp7677
g3
g4
((lp7678
tp7679
Rp7680
sg8
I00
sg9
g7676
ssS'pinealectomizing'
p7681
(dp7682
g3
g4
((lp7683
tp7684
Rp7685
sg8
I00
sg9
g7681
ssg4634
(dp7686
g3
g4
((lp7687
g4631
atp7688
Rp7689
sg8
I00
sg9
g4634
ssS'indelicatenesses'
p7690
(dp7691
g3
g4
((lp7692
tp7693
Rp7694
sg8
I00
sg9
g7690
ssS'inappositenesses'
p7695
(dp7696
g3
g4
((lp7697
tp7698
Rp7699
sg8
I00
sg9
g7695
ssS'imperceptiveness'
p7700
(dp7701
g3
g4
((lp7702
tp7703
Rp7704
sg8
I00
sg9
g7700
ssS'intrapsychically'
p7705
(dp7706
g3
g4
((lp7707
tp7708
Rp7709
sg8
I00
sg9
g7705
ssS'transsexualities'
p7710
(dp7711
g3
g4
((lp7712
tp7713
Rp7714
sg8
I00
sg9
g7710
ssS'incommensurables'
p7715
(dp7716
g3
g4
((lp7717
tp7718
Rp7719
sg8
I00
sg9
g7715
ssS'magnetostriction'
p7720
(dp7721
g3
g4
((lp7722
tp7723
Rp7724
sg8
I00
sg9
g7720
ssS'septendecillions'
p7725
(dp7726
g3
g4
((lp7727
tp7728
Rp7729
sg8
I00
sg9
g7725
ssS'psycholinguistic'
p7730
(dp7731
g3
g4
((lp7732
tp7733
Rp7734
sg8
I00
sg9
g7730
ssS'proselytizations'
p7735
(dp7736
g3
g4
((lp7737
tp7738
Rp7739
sg8
I00
sg9
g7735
ssS'responsibilities'
p7740
(dp7741
g3
g4
((lp7742
tp7743
Rp7744
sg8
I00
sg9
g7740
ssg2570
(dp7745
g3
g4
((lp7746
g2567
atp7747
Rp7748
sg8
I00
sg9
g2570
ssS'paradoxicalities'
p7749
(dp7750
g3
g4
((lp7751
tp7752
Rp7753
sg8
I00
sg9
g7749
ssS'multiprocessings'
p7754
(dp7755
g3
g4
((lp7756
tp7757
Rp7758
sg8
I00
sg9
g7754
ssg1459
(dp7759
g3
g4
((lp7760
g1456
atp7761
Rp7762
sg8
I00
sg9
g1459
ssg1000
(dp7763
g3
g4
((lp7764
g997
atp7765
Rp7766
sg8
I00
sg9
g1000
ssS'photomorphogenic'
p7767
(dp7768
g3
g4
((lp7769
tp7770
Rp7771
sg8
I00
sg9
g7767
ssS'imperativenesses'
p7772
(dp7773
g3
g4
((lp7774
tp7775
Rp7776
sg8
I00
sg9
g7772
ssg2384
(dp7777
g3
g4
((lp7778
g2381
atp7779
Rp7780
sg8
I00
sg9
g2384
ssS'ultranationalist'
p7781
(dp7782
g3
g4
((lp7783
S'ultranationalism'
p7784
atp7785
Rp7786
sg8
I00
sg9
g7781
ssS'methamphetamines'
p7787
(dp7788
g3
g4
((lp7789
tp7790
Rp7791
sg8
I00
sg9
g7787
ssS'frenchifications'
p7792
(dp7793
g3
g4
((lp7794
tp7795
Rp7796
sg8
I00
sg9
g7792
ssg2999
(dp7797
g3
g4
((lp7798
g2996
atp7799
Rp7800
sg8
I00
sg9
g2999
ssS'stereoregularity'
p7801
(dp7802
g3
g4
((lp7803
tp7804
Rp7805
sg8
I00
sg9
g7801
ssS'ostentatiousness'
p7806
(dp7807
g3
g4
((lp7808
tp7809
Rp7810
sg8
I00
sg9
g7806
ssS'nonparticipating'
p7811
(dp7812
g3
g4
((lp7813
tp7814
Rp7815
sg8
I00
sg9
g7811
ssS'succinylcholines'
p7816
(dp7817
g3
g4
((lp7818
tp7819
Rp7820
sg8
I00
sg9
g7816
ssS'crossopterygians'
p7821
(dp7822
g3
g4
((lp7823
tp7824
Rp7825
sg8
I00
sg9
g7821
ssS'antepenultimates'
p7826
(dp7827
g3
g4
((lp7828
tp7829
Rp7830
sg8
I00
sg9
g7826
ssS'misappropriation'
p7831
(dp7832
g3
g4
((lp7833
tp7834
Rp7835
sg8
I00
sg9
g7831
ssS'discursivenesses'
p7836
(dp7837
g3
g4
((lp7838
tp7839
Rp7840
sg8
I00
sg9
g7836
ssS'extemporaneously'
p7841
(dp7842
g3
g4
((lp7843
tp7844
Rp7845
sg8
I00
sg9
g7841
ssg1758
(dp7846
g3
g4
((lp7847
g3380
ag1755
atp7848
Rp7849
sg8
I00
sg9
g1758
ssS'mechanochemistry'
p7850
(dp7851
g3
g4
((lp7852
tp7853
Rp7854
sg8
I00
sg9
g7850
ssS'monochromaticity'
p7855
(dp7856
g3
g4
((lp7857
tp7858
Rp7859
sg8
I00
sg9
g7855
ssS'gastroesophageal'
p7860
(dp7861
g3
g4
((lp7862
tp7863
Rp7864
sg8
I00
sg9
g7860
ssS'histopathologies'
p7865
(dp7866
g3
g4
((lp7867
tp7868
Rp7869
sg8
I00
sg9
g7865
ssS'suggestivenesses'
p7870
(dp7871
g3
g4
((lp7872
tp7873
Rp7874
sg8
I00
sg9
g7870
ssS'hydrodynamically'
p7875
(dp7876
g3
g4
((lp7877
tp7878
Rp7879
sg8
I00
sg9
g7875
ssS'organoleptically'
p7880
(dp7881
g3
g4
((lp7882
tp7883
Rp7884
sg8
I00
sg9
g7880
ssS'reafforestations'
p7885
(dp7886
g3
g4
((lp7887
tp7888
Rp7889
sg8
I00
sg9
g7885
ssS'roentgenological'
p7890
(dp7891
g3
g4
((lp7892
tp7893
Rp7894
sg8
I00
sg9
g7890
ssS'discombobulating'
p7895
(dp7896
g3
g4
((lp7897
tp7898
Rp7899
sg8
I00
sg9
g7895
ssS'perfectibilities'
p7900
(dp7901
g3
g4
((lp7902
tp7903
Rp7904
sg8
I00
sg9
g7900
ssS'refractorinesses'
p7905
(dp7906
g3
g4
((lp7907
tp7908
Rp7909
sg8
I00
sg9
g7905
ssS'hyperpituitarism'
p7910
(dp7911
g3
g4
((lp7912
tp7913
Rp7914
sg8
I00
sg9
g7910
ssS'newsworthinesses'
p7915
(dp7916
g3
g4
((lp7917
tp7918
Rp7919
sg8
I00
sg9
g7915
ssS'chemotherapeutic'
p7920
(dp7921
g3
g4
((lp7922
tp7923
Rp7924
sg8
I00
sg9
g7920
ssS'archiepiscopates'
p7925
(dp7926
g3
g4
((lp7927
tp7928
Rp7929
sg8
I00
sg9
g7925
ssS'irrepressibility'
p7930
(dp7931
g3
g4
((lp7932
tp7933
Rp7934
sg8
I00
sg9
g7930
ssS'unexpectednesses'
p7935
(dp7936
g3
g4
((lp7937
tp7938
Rp7939
sg8
I00
sg9
g7935
ssS'electrodeposited'
p7940
(dp7941
g3
g4
((lp7942
tp7943
Rp7944
sg8
I00
sg9
g7940
ssS'profitablenesses'
p7945
(dp7946
g3
g4
((lp7947
tp7948
Rp7949
sg8
I00
sg9
g7945
ssS'antiunemployment'
p7950
(dp7951
g3
g4
((lp7952
tp7953
Rp7954
sg8
I00
sg9
g7950
ssS'softheadednesses'
p7955
(dp7956
g3
g4
((lp7957
tp7958
Rp7959
sg8
I00
sg9
g7955
ssS'ultraprogressive'
p7960
(dp7961
g3
g4
((lp7962
tp7963
Rp7964
sg8
I00
sg9
g7960
ssg7784
(dp7965
g3
g4
((lp7966
g7781
atp7967
Rp7968
sg8
I00
sg9
g7784
ssS'neighborlinesses'
p7969
(dp7970
g3
g4
((lp7971
tp7972
Rp7973
sg8
I00
sg9
g7969
ssS'paraformaldehyde'
p7974
(dp7975
g3
g4
((lp7976
tp7977
Rp7978
sg8
I00
sg9
g7974
ssS'anthropocentrism'
p7979
(dp7980
g3
g4
((lp7981
tp7982
Rp7983
sg8
I00
sg9
g7979
ssg670
(dp7984
g3
g4
((lp7985
g667
atp7986
Rp7987
sg8
I00
sg9
g670
ssS'histochemistries'
p7988
(dp7989
g3
g4
((lp7990
tp7991
Rp7992
sg8
I00
sg9
g7988
ssS'countercurrently'
p7993
(dp7994
g3
g4
((lp7995
tp7996
Rp7997
sg8
I00
sg9
g7993
ssS'inappreciatively'
p7998
(dp7999
g3
g4
((lp8000
tp8001
Rp8002
sg8
I00
sg9
g7998
ssS'noncontradiction'
p8003
(dp8004
g3
g4
((lp8005
tp8006
Rp8007
sg8
I00
sg9
g8003
ssS'petrographically'
p8008
(dp8009
g3
g4
((lp8010
tp8011
Rp8012
sg8
I00
sg9
g8008
ssS'robustiousnesses'
p8013
(dp8014
g3
g4
((lp8015
tp8016
Rp8017
sg8
I00
sg9
g8013
ssS'intermodulations'
p8018
(dp8019
g3
g4
((lp8020
tp8021
Rp8022
sg8
I00
sg9
g8018
ssS'standardizations'
p8023
(dp8024
g3
g4
((lp8025
tp8026
Rp8027
sg8
I00
sg9
g8023
ssS'intercalibration'
p8028
(dp8029
g3
g4
((lp8030
tp8031
Rp8032
sg8
I00
sg9
g8028
ssS'hypercompetitive'
p8033
(dp8034
g3
g4
((lp8035
tp8036
Rp8037
sg8
I00
sg9
g8033
ssS'supportabilities'
p8038
(dp8039
g3
g4
((lp8040
tp8041
Rp8042
sg8
I00
sg9
g8038
ssS'impermissibility'
p8043
(dp8044
g3
g4
((lp8045
tp8046
Rp8047
sg8
I00
sg9
g8043
ssS'monosynaptically'
p8048
(dp8049
g3
g4
((lp8050
tp8051
Rp8052
sg8
I00
sg9
g8048
ssS'invinciblenesses'
p8053
(dp8054
g3
g4
((lp8055
tp8056
Rp8057
sg8
I00
sg9
g8053
ssS'combustibilities'
p8058
(dp8059
g3
g4
((lp8060
tp8061
Rp8062
sg8
I00
sg9
g8058
ssS'subvocalizations'
p8063
(dp8064
g3
g4
((lp8065
tp8066
Rp8067
sg8
I00
sg9
g8063
ssS'scandalousnesses'
p8068
(dp8069
g3
g4
((lp8070
tp8071
Rp8072
sg8
I00
sg9
g8068
ssS'rebelliousnesses'
p8073
(dp8074
g3
g4
((lp8075
tp8076
Rp8077
sg8
I00
sg9
g8073
ssS'supersubstantial'
p8078
(dp8079
g3
g4
((lp8080
tp8081
Rp8082
sg8
I00
sg9
g8078
ssS'decasualizations'
p8083
(dp8084
g3
g4
((lp8085
tp8086
Rp8087
sg8
I00
sg9
g8083
ssS'immunopathologic'
p8088
(dp8089
g3
g4
((lp8090
tp8091
Rp8092
sg8
I00
sg9
g8088
ssS'denumerabilities'
p8093
(dp8094
g3
g4
((lp8095
tp8096
Rp8097
sg8
I00
sg9
g8093
ssS'superintelligent'
p8098
(dp8099
g3
g4
((lp8100
tp8101
Rp8102
sg8
I00
sg9
g8098
ssS'psychopathically'
p8103
(dp8104
g3
g4
((lp8105
tp8106
Rp8107
sg8
I00
sg9
g8103
ssS'euphoniousnesses'
p8108
(dp8109
g3
g4
((lp8110
tp8111
Rp8112
sg8
I00
sg9
g8108
ssS'undiplomatically'
p8113
(dp8114
g3
g4
((lp8115
tp8116
Rp8117
sg8
I00
sg9
g8113
ssS'passionatenesses'
p8118
(dp8119
g3
g4
((lp8120
tp8121
Rp8122
sg8
I00
sg9
g8118
ssS'unindustrialized'
p8123
(dp8124
g3
g4
((lp8125
tp8126
Rp8127
sg8
I00
sg9
g8123
ssS'depressurization'
p8128
(dp8129
g3
g4
((lp8130
tp8131
Rp8132
sg8
I00
sg9
g8128
ssS'metamathematical'
p8133
(dp8134
g3
g4
((lp8135
tp8136
Rp8137
sg8
I00
sg9
g8133
ssS'questionableness'
p8138
(dp8139
g3
g4
((lp8140
tp8141
Rp8142
sg8
I00
sg9
g8138
ssS'sobersidednesses'
p8143
(dp8144
g3
g4
((lp8145
tp8146
Rp8147
sg8
I00
sg9
g8143
ssS'disorderlinesses'
p8148
(dp8149
g3
g4
((lp8150
tp8151
Rp8152
sg8
I00
sg9
g8148
ssS'instrumentations'
p8153
(dp8154
g3
g4
((lp8155
tp8156
Rp8157
sg8
I00
sg9
g8153
ssS'contagiousnesses'
p8158
(dp8159
g3
g4
((lp8160
tp8161
Rp8162
sg8
I00
sg9
g8158
ssS'creditworthiness'
p8163
(dp8164
g3
g4
((lp8165
tp8166
Rp8167
sg8
I00
sg9
g8163
ssS'enforceabilities'
p8168
(dp8169
g3
g4
((lp8170
tp8171
Rp8172
sg8
I00
sg9
g8168
ssS'underemphasizing'
p8173
(dp8174
g3
g4
((lp8175
tp8176
Rp8177
sg8
I00
sg9
g8173
ssS'noncommutativity'
p8178
(dp8179
g3
g4
((lp8180
tp8181
Rp8182
sg8
I00
sg9
g8178
ssS'crystallographic'
p8183
(dp8184
g3
g4
((lp8185
tp8186
Rp8187
sg8
I00
sg9
g8183
ssS'photorespiration'
p8188
(dp8189
g3
g4
((lp8190
tp8191
Rp8192
sg8
I00
sg9
g8188
ssS'diagrammatically'
p8193
(dp8194
g3
g4
((lp8195
tp8196
Rp8197
sg8
I00
sg9
g8193
ssS'extraterritorial'
p8198
(dp8199
g3
g4
((lp8200
tp8201
Rp8202
sg8
I00
sg9
g8198
ssS'solicitousnesses'
p8203
(dp8204
g3
g4
((lp8205
tp8206
Rp8207
sg8
I00
sg9
g8203
ssS'pseudoclassicism'
p8208
(dp8209
g3
g4
((lp8210
tp8211
Rp8212
sg8
I00
sg9
g8208
ssS'antiaphrodisiacs'
p8213
(dp8214
g3
g4
((lp8215
tp8216
Rp8217
sg8
I00
sg9
g8213
ssS'psychopathologic'
p8218
(dp8219
g3
g4
((lp8220
tp8221
Rp8222
sg8
I00
sg9
g8218
ssS'postencephalitic'
p8223
(dp8224
g3
g4
((lp8225
tp8226
Rp8227
sg8
I00
sg9
g8223
ssS'openhandednesses'
p8228
(dp8229
g3
g4
((lp8230
tp8231
Rp8232
sg8
I00
sg9
g8228
ssS'unassumingnesses'
p8233
(dp8234
g3
g4
((lp8235
tp8236
Rp8237
sg8
I00
sg9
g8233
ssS'photoautotrophic'
p8238
(dp8239
g3
g4
((lp8240
tp8241
Rp8242
sg8
I00
sg9
g8238
ssS'thermoregulation'
p8243
(dp8244
g3
g4
((lp8245
tp8246
Rp8247
sg8
I00
sg9
g8243
ssS'intellectualizer'
p8248
(dp8249
g3
g4
((lp8250
S'intellectualizes'
p8251
aS'intellectualized'
p8252
atp8253
Rp8254
sg8
I00
sg9
g8248
ssg8251
(dp8255
g3
g4
((lp8256
g8248
ag8252
atp8257
Rp8258
sg8
I00
sg9
g8251
ssS'recapitalization'
p8259
(dp8260
g3
g4
((lp8261
tp8262
Rp8263
sg8
I00
sg9
g8259
ssS'nullificationist'
p8264
(dp8265
g3
g4
((lp8266
tp8267
Rp8268
sg8
I00
sg9
g8264
ssg8252
(dp8269
g3
g4
((lp8270
g8248
ag8251
atp8271
Rp8272
sg8
I00
sg9
g8252
ssS'neurotransmitter'
p8273
(dp8274
g3
g4
((lp8275
tp8276
Rp8277
sg8
I00
sg9
g8273
ssS'flabbergastingly'
p8278
(dp8279
g3
g4
((lp8280
tp8281
Rp8282
sg8
I00
sg9
g8278
ssS'hypostatizations'
p8283
(dp8284
g3
g4
((lp8285
tp8286
Rp8287
sg8
I00
sg9
g8283
ssS'pseudoscientific'
p8288
(dp8289
g3
g4
((lp8290
tp8291
Rp8292
sg8
I00
sg9
g8288
ssS'plethysmographic'
p8293
(dp8294
g3
g4
((lp8295
tp8296
Rp8297
sg8
I00
sg9
g8293
ssS'oxytetracyclines'
p8298
(dp8299
g3
g4
((lp8300
tp8301
Rp8302
sg8
I00
sg9
g8298
ssS'hyperintelligent'
p8303
(dp8304
g3
g4
((lp8305
tp8306
Rp8307
sg8
I00
sg9
g8303
ssS'pleasurabilities'
p8308
(dp8309
g3
g4
((lp8310
tp8311
Rp8312
sg8
I00
sg9
g8308
ssS'counterespionage'
p8313
(dp8314
g3
g4
((lp8315
tp8316
Rp8317
sg8
I00
sg9
g8313
ssS'pornographically'
p8318
(dp8319
g3
g4
((lp8320
tp8321
Rp8322
sg8
I00
sg9
g8318
ssS'sympathectomized'
p8323
(dp8324
g3
g4
((lp8325
tp8326
Rp8327
sg8
I00
sg9
g8323
ssS'sprightfulnesses'
p8328
(dp8329
g3
g4
((lp8330
tp8331
Rp8332
sg8
I00
sg9
g8328
ssS'biomathematician'
p8333
(dp8334
g3
g4
((lp8335
tp8336
Rp8337
sg8
I00
sg9
g8333
ssS'cosmochemistries'
p8338
(dp8339
g3
g4
((lp8340
tp8341
Rp8342
sg8
I00
sg9
g8338
ssS'conservatorships'
p8343
(dp8344
g3
g4
((lp8345
tp8346
Rp8347
sg8
I00
sg9
g8343
ssS'interventricular'
p8348
(dp8349
g3
g4
((lp8350
tp8351
Rp8352
sg8
I00
sg9
g8348
ssS'formidablenesses'
p8353
(dp8354
g3
g4
((lp8355
tp8356
Rp8357
sg8
I00
sg9
g8353
ssS'ultramicroscopic'
p8358
(dp8359
g3
g4
((lp8360
tp8361
Rp8362
sg8
I00
sg9
g8358
ssS'diabolicalnesses'
p8363
(dp8364
g3
g4
((lp8365
tp8366
Rp8367
sg8
I00
sg9
g8363
ssS'dihydroxyacetone'
p8368
(dp8369
g3
g4
((lp8370
tp8371
Rp8372
sg8
I00
sg9
g8368
ssg5677
(dp8373
g3
g4
((lp8374
g5674
atp8375
Rp8376
sg8
I00
sg9
g5677
ssS'ultramarathoners'
p8377
(dp8378
g3
g4
((lp8379
tp8380
Rp8381
sg8
I00
sg9
g8377
ssS'felicitousnesses'
p8382
(dp8383
g3
g4
((lp8384
tp8385
Rp8386
sg8
I00
sg9
g8382
ssS'overgenerosities'
p8387
(dp8388
g3
g4
((lp8389
tp8390
Rp8391
sg8
I00
sg9
g8387
ssg6269
(dp8392
g3
g4
((lp8393
g6266
atp8394
Rp8395
sg8
I00
sg9
g6269
ssS'antiassimilation'
p8396
(dp8397
g3
g4
((lp8398
tp8399
Rp8400
sg8
I00
sg9
g8396
ssS'antireductionist'
p8401
(dp8402
g3
g4
((lp8403
S'antireductionism'
p8404
atp8405
Rp8406
sg8
I00
sg9
g8401
ssS'noncommunicating'
p8407
(dp8408
g3
g4
((lp8409
tp8410
Rp8411
sg8
I00
sg9
g8407
ssg2731
(dp8412
g3
g4
((lp8413
g2728
atp8414
Rp8415
sg8
I00
sg9
g2731
ssS'microgametocytes'
p8416
(dp8417
g3
g4
((lp8418
tp8419
Rp8420
sg8
I00
sg9
g8416
ssS'abstractednesses'
p8421
(dp8422
g3
g4
((lp8423
tp8424
Rp8425
sg8
I00
sg9
g8421
ssS'radiosensitivity'
p8426
(dp8427
g3
g4
((lp8428
tp8429
Rp8430
sg8
I00
sg9
g8426
ssS'tetrahydrofurans'
p8431
(dp8432
g3
g4
((lp8433
tp8434
Rp8435
sg8
I00
sg9
g8431
ssg8404
(dp8436
g3
g4
((lp8437
g8401
atp8438
Rp8439
sg8
I00
sg9
g8404
ssS'pseudonymousness'
p8440
(dp8441
g3
g4
((lp8442
tp8443
Rp8444
sg8
I00
sg9
g8440
ssg3834
(dp8445
g3
g4
((lp8446
g3831
atp8447
Rp8448
sg8
I00
sg9
g3834
ssS'eschatologically'
p8449
(dp8450
g3
g4
((lp8451
tp8452
Rp8453
sg8
I00
sg9
g8449
ssS'unscientifically'
p8454
(dp8455
g3
g4
((lp8456
tp8457
Rp8458
sg8
I00
sg9
g8454
ssS'perceptibilities'
p8459
(dp8460
g3
g4
((lp8461
tp8462
Rp8463
sg8
I00
sg9
g8459
ssS'prequalification'
p8464
(dp8465
g3
g4
((lp8466
tp8467
Rp8468
sg8
I00
sg9
g8464
ssg5053
(dp8469
g3
g4
((lp8470
g5050
atp8471
Rp8472
sg8
I00
sg9
g5053
ssS'coquettishnesses'
p8473
(dp8474
g3
g4
((lp8475
tp8476
Rp8477
sg8
I00
sg9
g8473
ssS'platitudinarians'
p8478
(dp8479
g3
g4
((lp8480
tp8481
Rp8482
sg8
I00
sg9
g8478
ssS'chromolithograph'
p8483
(dp8484
g3
g4
((lp8485
tp8486
Rp8487
sg8
I00
sg9
g8483
ssS'psychometrically'
p8488
(dp8489
g3
g4
((lp8490
tp8491
Rp8492
sg8
I00
sg9
g8488
ssS'unavailabilities'
p8493
(dp8494
g3
g4
((lp8495
tp8496
Rp8497
sg8
I00
sg9
g8493
ssS'compensabilities'
p8498
(dp8499
g3
g4
((lp8500
tp8501
Rp8502
sg8
I00
sg9
g8498
ssS'overindebtedness'
p8503
(dp8504
g3
g4
((lp8505
tp8506
Rp8507
sg8
I00
sg9
g8503
ssS'teratogenicities'
p8508
(dp8509
g3
g4
((lp8510
tp8511
Rp8512
sg8
I00
sg9
g8508
ssS'superintensities'
p8513
(dp8514
g3
g4
((lp8515
tp8516
Rp8517
sg8
I00
sg9
g8513
ssS'worthwhilenesses'
p8518
(dp8519
g3
g4
((lp8520
tp8521
Rp8522
sg8
I00
sg9
g8518
ssS'featherstitching'
p8523
(dp8524
g3
g4
((lp8525
tp8526
Rp8527
sg8
I00
sg9
g8523
ssS'triiodothyronine'
p8528
(dp8529
g3
g4
((lp8530
tp8531
Rp8532
sg8
I00
sg9
g8528
ssS'connoisseurships'
p8533
(dp8534
g3
g4
((lp8535
tp8536
Rp8537
sg8
I00
sg9
g8533
ssS'unrestrainedness'
p8538
(dp8539
g3
g4
((lp8540
tp8541
Rp8542
sg8
I00
sg9
g8538
ssS'disconnectedness'
p8543
(dp8544
g3
g4
((lp8545
tp8546
Rp8547
sg8
I00
sg9
g8543
ssS'superspecialists'
p8548
(dp8549
g3
g4
((lp8550
tp8551
Rp8552
sg8
I00
sg9
g8548
ssS'commodifications'
p8553
(dp8554
g3
g4
((lp8555
tp8556
Rp8557
sg8
I00
sg9
g8553
ssS'impregnabilities'
p8558
(dp8559
g3
g4
((lp8560
tp8561
Rp8562
sg8
I00
sg9
g8558
ssS'underappreciated'
p8563
(dp8564
g3
g4
((lp8565
tp8566
Rp8567
sg8
I00
sg9
g8563
ssS'fallaciousnesses'
p8568
(dp8569
g3
g4
((lp8570
tp8571
Rp8572
sg8
I00
sg9
g8568
ssS'anaphylactically'
p8573
(dp8574
g3
g4
((lp8575
tp8576
Rp8577
sg8
I00
sg9
g8573
ssS'expressivenesses'
p8578
(dp8579
g3
g4
((lp8580
tp8581
Rp8582
sg8
I00
sg9
g8578
ssS'phototypesetting'
p8583
(dp8584
g3
g4
((lp8585
tp8586
Rp8587
sg8
I00
sg9
g8583
ssg3462
(dp8588
g3
g4
((lp8589
g3459
atp8590
Rp8591
sg8
I00
sg9
g3462
ssS'lasciviousnesses'
p8592
(dp8593
g3
g4
((lp8594
tp8595
Rp8596
sg8
I00
sg9
g8592
ssS'eclaircissements'
p8597
(dp8598
g3
g4
((lp8599
tp8600
Rp8601
sg8
I00
sg9
g8597
ssS'circumnavigating'
p8602
(dp8603
g3
g4
((lp8604
tp8605
Rp8606
sg8
I00
sg9
g8602
ssS'resistlessnesses'
p8607
(dp8608
g3
g4
((lp8609
tp8610
Rp8611
sg8
I00
sg9
g8607
ssS'micropublishings'
p8612
(dp8613
g3
g4
((lp8614
tp8615
Rp8616
sg8
I00
sg9
g8612
ssS'antiaristocratic'
p8617
(dp8618
g3
g4
((lp8619
tp8620
Rp8621
sg8
I00
sg9
g8617
ssS'hyperexcitements'
p8622
(dp8623
g3
g4
((lp8624
tp8625
Rp8626
sg8
I00
sg9
g8622
ssS'perpendicularity'
p8627
(dp8628
g3
g4
((lp8629
tp8630
Rp8631
sg8
I00
sg9
g8627
ssS'lithographically'
p8632
(dp8633
g3
g4
((lp8634
tp8635
Rp8636
sg8
I00
sg9
g8632
ssS'voluptuousnesses'
p8637
(dp8638
g3
g4
((lp8639
tp8640
Rp8641
sg8
I00
sg9
g8637
ssS'interoperability'
p8642
(dp8643
g3
g4
((lp8644
tp8645
Rp8646
sg8
I00
sg9
g8642
ssg4700
(dp8647
g3
g4
((lp8648
g4697
atp8649
Rp8650
sg8
I00
sg9
g4700
ssS'amphibiousnesses'
p8651
(dp8652
g3
g4
((lp8653
tp8654
Rp8655
sg8
I00
sg9
g8651
ssg3326
(dp8656
g3
g4
((lp8657
g3323
atp8658
Rp8659
sg8
I00
sg9
g3326
ssS'ununderstandable'
p8660
(dp8661
g3
g4
((lp8662
tp8663
Rp8664
sg8
I00
sg9
g8660
ssS'misvocalizations'
p8665
(dp8666
g3
g4
((lp8667
tp8668
Rp8669
sg8
I00
sg9
g8665
ssS'paraphrastically'
p8670
(dp8671
g3
g4
((lp8672
tp8673
Rp8674
sg8
I00
sg9
g8670
ssS'curvilinearities'
p8675
(dp8676
g3
g4
((lp8677
tp8678
Rp8679
sg8
I00
sg9
g8675
ssS'protrusivenesses'
p8680
(dp8681
g3
g4
((lp8682
tp8683
Rp8684
sg8
I00
sg9
g8680
ssS'interpretational'
p8685
(dp8686
g3
g4
((lp8687
tp8688
Rp8689
sg8
I00
sg9
g8685
ssS'remarkablenesses'
p8690
(dp8691
g3
g4
((lp8692
tp8693
Rp8694
sg8
I00
sg9
g8690
ssg3447
(dp8695
g3
g4
((lp8696
g3444
atp8697
Rp8698
sg8
I00
sg9
g3447
ssg7406
(dp8699
g3
g4
((lp8700
g7403
atp8701
Rp8702
sg8
I00
sg9
g7406
ssS'emancipationists'
p8703
(dp8704
g3
g4
((lp8705
tp8706
Rp8707
sg8
I00
sg9
g8703
ssS'hepatotoxicities'
p8708
(dp8709
g3
g4
((lp8710
tp8711
Rp8712
sg8
I00
sg9
g8708
ssS'phytoflagellates'
p8713
(dp8714
g3
g4
((lp8715
tp8716
Rp8717
sg8
I00
sg9
g8713
ssS'outlandishnesses'
p8718
(dp8719
g3
g4
((lp8720
tp8721
Rp8722
sg8
I00
sg9
g8718
ssg4722
(dp8723
g3
g4
((lp8724
g4719
atp8725
Rp8726
sg8
I00
sg9
g4722
ssS'pheochromocytoma'
p8727
(dp8728
g3
g4
((lp8729
tp8730
Rp8731
sg8
I00
sg9
g8727
ssS'latensifications'
p8732
(dp8733
g3
g4
((lp8734
tp8735
Rp8736
sg8
I00
sg9
g8732
ssS'chemotaxonomists'
p8737
(dp8738
g3
g4
((lp8739
tp8740
Rp8741
sg8
I00
sg9
g8737
ssS'nonmathematician'
p8742
(dp8743
g3
g4
((lp8744
tp8745
Rp8746
sg8
I00
sg9
g8742
ssS'counterreformers'
p8747
(dp8748
g3
g4
((lp8749
tp8750
Rp8751
sg8
I00
sg9
g8747
ssS'incestuousnesses'
p8752
(dp8753
g3
g4
((lp8754
tp8755
Rp8756
sg8
I00
sg9
g8752
ssS'thermostatically'
p8757
(dp8758
g3
g4
((lp8759
tp8760
Rp8761
sg8
I00
sg9
g8757
ssS'neuropathologies'
p8762
(dp8763
g3
g4
((lp8764
tp8765
Rp8766
sg8
I00
sg9
g8762
ssS'friendlessnesses'
p8767
(dp8768
g3
g4
((lp8769
tp8770
Rp8771
sg8
I00
sg9
g8767
ssS'communicableness'
p8772
(dp8773
g3
g4
((lp8774
tp8775
Rp8776
sg8
I00
sg9
g8772
ssS'clitoridectomies'
p8777
(dp8778
g3
g4
((lp8779
tp8780
Rp8781
sg8
I00
sg9
g8777
ssS'deuterocanonical'
p8782
(dp8783
g3
g4
((lp8784
tp8785
Rp8786
sg8
I00
sg9
g8782
ssS'localizabilities'
p8787
(dp8788
g3
g4
((lp8789
tp8790
Rp8791
sg8
I00
sg9
g8787
ssS'intersterilities'
p8792
(dp8793
g3
g4
((lp8794
tp8795
Rp8796
sg8
I00
sg9
g8792
ssS'scurrilousnesses'
p8797
(dp8798
g3
g4
((lp8799
tp8800
Rp8801
sg8
I00
sg9
g8797
ssS'incontestability'
p8802
(dp8803
g3
g4
((lp8804
tp8805
Rp8806
sg8
I00
sg9
g8802
ssS'cataphoretically'
p8807
(dp8808
g3
g4
((lp8809
tp8810
Rp8811
sg8
I00
sg9
g8807
ssS'electrosurgeries'
p8812
(dp8813
g3
g4
((lp8814
tp8815
Rp8816
sg8
I00
sg9
g8812
ssS'immortalizations'
p8817
(dp8818
g3
g4
((lp8819
tp8820
Rp8821
sg8
I00
sg9
g8817
ssS'outrageousnesses'
p8822
(dp8823
g3
g4
((lp8824
tp8825
Rp8826
sg8
I00
sg9
g8822
ssS'constitutionless'
p8827
(dp8828
g3
g4
((lp8829
tp8830
Rp8831
sg8
I00
sg9
g8827
ssS'antitotalitarian'
p8832
(dp8833
g3
g4
((lp8834
tp8835
Rp8836
sg8
I00
sg9
g8832
ssS'hydroxylapatites'
p8837
(dp8838
g3
g4
((lp8839
tp8840
Rp8841
sg8
I00
sg9
g8837
ssS'cytotechnologies'
p8842
(dp8843
g3
g4
((lp8844
tp8845
Rp8846
sg8
I00
sg9
g8842
ssS'bureaucratically'
p8847
(dp8848
g3
g4
((lp8849
tp8850
Rp8851
sg8
I00
sg9
g8847
ssS'superspectacular'
p8852
(dp8853
g3
g4
((lp8854
tp8855
Rp8856
sg8
I00
sg9
g8852
ssS'microcirculation'
p8857
(dp8858
g3
g4
((lp8859
tp8860
Rp8861
sg8
I00
sg9
g8857
ssS'pseudocoelomates'
p8862
(dp8863
g3
g4
((lp8864
tp8865
Rp8866
sg8
I00
sg9
g8862
ssS'antiorganization'
p8867
(dp8868
g3
g4
((lp8869
tp8870
Rp8871
sg8
I00
sg9
g8867
ssS'professionalisms'
p8872
(dp8873
g3
g4
((lp8874
tp8875
Rp8876
sg8
I00
sg9
g8872
ssS'counterinflation'
p8877
(dp8878
g3
g4
((lp8879
tp8880
Rp8881
sg8
I00
sg9
g8877
ssS'multiplicatively'
p8882
(dp8883
g3
g4
((lp8884
tp8885
Rp8886
sg8
I00
sg9
g8882
ssS'misrecollections'
p8887
(dp8888
g3
g4
((lp8889
tp8890
Rp8891
sg8
I00
sg9
g8887
ssS'schoolmistresses'
p8892
(dp8893
g3
g4
((lp8894
tp8895
Rp8896
sg8
I00
sg9
g8892
ssS'serviceabilities'
p8897
(dp8898
g3
g4
((lp8899
tp8900
Rp8901
sg8
I00
sg9
g8897
ssS'prussianizations'
p8902
(dp8903
g3
g4
((lp8904
tp8905
Rp8906
sg8
I00
sg9
g8902
ssS'redeterminations'
p8907
(dp8908
g3
g4
((lp8909
tp8910
Rp8911
sg8
I00
sg9
g8907
ssS'indiscriminately'
p8912
(dp8913
g3
g4
((lp8914
tp8915
Rp8916
sg8
I00
sg9
g8912
ssS'hexachloroethane'
p8917
(dp8918
g3
g4
((lp8919
tp8920
Rp8921
sg8
I00
sg9
g8917
ssS'longheadednesses'
p8922
(dp8923
g3
g4
((lp8924
tp8925
Rp8926
sg8
I00
sg9
g8922
ssS'chloramphenicols'
p8927
(dp8928
g3
g4
((lp8929
tp8930
Rp8931
sg8
I00
sg9
g8927
ssS'countertradition'
p8932
(dp8933
g3
g4
((lp8934
tp8935
Rp8936
sg8
I00
sg9
g8932
ssS'sensationalistic'
p8937
(dp8938
g3
g4
((lp8939
tp8940
Rp8941
sg8
I00
sg9
g8937
ssS'periodontologies'
p8942
(dp8943
g3
g4
((lp8944
tp8945
Rp8946
sg8
I00
sg9
g8942
ssS'journalistically'
p8947
(dp8948
g3
g4
((lp8949
tp8950
Rp8951
sg8
I00
sg9
g8947
ssS'attractivenesses'
p8952
(dp8953
g3
g4
((lp8954
tp8955
Rp8956
sg8
I00
sg9
g8952
ssS'quantificational'
p8957
(dp8958
g3
g4
((lp8959
tp8960
Rp8961
sg8
I00
sg9
g8957
ssg6308
(dp8962
g3
g4
((lp8963
g6305
atp8964
Rp8965
sg8
I00
sg9
g6308
ssS'prestidigitation'
p8966
(dp8967
g3
g4
((lp8968
tp8969
Rp8970
sg8
I00
sg9
g8966
ssS'inseparabilities'
p8971
(dp8972
g3
g4
((lp8973
tp8974
Rp8975
sg8
I00
sg9
g8971
ssS'paleopathologies'
p8976
(dp8977
g3
g4
((lp8978
tp8979
Rp8980
sg8
I00
sg9
g8976
ssS'thoughtfulnesses'
p8981
(dp8982
g3
g4
((lp8983
tp8984
Rp8985
sg8
I00
sg9
g8981
ssS'encyclopedically'
p8986
(dp8987
g3
g4
((lp8988
tp8989
Rp8990
sg8
I00
sg9
g8986
ssS'insensiblenesses'
p8991
(dp8992
g3
g4
((lp8993
tp8994
Rp8995
sg8
I00
sg9
g8991
ssg2333
(dp8996
g3
g4
((lp8997
g2330
atp8998
Rp8999
sg8
I00
sg9
g2333
ssS'prognostications'
p9000
(dp9001
g3
g4
((lp9002
tp9003
Rp9004
sg8
I00
sg9
g9000
ssS'fastidiousnesses'
p9005
(dp9006
g3
g4
((lp9007
tp9008
Rp9009
sg8
I00
sg9
g9005
ssS'reinterpretation'
p9010
(dp9011
g3
g4
((lp9012
tp9013
Rp9014
sg8
I00
sg9
g9010
ssS'gastroenterology'
p9015
(dp9016
g3
g4
((lp9017
tp9018
Rp9019
sg8
I00
sg9
g9015
ssS'gluttonousnesses'
p9020
(dp9021
g3
g4
((lp9022
tp9023
Rp9024
sg8
I00
sg9
g9020
ssS'conspiratorially'
p9025
(dp9026
g3
g4
((lp9027
tp9028
Rp9029
sg8
I00
sg9
g9025
ssS'anthropomorphism'
p9030
(dp9031
g3
g4
((lp9032
S'anthropomorphist'
p9033
atp9034
Rp9035
sg8
I00
sg9
g9030
ssS'interconnections'
p9036
(dp9037
g3
g4
((lp9038
tp9039
Rp9040
sg8
I00
sg9
g9036
ssS'forethoughtfully'
p9041
(dp9042
g3
g4
((lp9043
tp9044
Rp9045
sg8
I00
sg9
g9041
ssS'transformational'
p9046
(dp9047
g3
g4
((lp9048
tp9049
Rp9050
sg8
I00
sg9
g9046
ssg9033
(dp9051
g3
g4
((lp9052
g9030
atp9053
Rp9054
sg8
I00
sg9
g9033
ssS'chromatographies'
p9055
(dp9056
g3
g4
((lp9057
tp9058
Rp9059
sg8
I00
sg9
g9055
ssS'photosensitizers'
p9060
(dp9061
g3
g4
((lp9062
tp9063
Rp9064
sg8
I00
sg9
g9060
ssS'megacorporations'
p9065
(dp9066
g3
g4
((lp9067
tp9068
Rp9069
sg8
I00
sg9
g9065
ssS'nonarbitrariness'
p9070
(dp9071
g3
g4
((lp9072
tp9073
Rp9074
sg8
I00
sg9
g9070
ssS'villainousnesses'
p9075
(dp9076
g3
g4
((lp9077
tp9078
Rp9079
sg8
I00
sg9
g9075
ssS'neurophysiologic'
p9080
(dp9081
g3
g4
((lp9082
tp9083
Rp9084
sg8
I00
sg9
g9080
ssS'catastrophically'
p9085
(dp9086
g3
g4
((lp9087
tp9088
Rp9089
sg8
I00
sg9
g9085
ssS'parasympathetics'
p9090
(dp9091
g3
g4
((lp9092
tp9093
Rp9094
sg8
I00
sg9
g9090
ssg5553
(dp9095
g3
g4
((lp9096
g5550
atp9097
Rp9098
sg8
I00
sg9
g5553
ssS'shamefacednesses'
p9099
(dp9100
g3
g4
((lp9101
tp9102
Rp9103
sg8
I00
sg9
g9099
ssS'intervisitations'
p9104
(dp9105
g3
g4
((lp9106
tp9107
Rp9108
sg8
I00
sg9
g9104
ssS'ecophysiological'
p9109
(dp9110
g3
g4
((lp9111
tp9112
Rp9113
sg8
I00
sg9
g9109
ssg7545
(dp9114
g3
g4
((lp9115
g7542
atp9116
Rp9117
sg8
I00
sg9
g7545
ssS'disputatiousness'
p9118
(dp9119
g3
g4
((lp9120
tp9121
Rp9122
sg8
I00
sg9
g9118
ssS'paleopathologist'
p9123
(dp9124
g3
g4
((lp9125
tp9126
Rp9127
sg8
I00
sg9
g9123
ssS'ethnographically'
p9128
(dp9129
g3
g4
((lp9130
tp9131
Rp9132
sg8
I00
sg9
g9128
ssS'chemoautotrophic'
p9133
(dp9134
g3
g4
((lp9135
tp9136
Rp9137
sg8
I00
sg9
g9133
ssS'uncompromisingly'
p9138
(dp9139
g3
g4
((lp9140
tp9141
Rp9142
sg8
I00
sg9
g9138
ssS'antiferromagnets'
p9143
(dp9144
g3
g4
((lp9145
tp9146
Rp9147
sg8
I00
sg9
g9143
ssS'overcentralizing'
p9148
(dp9149
g3
g4
((lp9150
tp9151
Rp9152
sg8
I00
sg9
g9148
ssS'dispensabilities'
p9153
(dp9154
g3
g4
((lp9155
tp9156
Rp9157
sg8
I00
sg9
g9153
ssS'thermoregulatory'
p9158
(dp9159
g3
g4
((lp9160
S'thermoregulators'
p9161
atp9162
Rp9163
sg8
I00
sg9
g9158
ssS'multilingualisms'
p9164
(dp9165
g3
g4
((lp9166
tp9167
Rp9168
sg8
I00
sg9
g9164
ssg9161
(dp9169
g3
g4
((lp9170
g9158
atp9171
Rp9172
sg8
I00
sg9
g9161
ssS'chymotrypsinogen'
p9173
(dp9174
g3
g4
((lp9175
tp9176
Rp9177
sg8
I00
sg9
g9173
ssS'nonpsychiatrists'
p9178
(dp9179
g3
g4
((lp9180
tp9181
Rp9182
sg8
I00
sg9
g9178
ssS'irreplaceability'
p9183
(dp9184
g3
g4
((lp9185
tp9186
Rp9187
sg8
I00
sg9
g9183
ssS'extemporaneities'
p9188
(dp9189
g3
g4
((lp9190
tp9191
Rp9192
sg8
I00
sg9
g9188
ssS'noncommunication'
p9193
(dp9194
g3
g4
((lp9195
tp9196
Rp9197
sg8
I00
sg9
g9193
ssS'dissuasivenesses'
p9198
(dp9199
g3
g4
((lp9200
tp9201
Rp9202
sg8
I00
sg9
g9198
ssS'differentiations'
p9203
(dp9204
g3
g4
((lp9205
tp9206
Rp9207
sg8
I00
sg9
g9203
ssS'dissipatednesses'
p9208
(dp9209
g3
g4
((lp9210
tp9211
Rp9212
sg8
I00
sg9
g9208
ssS'susceptibilities'
p9213
(dp9214
g3
g4
((lp9215
tp9216
Rp9217
sg8
I00
sg9
g9213
ssS'overspecializing'
p9218
(dp9219
g3
g4
((lp9220
tp9221
Rp9222
sg8
I00
sg9
g9218
ssS'superparasitisms'
p9223
(dp9224
g3
g4
((lp9225
tp9226
Rp9227
sg8
I00
sg9
g9223
ssS'inconceivability'
p9228
(dp9229
g3
g4
((lp9230
tp9231
Rp9232
sg8
I00
sg9
g9228
ssS'pithecanthropine'
p9233
(dp9234
g3
g4
((lp9235
tp9236
Rp9237
sg8
I00
sg9
g9233
ssS'innovativenesses'
p9238
(dp9239
g3
g4
((lp9240
tp9241
Rp9242
sg8
I00
sg9
g9238
ssS'insubordinations'
p9243
(dp9244
g3
g4
((lp9245
tp9246
Rp9247
sg8
I00
sg9
g9243
ssS'uncharacteristic'
p9248
(dp9249
g3
g4
((lp9250
tp9251
Rp9252
sg8
I00
sg9
g9248
ssS'compartmentation'
p9253
(dp9254
g3
g4
((lp9255
tp9256
Rp9257
sg8
I00
sg9
g9253
ssS'sacrilegiousness'
p9258
(dp9259
g3
g4
((lp9260
tp9261
Rp9262
sg8
I00
sg9
g9258
ssS'antiracketeering'
p9263
(dp9264
g3
g4
((lp9265
tp9266
Rp9267
sg8
I00
sg9
g9263
ssS'ultraparadoxical'
p9268
(dp9269
g3
g4
((lp9270
tp9271
Rp9272
sg8
I00
sg9
g9268
ssS'supersaturations'
p9273
(dp9274
g3
g4
((lp9275
tp9276
Rp9277
sg8
I00
sg9
g9273
ssg3956
(dp9278
g3
g4
((lp9279
g3953
atp9280
Rp9281
sg8
I00
sg9
g3956
ssS'periphrastically'
p9282
(dp9283
g3
g4
((lp9284
tp9285
Rp9286
sg8
I00
sg9
g9282
ssS'falsifiabilities'
p9287
(dp9288
g3
g4
((lp9289
tp9290
Rp9291
sg8
I00
sg9
g9287
ssS'disdainfulnesses'
p9292
(dp9293
g3
g4
((lp9294
tp9295
Rp9296
sg8
I00
sg9
g9292
ssS'lightheartedness'
p9297
(dp9298
g3
g4
((lp9299
tp9300
Rp9301
sg8
I00
sg9
g9297
ssS'arteriosclerotic'
p9302
(dp9303
g3
g4
((lp9304
tp9305
Rp9306
sg8
I00
sg9
g9302
ssS'multidirectional'
p9307
(dp9308
g3
g4
((lp9309
tp9310
Rp9311
sg8
I00
sg9
g9307
ssS'chordamesodermal'
p9312
(dp9313
g3
g4
((lp9314
tp9315
Rp9316
sg8
I00
sg9
g9312
ssS'quarterfinalists'
p9317
(dp9318
g3
g4
((lp9319
tp9320
Rp9321
sg8
I00
sg9
g9317
ssS'endocrinological'
p9322
(dp9323
g3
g4
((lp9324
tp9325
Rp9326
sg8
I00
sg9
g9322
ssS'superhumannesses'
p9327
(dp9328
g3
g4
((lp9329
tp9330
Rp9331
sg8
I00
sg9
g9327
ssg5794
(dp9332
g3
g4
((lp9333
g5791
atp9334
Rp9335
sg8
I00
sg9
g5794
ssS'successfulnesses'
p9336
(dp9337
g3
g4
((lp9338
tp9339
Rp9340
sg8
I00
sg9
g9336
ssS'overcultivations'
p9341
(dp9342
g3
g4
((lp9343
tp9344
Rp9345
sg8
I00
sg9
g9341
ssS'figurativenesses'
p9346
(dp9347
g3
g4
((lp9348
tp9349
Rp9350
sg8
I00
sg9
g9346
ssS'uproariousnesses'
p9351
(dp9352
g3
g4
((lp9353
tp9354
Rp9355
sg8
I00
sg9
g9351
ssS'sufferablenesses'
p9356
(dp9357
g3
g4
((lp9358
tp9359
Rp9360
sg8
I00
sg9
g9356
ssS'permissibilities'
p9361
(dp9362
g3
g4
((lp9363
tp9364
Rp9365
sg8
I00
sg9
g9361
ssS'editorialization'
p9366
(dp9367
g3
g4
((lp9368
tp9369
Rp9370
sg8
I00
sg9
g9366
ssS'assaultivenesses'
p9371
(dp9372
g3
g4
((lp9373
tp9374
Rp9375
sg8
I00
sg9
g9371
ssS'chlordiazepoxide'
p9376
(dp9377
g3
g4
((lp9378
tp9379
Rp9380
sg8
I00
sg9
g9376
ssS'protectivenesses'
p9381
(dp9382
g3
g4
((lp9383
tp9384
Rp9385
sg8
I00
sg9
g9381
ssS'incrediblenesses'
p9386
(dp9387
g3
g4
((lp9388
tp9389
Rp9390
sg8
I00
sg9
g9386
ssS'coordinatenesses'
p9391
(dp9392
g3
g4
((lp9393
tp9394
Rp9395
sg8
I00
sg9
g9391
ssS'circumnavigation'
p9396
(dp9397
g3
g4
((lp9398
tp9399
Rp9400
sg8
I00
sg9
g9396
ssS'cumulativenesses'
p9401
(dp9402
g3
g4
((lp9403
tp9404
Rp9405
sg8
I00
sg9
g9401
ssS'nonbibliographic'
p9406
(dp9407
g3
g4
((lp9408
tp9409
Rp9410
sg8
I00
sg9
g9406
ssS'postresurrection'
p9411
(dp9412
g3
g4
((lp9413
tp9414
Rp9415
sg8
I00
sg9
g9411
ssS'bewilderednesses'
p9416
(dp9417
g3
g4
((lp9418
tp9419
Rp9420
sg8
I00
sg9
g9416
ssS'photosensitizing'
p9421
(dp9422
g3
g4
((lp9423
tp9424
Rp9425
sg8
I00
sg9
g9421
ssS'shortsightedness'
p9426
(dp9427
g3
g4
((lp9428
tp9429
Rp9430
sg8
I00
sg9
g9426
ssS'copolymerization'
p9431
(dp9432
g3
g4
((lp9433
tp9434
Rp9435
sg8
I00
sg9
g9431
ssS'knowledgeability'
p9436
(dp9437
g3
g4
((lp9438
tp9439
Rp9440
sg8
I00
sg9
g9436
ssS'insatiablenesses'
p9441
(dp9442
g3
g4
((lp9443
tp9444
Rp9445
sg8
I00
sg9
g9441
ssS'inflammabilities'
p9446
(dp9447
g3
g4
((lp9448
tp9449
Rp9450
sg8
I00
sg9
g9446
ssS'enantiomorphisms'
p9451
(dp9452
g3
g4
((lp9453
tp9454
Rp9455
sg8
I00
sg9
g9451
ssS'discriminability'
p9456
(dp9457
g3
g4
((lp9458
tp9459
Rp9460
sg8
I00
sg9
g9456
ssS'nonphilosophical'
p9461
(dp9462
g3
g4
((lp9463
tp9464
Rp9465
sg8
I00
sg9
g9461
ssS'stadtholderships'
p9466
(dp9467
g3
g4
((lp9468
tp9469
Rp9470
sg8
I00
sg9
g9466
ssS'forebodingnesses'
p9471
(dp9472
g3
g4
((lp9473
tp9474
Rp9475
sg8
I00
sg9
g9471
ssS'introspectionism'
p9476
(dp9477
g3
g4
((lp9478
S'introspectionist'
p9479
atp9480
Rp9481
sg8
I00
sg9
g9476
ssS'contemptibleness'
p9482
(dp9483
g3
g4
((lp9484
tp9485
Rp9486
sg8
I00
sg9
g9482
ssS'chronobiologists'
p9487
(dp9488
g3
g4
((lp9489
tp9490
Rp9491
sg8
I00
sg9
g9487
ssS'communitarianism'
p9492
(dp9493
g3
g4
((lp9494
tp9495
Rp9496
sg8
I00
sg9
g9492
ssS'reestablishments'
p9497
(dp9498
g3
g4
((lp9499
tp9500
Rp9501
sg8
I00
sg9
g9497
ssS'rampageousnesses'
p9502
(dp9503
g3
g4
((lp9504
tp9505
Rp9506
sg8
I00
sg9
g9502
ssS'intellectualness'
p9507
(dp9508
g3
g4
((lp9509
tp9510
Rp9511
sg8
I00
sg9
g9507
ssg9479
(dp9512
g3
g4
((lp9513
g9476
atp9514
Rp9515
sg8
I00
sg9
g9479
ssS'idolatrousnesses'
p9516
(dp9517
g3
g4
((lp9518
tp9519
Rp9520
sg8
I00
sg9
g9516
ssS'bigheartednesses'
p9521
(dp9522
g3
g4
((lp9523
tp9524
Rp9525
sg8
I00
sg9
g9521
ssS'revengefulnesses'
p9526
(dp9527
g3
g4
((lp9528
tp9529
Rp9530
sg8
I00
sg9
g9526
ssg7367
(dp9531
g3
g4
((lp9532
g7364
atp9533
Rp9534
sg8
I00
sg9
g7367
ssg4977
(dp9535
g3
g4
((lp9536
g4974
atp9537
Rp9538
sg8
I00
sg9
g4977
ssS'irremovabilities'
p9539
(dp9540
g3
g4
((lp9541
tp9542
Rp9543
sg8
I00
sg9
g9539
ssS'semidomesticated'
p9544
(dp9545
g3
g4
((lp9546
tp9547
Rp9548
sg8
I00
sg9
g9544
ssS'aristocratically'
p9549
(dp9550
g3
g4
((lp9551
tp9552
Rp9553
sg8
I00
sg9
g9549
ssS'multiculturalism'
p9554
(dp9555
g3
g4
((lp9556
tp9557
Rp9558
sg8
I00
sg9
g9554
ssS'intermolecularly'
p9559
(dp9560
g3
g4
((lp9561
tp9562
Rp9563
sg8
I00
sg9
g9559
ssS'microearthquakes'
p9564
(dp9565
g3
g4
((lp9566
tp9567
Rp9568
sg8
I00
sg9
g9564
ssS'vasoconstrictors'
p9569
(dp9570
g3
g4
((lp9571
tp9572
Rp9573
sg8
I00
sg9
g9569
ssS'advantageousness'
p9574
(dp9575
g3
g4
((lp9576
tp9577
Rp9578
sg8
I00
sg9
g9574
ssg640
(dp9579
g3
g4
((lp9580
g637
atp9581
Rp9582
sg8
I00
sg9
g640
ssS'paleoclimatology'
p9583
(dp9584
g3
g4
((lp9585
tp9586
Rp9587
sg8
I00
sg9
g9583
ssS'interminableness'
p9588
(dp9589
g3
g4
((lp9590
tp9591
Rp9592
sg8
I00
sg9
g9588
ssS'neoconservatives'
p9593
(dp9594
g3
g4
((lp9595
tp9596
Rp9597
sg8
I00
sg9
g9593
ssS'mechanoreceptors'
p9598
(dp9599
g3
g4
((lp9600
tp9601
Rp9602
sg8
I00
sg9
g9598
ssS'decorativenesses'
p9603
(dp9604
g3
g4
((lp9605
tp9606
Rp9607
sg8
I00
sg9
g9603
ssS'disproportioning'
p9608
(dp9609
g3
g4
((lp9610
tp9611
Rp9612
sg8
I00
sg9
g9608
ssS'transmissivities'
p9613
(dp9614
g3
g4
((lp9615
tp9616
Rp9617
sg8
I00
sg9
g9613
ssS'undesirabilities'
p9618
(dp9619
g3
g4
((lp9620
tp9621
Rp9622
sg8
I00
sg9
g9618
ssS'choriocarcinomas'
p9623
(dp9624
g3
g4
((lp9625
tp9626
Rp9627
sg8
I00
sg9
g9623
ssS'possessivenesses'
p9628
(dp9629
g3
g4
((lp9630
tp9631
Rp9632
sg8
I00
sg9
g9628
ssS'postexperimental'
p9633
(dp9634
g3
g4
((lp9635
tp9636
Rp9637
sg8
I00
sg9
g9633
ssS'hexylresorcinols'
p9638
(dp9639
g3
g4
((lp9640
tp9641
Rp9642
sg8
I00
sg9
g9638
ssS'thermoremanences'
p9643
(dp9644
g3
g4
((lp9645
tp9646
Rp9647
sg8
I00
sg9
g9643
ssS'counterguerillas'
p9648
(dp9649
g3
g4
((lp9650
tp9651
Rp9652
sg8
I00
sg9
g9648
ssS'indistinctnesses'
p9653
(dp9654
g3
g4
((lp9655
tp9656
Rp9657
sg8
I00
sg9
g9653
ssS'electrotherapies'
p9658
(dp9659
g3
g4
((lp9660
tp9661
Rp9662
sg8
I00
sg9
g9658
ssg2215
(dp9663
g3
g4
((lp9664
g2212
atp9665
Rp9666
sg8
I00
sg9
g2215
ssg341
(dp9667
g3
g4
((lp9668
g338
atp9669
Rp9670
sg8
I00
sg9
g341
ssS'interdigitations'
p9671
(dp9672
g3
g4
((lp9673
tp9674
Rp9675
sg8
I00
sg9
g9671
ssS'greatheartedness'
p9676
(dp9677
g3
g4
((lp9678
tp9679
Rp9680
sg8
I00
sg9
g9676
ssS'inconsolableness'
p9681
(dp9682
g3
g4
((lp9683
tp9684
Rp9685
sg8
I00
sg9
g9681
ssS'microelectronics'
p9686
(dp9687
g3
g4
((lp9688
tp9689
Rp9690
sg8
I00
sg9
g9686
ssS'inalienabilities'
p9691
(dp9692
g3
g4
((lp9693
tp9694
Rp9695
sg8
I00
sg9
g9691
ssS'misconstructions'
p9696
(dp9697
g3
g4
((lp9698
tp9699
Rp9700
sg8
I00
sg9
g9696
ssS'noninstitutional'
p9701
(dp9702
g3
g4
((lp9703
tp9704
Rp9705
sg8
I00
sg9
g9701
ssS'indubitabilities'
p9706
(dp9707
g3
g4
((lp9708
tp9709
Rp9710
sg8
I00
sg9
g9706
ssg2035
(dp9711
g3
g4
((lp9712
g2032
atp9713
Rp9714
sg8
I00
sg9
g2035
ssS'multiprogramming'
p9715
(dp9716
g3
g4
((lp9717
tp9718
Rp9719
sg8
I00
sg9
g9715
ss.