(dp0
S'contemporaneously'
p1
(dp2
S'neighbors'
p3
c__builtin__
set
p4
((lp5
tp6
Rp7
sS'visited'
p8
I00
sS'word'
p9
g1
ssS'australopithecine'
p10
(dp11
g3
g4
((lp12
tp13
Rp14
sg8
I00
sg9
g10
ssS'institutionalised'
p15
(dp16
g3
g4
((lp17
S'institutionalises'
p18
aS'institutionalized'
p19
atp20
Rp21
sg8
I00
sg9
g15
ssS'antidesegregation'
p22
(dp23
g3
g4
((lp24
tp25
Rp26
sg8
I00
sg9
g22
ssS'neurofibromatosis'
p27
(dp28
g3
g4
((lp29
S'neurofibromatoses'
p30
atp31
Rp32
sg8
I00
sg9
g27
ssS'demineralizations'
p33
(dp34
g3
g4
((lp35
tp36
Rp37
sg8
I00
sg9
g33
ssS'departmentalizing'
p38
(dp39
g3
g4
((lp40
tp41
Rp42
sg8
I00
sg9
g38
ssS'paleomagnetically'
p43
(dp44
g3
g4
((lp45
tp46
Rp47
sg8
I00
sg9
g43
ssS'electroanalytical'
p48
(dp49
g3
g4
((lp50
tp51
Rp52
sg8
I00
sg9
g48
ssg18
(dp53
g3
g4
((lp54
S'institutionalisms'
p55
aS'institutionalists'
p56
aS'institutionalizes'
p57
ag15
atp58
Rp59
sg8
I00
sg9
g18
ssS'electrophysiology'
p60
(dp61
g3
g4
((lp62
tp63
Rp64
sg8
I00
sg9
g60
ssS'allegoricalnesses'
p65
(dp66
g3
g4
((lp67
tp68
Rp69
sg8
I00
sg9
g65
ssS'complementariness'
p70
(dp71
g3
g4
((lp72
tp73
Rp74
sg8
I00
sg9
g70
ssS'transnationalisms'
p75
(dp76
g3
g4
((lp77
tp78
Rp79
sg8
I00
sg9
g75
ssS'cryptocrystalline'
p80
(dp81
g3
g4
((lp82
tp83
Rp84
sg8
I00
sg9
g80
ssS'macroglobulinemic'
p85
(dp86
g3
g4
((lp87
S'macroglobulinemia'
p88
atp89
Rp90
sg8
I00
sg9
g85
ssS'melodramatization'
p91
(dp92
g3
g4
((lp93
tp94
Rp95
sg8
I00
sg9
g91
ssS'promiscuousnesses'
p96
(dp97
g3
g4
((lp98
tp99
Rp100
sg8
I00
sg9
g96
ssS'stereomicroscopic'
p101
(dp102
g3
g4
((lp103
tp104
Rp105
sg8
I00
sg9
g101
ssS'microbiologically'
p106
(dp107
g3
g4
((lp108
tp109
Rp110
sg8
I00
sg9
g106
ssS'dialectologically'
p111
(dp112
g3
g4
((lp113
tp114
Rp115
sg8
I00
sg9
g111
ssS'inattentivenesses'
p116
(dp117
g3
g4
((lp118
tp119
Rp120
sg8
I00
sg9
g116
ssS'pancreatectomized'
p121
(dp122
g3
g4
((lp123
tp124
Rp125
sg8
I00
sg9
g121
ssS'superspeculations'
p126
(dp127
g3
g4
((lp128
tp129
Rp130
sg8
I00
sg9
g126
ssS'chemoprophylactic'
p131
(dp132
g3
g4
((lp133
tp134
Rp135
sg8
I00
sg9
g131
ssS'zoogeographically'
p136
(dp137
g3
g4
((lp138
tp139
Rp140
sg8
I00
sg9
g136
ssS'discombobulations'
p141
(dp142
g3
g4
((lp143
tp144
Rp145
sg8
I00
sg9
g141
ssS'neuropsychologist'
p146
(dp147
g3
g4
((lp148
tp149
Rp150
sg8
I00
sg9
g146
ssS'microsporogeneses'
p151
(dp152
g3
g4
((lp153
S'microsporogenesis'
p154
atp155
Rp156
sg8
I00
sg9
g151
ssS'comfortablenesses'
p157
(dp158
g3
g4
((lp159
tp160
Rp161
sg8
I00
sg9
g157
ssS'kindheartednesses'
p162
(dp163
g3
g4
((lp164
tp165
Rp166
sg8
I00
sg9
g162
ssS'unpretentiousness'
p167
(dp168
g3
g4
((lp169
tp170
Rp171
sg8
I00
sg9
g167
ssS'hyperirritability'
p172
(dp173
g3
g4
((lp174
tp175
Rp176
sg8
I00
sg9
g172
ssS'hypochondriacally'
p177
(dp178
g3
g4
((lp179
tp180
Rp181
sg8
I00
sg9
g177
ssS'schizophrenically'
p182
(dp183
g3
g4
((lp184
tp185
Rp186
sg8
I00
sg9
g182
ssS'allotetraploidies'
p187
(dp188
g3
g4
((lp189
tp190
Rp191
sg8
I00
sg9
g187
ssS'inexhaustibleness'
p192
(dp193
g3
g4
((lp194
tp195
Rp196
sg8
I00
sg9
g192
ssS'approachabilities'
p197
(dp198
g3
g4
((lp199
tp200
Rp201
sg8
I00
sg9
g197
ssS'internationalises'
p202
(dp203
g3
g4
((lp204
S'internationalisms'
p205
aS'internationalists'
p206
aS'internationalizes'
p207
aS'internationalised'
p208
atp209
Rp210
sg8
I00
sg9
g202
ssS'countertraditions'
p211
(dp212
g3
g4
((lp213
tp214
Rp215
sg8
I00
sg9
g211
ssS'hyperventilations'
p216
(dp217
g3
g4
((lp218
tp219
Rp220
sg8
I00
sg9
g216
ssS'uncomprehendingly'
p221
(dp222
g3
g4
((lp223
tp224
Rp225
sg8
I00
sg9
g221
ssS'inheritablenesses'
p226
(dp227
g3
g4
((lp228
tp229
Rp230
sg8
I00
sg9
g226
ssS'misinterpretation'
p231
(dp232
g3
g4
((lp233
tp234
Rp235
sg8
I00
sg9
g231
ssS'gynandromorphisms'
p236
(dp237
g3
g4
((lp238
tp239
Rp240
sg8
I00
sg9
g236
ssS'paleogeographical'
p241
(dp242
g3
g4
((lp243
tp244
Rp245
sg8
I00
sg9
g241
ssS'macroevolutionary'
p246
(dp247
g3
g4
((lp248
S'microevolutionary'
p249
atp250
Rp251
sg8
I00
sg9
g246
ssS'nullificationists'
p252
(dp253
g3
g4
((lp254
tp255
Rp256
sg8
I00
sg9
g252
ssS'ultraconservative'
p257
(dp258
g3
g4
((lp259
tp260
Rp261
sg8
I00
sg9
g257
ssS'irrefragabilities'
p262
(dp263
g3
g4
((lp264
tp265
Rp266
sg8
I00
sg9
g262
ssS'redistributionist'
p267
(dp268
g3
g4
((lp269
tp270
Rp271
sg8
I00
sg9
g267
ssS'echocardiographer'
p272
(dp273
g3
g4
((lp274
tp275
Rp276
sg8
I00
sg9
g272
ssS'oceanographically'
p277
(dp278
g3
g4
((lp279
tp280
Rp281
sg8
I00
sg9
g277
ssS'immunoregulations'
p282
(dp283
g3
g4
((lp284
tp285
Rp286
sg8
I00
sg9
g282
ssS'counterquestioned'
p287
(dp288
g3
g4
((lp289
tp290
Rp291
sg8
I00
sg9
g287
ssS'inextricabilities'
p292
(dp293
g3
g4
((lp294
tp295
Rp296
sg8
I00
sg9
g292
ssg208
(dp297
g3
g4
((lp298
g202
aS'internationalized'
p299
atp300
Rp301
sg8
I00
sg9
g208
ssS'meritoriousnesses'
p302
(dp303
g3
g4
((lp304
tp305
Rp306
sg8
I00
sg9
g302
ssS'overindustrialize'
p307
(dp308
g3
g4
((lp309
tp310
Rp311
sg8
I00
sg9
g307
ssS'overembellishment'
p312
(dp313
g3
g4
((lp314
tp315
Rp316
sg8
I00
sg9
g312
ssS'unassailabilities'
p317
(dp318
g3
g4
((lp319
tp320
Rp321
sg8
I00
sg9
g317
ssS'subcategorization'
p322
(dp323
g3
g4
((lp324
tp325
Rp326
sg8
I00
sg9
g322
ssS'autocatalytically'
p327
(dp328
g3
g4
((lp329
tp330
Rp331
sg8
I00
sg9
g327
ssS'immunosuppressant'
p332
(dp333
g3
g4
((lp334
tp335
Rp336
sg8
I00
sg9
g332
ssS'nonindustrialized'
p337
(dp338
g3
g4
((lp339
tp340
Rp341
sg8
I00
sg9
g337
ssS'unsophistications'
p342
(dp343
g3
g4
((lp344
tp345
Rp346
sg8
I00
sg9
g342
ssS'antihumanitarians'
p347
(dp348
g3
g4
((lp349
tp350
Rp351
sg8
I00
sg9
g347
ssS'deleteriousnesses'
p352
(dp353
g3
g4
((lp354
tp355
Rp356
sg8
I00
sg9
g352
ssS'industrialization'
p357
(dp358
g3
g4
((lp359
tp360
Rp361
sg8
I00
sg9
g357
ssS'microprogrammings'
p362
(dp363
g3
g4
((lp364
tp365
Rp366
sg8
I00
sg9
g362
ssS'atrabiliousnesses'
p367
(dp368
g3
g4
((lp369
tp370
Rp371
sg8
I00
sg9
g367
ssS'lexicographically'
p372
(dp373
g3
g4
((lp374
tp375
Rp376
sg8
I00
sg9
g372
ssS'inflammablenesses'
p377
(dp378
g3
g4
((lp379
tp380
Rp381
sg8
I00
sg9
g377
ssS'dedifferentiating'
p382
(dp383
g3
g4
((lp384
tp385
Rp386
sg8
I00
sg9
g382
ssS'neurophysiologist'
p387
(dp388
g3
g4
((lp389
tp390
Rp391
sg8
I00
sg9
g387
ssS'exhaustlessnesses'
p392
(dp393
g3
g4
((lp394
tp395
Rp396
sg8
I00
sg9
g392
ssS'nationalistically'
p397
(dp398
g3
g4
((lp399
S'rationalistically'
p400
atp401
Rp402
sg8
I00
sg9
g397
ssS'tenderheartedness'
p403
(dp404
g3
g4
((lp405
tp406
Rp407
sg8
I00
sg9
g403
ssS'nonsuperimposable'
p408
(dp409
g3
g4
((lp410
tp411
Rp412
sg8
I00
sg9
g408
ssS'pentylenetetrazol'
p413
(dp414
g3
g4
((lp415
tp416
Rp417
sg8
I00
sg9
g413
ssS'superintelligence'
p418
(dp419
g3
g4
((lp420
tp421
Rp422
sg8
I00
sg9
g418
ssS'psycholinguistics'
p423
(dp424
g3
g4
((lp425
tp426
Rp427
sg8
I00
sg9
g423
ssS'nonestablishments'
p428
(dp429
g3
g4
((lp430
tp431
Rp432
sg8
I00
sg9
g428
ssS'inopportunenesses'
p433
(dp434
g3
g4
((lp435
tp436
Rp437
sg8
I00
sg9
g433
ssS'spectroheliograph'
p438
(dp439
g3
g4
((lp440
tp441
Rp442
sg8
I00
sg9
g438
ssS'distractibilities'
p443
(dp444
g3
g4
((lp445
tp446
Rp447
sg8
I00
sg9
g443
ssS'openheartednesses'
p448
(dp449
g3
g4
((lp450
tp451
Rp452
sg8
I00
sg9
g448
ssS'oversophisticated'
p453
(dp454
g3
g4
((lp455
tp456
Rp457
sg8
I00
sg9
g453
ssS'photoduplications'
p458
(dp459
g3
g4
((lp460
tp461
Rp462
sg8
I00
sg9
g458
ssS'hyperexcitability'
p463
(dp464
g3
g4
((lp465
tp466
Rp467
sg8
I00
sg9
g463
ssg88
(dp468
g3
g4
((lp469
g85
atp470
Rp471
sg8
I00
sg9
g88
ssS'photosynthesizing'
p472
(dp473
g3
g4
((lp474
tp475
Rp476
sg8
I00
sg9
g472
ssS'deoxyribonuclease'
p477
(dp478
g3
g4
((lp479
tp480
Rp481
sg8
I00
sg9
g477
ssS'counterculturists'
p482
(dp483
g3
g4
((lp484
tp485
Rp486
sg8
I00
sg9
g482
ssS'particularization'
p487
(dp488
g3
g4
((lp489
tp490
Rp491
sg8
I00
sg9
g487
ssS'overexaggerations'
p492
(dp493
g3
g4
((lp494
tp495
Rp496
sg8
I00
sg9
g492
ssS'indubitablenesses'
p497
(dp498
g3
g4
((lp499
tp500
Rp501
sg8
I00
sg9
g497
ssS'transcriptionists'
p502
(dp503
g3
g4
((lp504
tp505
Rp506
sg8
I00
sg9
g502
ssS'macroinstructions'
p507
(dp508
g3
g4
((lp509
S'microinstructions'
p510
atp511
Rp512
sg8
I00
sg9
g507
ssS'hyperdevelopments'
p513
(dp514
g3
g4
((lp515
tp516
Rp517
sg8
I00
sg9
g513
ssS'intercorrelations'
p518
(dp519
g3
g4
((lp520
tp521
Rp522
sg8
I00
sg9
g518
ssS'unemployabilities'
p523
(dp524
g3
g4
((lp525
tp526
Rp527
sg8
I00
sg9
g523
ssS'histopathologists'
p528
(dp529
g3
g4
((lp530
tp531
Rp532
sg8
I00
sg9
g528
ssS'rudimentarinesses'
p533
(dp534
g3
g4
((lp535
tp536
Rp537
sg8
I00
sg9
g533
ssS'nonbiodegradables'
p538
(dp539
g3
g4
((lp540
tp541
Rp542
sg8
I00
sg9
g538
ssS'postresurrections'
p543
(dp544
g3
g4
((lp545
tp546
Rp547
sg8
I00
sg9
g543
ssS'semiautomatically'
p548
(dp549
g3
g4
((lp550
tp551
Rp552
sg8
I00
sg9
g548
ssS'consecutivenesses'
p553
(dp554
g3
g4
((lp555
tp556
Rp557
sg8
I00
sg9
g553
ssS'thrombocytopenias'
p558
(dp559
g3
g4
((lp560
tp561
Rp562
sg8
I00
sg9
g558
ssS'phototypesettings'
p563
(dp564
g3
g4
((lp565
tp566
Rp567
sg8
I00
sg9
g563
ssS'environmentalisms'
p568
(dp569
g3
g4
((lp570
S'environmentalists'
p571
atp572
Rp573
sg8
I00
sg9
g568
ssS'perspicaciousness'
p574
(dp575
g3
g4
((lp576
tp577
Rp578
sg8
I00
sg9
g574
ssS'socioeconomically'
p579
(dp580
g3
g4
((lp581
tp582
Rp583
sg8
I00
sg9
g579
ssS'oversensitiveness'
p584
(dp585
g3
g4
((lp586
tp587
Rp588
sg8
I00
sg9
g584
ssS'idiosyncratically'
p589
(dp590
g3
g4
((lp591
tp592
Rp593
sg8
I00
sg9
g589
ssS'domineeringnesses'
p594
(dp595
g3
g4
((lp596
tp597
Rp598
sg8
I00
sg9
g594
ssS'inconceivableness'
p599
(dp600
g3
g4
((lp601
tp602
Rp603
sg8
I00
sg9
g599
ssS'dictatorialnesses'
p604
(dp605
g3
g4
((lp606
tp607
Rp608
sg8
I00
sg9
g604
ssS'antiorganizations'
p609
(dp610
g3
g4
((lp611
tp612
Rp613
sg8
I00
sg9
g609
ssS'commonplacenesses'
p614
(dp615
g3
g4
((lp616
tp617
Rp618
sg8
I00
sg9
g614
ssS'chemiluminescence'
p619
(dp620
g3
g4
((lp621
tp622
Rp623
sg8
I00
sg9
g619
ssS'ceremoniousnesses'
p624
(dp625
g3
g4
((lp626
tp627
Rp628
sg8
I00
sg9
g624
ssS'unclimbablenesses'
p629
(dp630
g3
g4
((lp631
tp632
Rp633
sg8
I00
sg9
g629
ssS'pentachlorophenol'
p634
(dp635
g3
g4
((lp636
tp637
Rp638
sg8
I00
sg9
g634
ssS'overconcentration'
p639
(dp640
g3
g4
((lp641
tp642
Rp643
sg8
I00
sg9
g639
ssS'neuropharmacology'
p644
(dp645
g3
g4
((lp646
tp647
Rp648
sg8
I00
sg9
g644
ssS'countercommercial'
p649
(dp650
g3
g4
((lp651
tp652
Rp653
sg8
I00
sg9
g649
ssS'nonfraternization'
p654
(dp655
g3
g4
((lp656
tp657
Rp658
sg8
I00
sg9
g654
ssS'reinterpretations'
p659
(dp660
g3
g4
((lp661
tp662
Rp663
sg8
I00
sg9
g659
ssS'ariboflavinosises'
p664
(dp665
g3
g4
((lp666
tp667
Rp668
sg8
I00
sg9
g664
ssS'countergovernment'
p669
(dp670
g3
g4
((lp671
tp672
Rp673
sg8
I00
sg9
g669
ssS'informativenesses'
p674
(dp675
g3
g4
((lp676
tp677
Rp678
sg8
I00
sg9
g674
ssS'dihydroergotamine'
p679
(dp680
g3
g4
((lp681
tp682
Rp683
sg8
I00
sg9
g679
ssS'ultracontemporary'
p684
(dp685
g3
g4
((lp686
tp687
Rp688
sg8
I00
sg9
g684
ssS'adventurousnesses'
p689
(dp690
g3
g4
((lp691
tp692
Rp693
sg8
I00
sg9
g689
ssS'intellectualizing'
p694
(dp695
g3
g4
((lp696
tp697
Rp698
sg8
I00
sg9
g694
ssS'astrophotographer'
p699
(dp700
g3
g4
((lp701
tp702
Rp703
sg8
I00
sg9
g699
ssS'compressibilities'
p704
(dp705
g3
g4
((lp706
tp707
Rp708
sg8
I00
sg9
g704
ssS'trustworthinesses'
p709
(dp710
g3
g4
((lp711
tp712
Rp713
sg8
I00
sg9
g709
ssS'parapsychological'
p714
(dp715
g3
g4
((lp716
tp717
Rp718
sg8
I00
sg9
g714
ssS'interavailability'
p719
(dp720
g3
g4
((lp721
tp722
Rp723
sg8
I00
sg9
g719
ssS'bureaucratization'
p724
(dp725
g3
g4
((lp726
tp727
Rp728
sg8
I00
sg9
g724
ssS'biostratigraphies'
p729
(dp730
g3
g4
((lp731
tp732
Rp733
sg8
I00
sg9
g729
ssS'biotransformation'
p734
(dp735
g3
g4
((lp736
tp737
Rp738
sg8
I00
sg9
g734
ssS'efficaciousnesses'
p739
(dp740
g3
g4
((lp741
tp742
Rp743
sg8
I00
sg9
g739
ssS'anthropomorphisms'
p744
(dp745
g3
g4
((lp746
S'anthropomorphists'
p747
atp748
Rp749
sg8
I00
sg9
g744
ssS'intervisibilities'
p750
(dp751
g3
g4
((lp752
tp753
Rp754
sg8
I00
sg9
g750
ssS'hyperintellectual'
p755
(dp756
g3
g4
((lp757
tp758
Rp759
sg8
I00
sg9
g755
ssS'triskaidekaphobia'
p760
(dp761
g3
g4
((lp762
tp763
Rp764
sg8
I00
sg9
g760
ssS'perfunctorinesses'
p765
(dp766
g3
g4
((lp767
tp768
Rp769
sg8
I00
sg9
g765
ssS'practicablenesses'
p770
(dp771
g3
g4
((lp772
tp773
Rp774
sg8
I00
sg9
g770
ssS'superintendencies'
p775
(dp776
g3
g4
((lp777
tp778
Rp779
sg8
I00
sg9
g775
ssS'implicativenesses'
p780
(dp781
g3
g4
((lp782
tp783
Rp784
sg8
I00
sg9
g780
ssS'directionlessness'
p785
(dp786
g3
g4
((lp787
tp788
Rp789
sg8
I00
sg9
g785
ssS'demythologization'
p790
(dp791
g3
g4
((lp792
tp793
Rp794
sg8
I00
sg9
g790
ssS'unconcernednesses'
p795
(dp796
g3
g4
((lp797
tp798
Rp799
sg8
I00
sg9
g795
ssS'appropriatenesses'
p800
(dp801
g3
g4
((lp802
tp803
Rp804
sg8
I00
sg9
g800
ssS'intemperatenesses'
p805
(dp806
g3
g4
((lp807
tp808
Rp809
sg8
I00
sg9
g805
ssS'controversialists'
p810
(dp811
g3
g4
((lp812
S'controversialisms'
p813
atp814
Rp815
sg8
I00
sg9
g810
ssS'pestiferousnesses'
p816
(dp817
g3
g4
((lp818
tp819
Rp820
sg8
I00
sg9
g816
ssS'biometeorological'
p821
(dp822
g3
g4
((lp823
tp824
Rp825
sg8
I00
sg9
g821
ssS'phosphodiesterase'
p826
(dp827
g3
g4
((lp828
tp829
Rp830
sg8
I00
sg9
g826
ssS'counterdeployment'
p831
(dp832
g3
g4
((lp833
tp834
Rp835
sg8
I00
sg9
g831
ssS'containerisations'
p836
(dp837
g3
g4
((lp838
S'containerizations'
p839
atp840
Rp841
sg8
I00
sg9
g836
ssS'interstimulations'
p842
(dp843
g3
g4
((lp844
tp845
Rp846
sg8
I00
sg9
g842
ssS'incongruousnesses'
p847
(dp848
g3
g4
((lp849
tp850
Rp851
sg8
I00
sg9
g847
ssS'saccharifications'
p852
(dp853
g3
g4
((lp854
tp855
Rp856
sg8
I00
sg9
g852
ssS'prohibitivenesses'
p857
(dp858
g3
g4
((lp859
tp860
Rp861
sg8
I00
sg9
g857
ssS'misrepresentation'
p862
(dp863
g3
g4
((lp864
tp865
Rp866
sg8
I00
sg9
g862
ssS'saponaceousnesses'
p867
(dp868
g3
g4
((lp869
tp870
Rp871
sg8
I00
sg9
g867
ssS'disfranchisements'
p872
(dp873
g3
g4
((lp874
tp875
Rp876
sg8
I00
sg9
g872
ssS'ethnomusicologies'
p877
(dp878
g3
g4
((lp879
tp880
Rp881
sg8
I00
sg9
g877
ssS'overproportionate'
p882
(dp883
g3
g4
((lp884
tp885
Rp886
sg8
I00
sg9
g882
ssS'antiassimilations'
p887
(dp888
g3
g4
((lp889
tp890
Rp891
sg8
I00
sg9
g887
ssS'electromyographic'
p892
(dp893
g3
g4
((lp894
tp895
Rp896
sg8
I00
sg9
g892
ssS'denationalization'
p897
(dp898
g3
g4
((lp899
S'renationalization'
p900
atp901
Rp902
sg8
I00
sg9
g897
ssS'homogeneousnesses'
p903
(dp904
g3
g4
((lp905
tp906
Rp907
sg8
I00
sg9
g903
ssS'rechromatographed'
p908
(dp909
g3
g4
((lp910
tp911
Rp912
sg8
I00
sg9
g908
ssS'pharmacologically'
p913
(dp914
g3
g4
((lp915
tp916
Rp917
sg8
I00
sg9
g913
ssS'photoreactivation'
p918
(dp919
g3
g4
((lp920
tp921
Rp922
sg8
I00
sg9
g918
ssS'indiscriminations'
p923
(dp924
g3
g4
((lp925
tp926
Rp927
sg8
I00
sg9
g923
ssS'cytopathogenicity'
p928
(dp929
g3
g4
((lp930
tp931
Rp932
sg8
I00
sg9
g928
ssS'structuralization'
p933
(dp934
g3
g4
((lp935
tp936
Rp937
sg8
I00
sg9
g933
ssS'nonbelligerencies'
p938
(dp939
g3
g4
((lp940
tp941
Rp942
sg8
I00
sg9
g938
ssS'stereospecificity'
p943
(dp944
g3
g4
((lp945
tp946
Rp947
sg8
I00
sg9
g943
ssS'echocardiographic'
p948
(dp949
g3
g4
((lp950
tp951
Rp952
sg8
I00
sg9
g948
ssS'chemotherapeutics'
p953
(dp954
g3
g4
((lp955
tp956
Rp957
sg8
I00
sg9
g953
ssS'counteradaptation'
p958
(dp959
g3
g4
((lp960
tp961
Rp962
sg8
I00
sg9
g958
ssS'irreformabilities'
p963
(dp964
g3
g4
((lp965
tp966
Rp967
sg8
I00
sg9
g963
ssS'miscommunications'
p968
(dp969
g3
g4
((lp970
tp971
Rp972
sg8
I00
sg9
g968
ssS'phonocardiography'
p973
(dp974
g3
g4
((lp975
S'phonocardiographs'
p976
atp977
Rp978
sg8
I00
sg9
g973
ssS'grammaticalnesses'
p979
(dp980
g3
g4
((lp981
tp982
Rp983
sg8
I00
sg9
g979
ssS'deconstructionist'
p984
(dp985
g3
g4
((lp986
S'reconstructionist'
p987
atp988
Rp989
sg8
I00
sg9
g984
ssS'pithecanthropines'
p990
(dp991
g3
g4
((lp992
tp993
Rp994
sg8
I00
sg9
g990
ssS'constitutionalize'
p995
(dp996
g3
g4
((lp997
tp998
Rp999
sg8
I00
sg9
g995
ssS'unobtrusivenesses'
p1000
(dp1001
g3
g4
((lp1002
tp1003
Rp1004
sg8
I00
sg9
g1000
ssS'unrighteousnesses'
p1005
(dp1006
g3
g4
((lp1007
tp1008
Rp1009
sg8
I00
sg9
g1005
ssS'ultranationalisms'
p1010
(dp1011
g3
g4
((lp1012
S'ultranationalists'
p1013
atp1014
Rp1015
sg8
I00
sg9
g1010
ssS'acrimoniousnesses'
p1016
(dp1017
g3
g4
((lp1018
tp1019
Rp1020
sg8
I00
sg9
g1016
ssS'coldheartednesses'
p1021
(dp1022
g3
g4
((lp1023
tp1024
Rp1025
sg8
I00
sg9
g1021
ssS'orthogonalization'
p1026
(dp1027
g3
g4
((lp1028
tp1029
Rp1030
sg8
I00
sg9
g1026
ssS'reprehensibleness'
p1031
(dp1032
g3
g4
((lp1033
tp1034
Rp1035
sg8
I00
sg9
g1031
ssS'totalitarianizing'
p1036
(dp1037
g3
g4
((lp1038
tp1039
Rp1040
sg8
I00
sg9
g1036
ssS'collectivizations'
p1041
(dp1042
g3
g4
((lp1043
tp1044
Rp1045
sg8
I00
sg9
g1041
ssS'electroconvulsive'
p1046
(dp1047
g3
g4
((lp1048
tp1049
Rp1050
sg8
I00
sg9
g1046
ssS'nonmathematicians'
p1051
(dp1052
g3
g4
((lp1053
tp1054
Rp1055
sg8
I00
sg9
g1051
ssS'instrumentalities'
p1056
(dp1057
g3
g4
((lp1058
tp1059
Rp1060
sg8
I00
sg9
g1056
ssS'clearheadednesses'
p1061
(dp1062
g3
g4
((lp1063
tp1064
Rp1065
sg8
I00
sg9
g1061
ssS'supernaturalistic'
p1066
(dp1067
g3
g4
((lp1068
tp1069
Rp1070
sg8
I00
sg9
g1066
ssS'alternativenesses'
p1071
(dp1072
g3
g4
((lp1073
tp1074
Rp1075
sg8
I00
sg9
g1071
ssg1013
(dp1076
g3
g4
((lp1077
g1010
atp1078
Rp1079
sg8
I00
sg9
g1013
ssS'merchantabilities'
p1080
(dp1081
g3
g4
((lp1082
tp1083
Rp1084
sg8
I00
sg9
g1080
ssS'electrodeposition'
p1085
(dp1086
g3
g4
((lp1087
tp1088
Rp1089
sg8
I00
sg9
g1085
ssS'transillumination'
p1090
(dp1091
g3
g4
((lp1092
tp1093
Rp1094
sg8
I00
sg9
g1090
ssS'substantivenesses'
p1095
(dp1096
g3
g4
((lp1097
tp1098
Rp1099
sg8
I00
sg9
g1095
ssS'plainspokennesses'
p1100
(dp1101
g3
g4
((lp1102
tp1103
Rp1104
sg8
I00
sg9
g1100
ssS'intellectualistic'
p1105
(dp1106
g3
g4
((lp1107
tp1108
Rp1109
sg8
I00
sg9
g1105
ssS'superefficiencies'
p1110
(dp1111
g3
g4
((lp1112
tp1113
Rp1114
sg8
I00
sg9
g1110
ssS'encephalomyelitis'
p1115
(dp1116
g3
g4
((lp1117
tp1118
Rp1119
sg8
I00
sg9
g1115
ssS'thermoelectricity'
p1120
(dp1121
g3
g4
((lp1122
tp1123
Rp1124
sg8
I00
sg9
g1120
ssS'microcalorimetric'
p1125
(dp1126
g3
g4
((lp1127
tp1128
Rp1129
sg8
I00
sg9
g1125
ssS'semiconsciousness'
p1130
(dp1131
g3
g4
((lp1132
tp1133
Rp1134
sg8
I00
sg9
g1130
ssS'cryptographically'
p1135
(dp1136
g3
g4
((lp1137
tp1138
Rp1139
sg8
I00
sg9
g1135
ssS'transistorization'
p1140
(dp1141
g3
g4
((lp1142
tp1143
Rp1144
sg8
I00
sg9
g1140
ssS'spectrophotometry'
p1145
(dp1146
g3
g4
((lp1147
tp1148
Rp1149
sg8
I00
sg9
g1145
ssS'bathythermographs'
p1150
(dp1151
g3
g4
((lp1152
tp1153
Rp1154
sg8
I00
sg9
g1150
ssS'diphenylhydantoin'
p1155
(dp1156
g3
g4
((lp1157
tp1158
Rp1159
sg8
I00
sg9
g1155
ssS'anagrammatization'
p1160
(dp1161
g3
g4
((lp1162
tp1163
Rp1164
sg8
I00
sg9
g1160
ssS'mechanoreceptions'
p1165
(dp1166
g3
g4
((lp1167
tp1168
Rp1169
sg8
I00
sg9
g1165
ssS'comparativenesses'
p1170
(dp1171
g3
g4
((lp1172
tp1173
Rp1174
sg8
I00
sg9
g1170
ssS'psychopathologies'
p1175
(dp1176
g3
g4
((lp1177
tp1178
Rp1179
sg8
I00
sg9
g1175
ssS'thermodynamically'
p1180
(dp1181
g3
g4
((lp1182
tp1183
Rp1184
sg8
I00
sg9
g1180
ssS'impregnablenesses'
p1185
(dp1186
g3
g4
((lp1187
tp1188
Rp1189
sg8
I00
sg9
g1185
ssS'revolutionariness'
p1190
(dp1191
g3
g4
((lp1192
tp1193
Rp1194
sg8
I00
sg9
g1190
ssS'persnicketinesses'
p1195
(dp1196
g3
g4
((lp1197
tp1198
Rp1199
sg8
I00
sg9
g1195
ssS'superheavyweights'
p1200
(dp1201
g3
g4
((lp1202
tp1203
Rp1204
sg8
I00
sg9
g1200
ssS'preincorporations'
p1205
(dp1206
g3
g4
((lp1207
tp1208
Rp1209
sg8
I00
sg9
g1205
ssS'transilluminators'
p1210
(dp1211
g3
g4
((lp1212
tp1213
Rp1214
sg8
I00
sg9
g1210
ssS'noncomprehensions'
p1215
(dp1216
g3
g4
((lp1217
tp1218
Rp1219
sg8
I00
sg9
g1215
ssS'indescribableness'
p1220
(dp1221
g3
g4
((lp1222
tp1223
Rp1224
sg8
I00
sg9
g1220
ssS'glycosaminoglycan'
p1225
(dp1226
g3
g4
((lp1227
tp1228
Rp1229
sg8
I00
sg9
g1225
ssS'confidentialities'
p1230
(dp1231
g3
g4
((lp1232
tp1233
Rp1234
sg8
I00
sg9
g1230
ssS'postmillennialism'
p1235
(dp1236
g3
g4
((lp1237
S'postmillennialist'
p1238
atp1239
Rp1240
sg8
I00
sg9
g1235
ssS'microphotographic'
p1241
(dp1242
g3
g4
((lp1243
tp1244
Rp1245
sg8
I00
sg9
g1241
ssS'paleopathological'
p1246
(dp1247
g3
g4
((lp1248
tp1249
Rp1250
sg8
I00
sg9
g1246
ssS'differentiability'
p1251
(dp1252
g3
g4
((lp1253
tp1254
Rp1255
sg8
I00
sg9
g1251
ssS'photocompositions'
p1256
(dp1257
g3
g4
((lp1258
tp1259
Rp1260
sg8
I00
sg9
g1256
ssS'postbaccalaureate'
p1261
(dp1262
g3
g4
((lp1263
tp1264
Rp1265
sg8
I00
sg9
g1261
ssS'glossopharyngeals'
p1266
(dp1267
g3
g4
((lp1268
tp1269
Rp1270
sg8
I00
sg9
g1266
ssS'translatabilities'
p1271
(dp1272
g3
g4
((lp1273
tp1274
Rp1275
sg8
I00
sg9
g1271
ssS'respectablenesses'
p1276
(dp1277
g3
g4
((lp1278
tp1279
Rp1280
sg8
I00
sg9
g1276
ssS'controllabilities'
p1281
(dp1282
g3
g4
((lp1283
tp1284
Rp1285
sg8
I00
sg9
g1281
ssS'companionableness'
p1286
(dp1287
g3
g4
((lp1288
tp1289
Rp1290
sg8
I00
sg9
g1286
ssS'cytotechnologists'
p1291
(dp1292
g3
g4
((lp1293
tp1294
Rp1295
sg8
I00
sg9
g1291
ssS'counterhypotheses'
p1296
(dp1297
g3
g4
((lp1298
S'counterhypothesis'
p1299
atp1300
Rp1301
sg8
I00
sg9
g1296
ssS'scandalmongerings'
p1302
(dp1303
g3
g4
((lp1304
tp1305
Rp1306
sg8
I00
sg9
g1302
ssS'imperialistically'
p1307
(dp1308
g3
g4
((lp1309
tp1310
Rp1311
sg8
I00
sg9
g1307
ssS'premillennialists'
p1312
(dp1313
g3
g4
((lp1314
S'premillennialisms'
p1315
atp1316
Rp1317
sg8
I00
sg9
g1312
ssS'interpopulational'
p1318
(dp1319
g3
g4
((lp1320
tp1321
Rp1322
sg8
I00
sg9
g1318
ssS'deindustrializing'
p1323
(dp1324
g3
g4
((lp1325
S'reindustrializing'
p1326
atp1327
Rp1328
sg8
I00
sg9
g1323
ssS'inconsiderateness'
p1329
(dp1330
g3
g4
((lp1331
tp1332
Rp1333
sg8
I00
sg9
g1329
ssS'disrespectability'
p1334
(dp1335
g3
g4
((lp1336
tp1337
Rp1338
sg8
I00
sg9
g1334
ssS'rumbustiousnesses'
p1339
(dp1340
g3
g4
((lp1341
tp1342
Rp1343
sg8
I00
sg9
g1339
ssS'tightfistednesses'
p1344
(dp1345
g3
g4
((lp1346
tp1347
Rp1348
sg8
I00
sg9
g1344
ssg1315
(dp1349
g3
g4
((lp1350
g1312
atp1351
Rp1352
sg8
I00
sg9
g1315
ssS'agglutinabilities'
p1353
(dp1354
g3
g4
((lp1355
tp1356
Rp1357
sg8
I00
sg9
g1353
ssS'irrepealabilities'
p1358
(dp1359
g3
g4
((lp1360
tp1361
Rp1362
sg8
I00
sg9
g1358
ssS'imaginativenesses'
p1363
(dp1364
g3
g4
((lp1365
tp1366
Rp1367
sg8
I00
sg9
g1363
ssS'dehydrochlorinase'
p1368
(dp1369
g3
g4
((lp1370
S'dehydrochlorinate'
p1371
atp1372
Rp1373
sg8
I00
sg9
g1368
ssS'disrespectfulness'
p1374
(dp1375
g3
g4
((lp1376
tp1377
Rp1378
sg8
I00
sg9
g1374
ssS'photorespirations'
p1379
(dp1380
g3
g4
((lp1381
tp1382
Rp1383
sg8
I00
sg9
g1379
ssS'municipalizations'
p1384
(dp1385
g3
g4
((lp1386
tp1387
Rp1388
sg8
I00
sg9
g1384
ssS'inconsequentially'
p1389
(dp1390
g3
g4
((lp1391
tp1392
Rp1393
sg8
I00
sg9
g1389
ssS'insensitivenesses'
p1394
(dp1395
g3
g4
((lp1396
tp1397
Rp1398
sg8
I00
sg9
g1394
ssS'photolithographic'
p1399
(dp1400
g3
g4
((lp1401
tp1402
Rp1403
sg8
I00
sg9
g1399
ssS'radiobiologically'
p1404
(dp1405
g3
g4
((lp1406
tp1407
Rp1408
sg8
I00
sg9
g1404
ssg249
(dp1409
g3
g4
((lp1410
g246
atp1411
Rp1412
sg8
I00
sg9
g249
ssS'improvisationally'
p1413
(dp1414
g3
g4
((lp1415
tp1416
Rp1417
sg8
I00
sg9
g1413
ssS'recognizabilities'
p1418
(dp1419
g3
g4
((lp1420
tp1421
Rp1422
sg8
I00
sg9
g1418
ssS'counterguerrillas'
p1423
(dp1424
g3
g4
((lp1425
tp1426
Rp1427
sg8
I00
sg9
g1423
ssS'aerothermodynamic'
p1428
(dp1429
g3
g4
((lp1430
tp1431
Rp1432
sg8
I00
sg9
g1428
ssS'editorializations'
p1433
(dp1434
g3
g4
((lp1435
tp1436
Rp1437
sg8
I00
sg9
g1433
ssS'blasphemousnesses'
p1438
(dp1439
g3
g4
((lp1440
tp1441
Rp1442
sg8
I00
sg9
g1438
ssS'decomposabilities'
p1443
(dp1444
g3
g4
((lp1445
tp1446
Rp1447
sg8
I00
sg9
g1443
ssS'congregationalism'
p1448
(dp1449
g3
g4
((lp1450
S'congregationalist'
p1451
atp1452
Rp1453
sg8
I00
sg9
g1448
ssS'radiochromatogram'
p1454
(dp1455
g3
g4
((lp1456
tp1457
Rp1458
sg8
I00
sg9
g1454
ssS'introspectiveness'
p1459
(dp1460
g3
g4
((lp1461
tp1462
Rp1463
sg8
I00
sg9
g1459
ssS'indissolubilities'
p1464
(dp1465
g3
g4
((lp1466
tp1467
Rp1468
sg8
I00
sg9
g1464
ssS'injudiciousnesses'
p1469
(dp1470
g3
g4
((lp1471
tp1472
Rp1473
sg8
I00
sg9
g1469
ssS'valetudinarianism'
p1474
(dp1475
g3
g4
((lp1476
tp1477
Rp1478
sg8
I00
sg9
g1474
ssS'copolymerizations'
p1479
(dp1480
g3
g4
((lp1481
tp1482
Rp1483
sg8
I00
sg9
g1479
ssS'inexcusablenesses'
p1484
(dp1485
g3
g4
((lp1486
tp1487
Rp1488
sg8
I00
sg9
g1484
ssS'accommodativeness'
p1489
(dp1490
g3
g4
((lp1491
tp1492
Rp1493
sg8
I00
sg9
g1489
ssS'psychobiographers'
p1494
(dp1495
g3
g4
((lp1496
tp1497
Rp1498
sg8
I00
sg9
g1494
ssS'neuropathological'
p1499
(dp1500
g3
g4
((lp1501
tp1502
Rp1503
sg8
I00
sg9
g1499
ssS'overcommercialize'
p1504
(dp1505
g3
g4
((lp1506
tp1507
Rp1508
sg8
I00
sg9
g1504
ssS'underachievements'
p1509
(dp1510
g3
g4
((lp1511
tp1512
Rp1513
sg8
I00
sg9
g1509
ssg1451
(dp1514
g3
g4
((lp1515
g1448
atp1516
Rp1517
sg8
I00
sg9
g1451
ssS'compartmentations'
p1518
(dp1519
g3
g4
((lp1520
tp1521
Rp1522
sg8
I00
sg9
g1518
ssS'ineffectualnesses'
p1523
(dp1524
g3
g4
((lp1525
tp1526
Rp1527
sg8
I00
sg9
g1523
ssS'ultraminiaturized'
p1528
(dp1529
g3
g4
((lp1530
tp1531
Rp1532
sg8
I00
sg9
g1528
ssS'trigonometrically'
p1533
(dp1534
g3
g4
((lp1535
tp1536
Rp1537
sg8
I00
sg9
g1533
ssS'reproachfulnesses'
p1538
(dp1539
g3
g4
((lp1540
tp1541
Rp1542
sg8
I00
sg9
g1538
ssS'indigestibilities'
p1543
(dp1544
g3
g4
((lp1545
tp1546
Rp1547
sg8
I00
sg9
g1543
ssS'counterterrorisms'
p1548
(dp1549
g3
g4
((lp1550
S'counterterrorists'
p1551
atp1552
Rp1553
sg8
I00
sg9
g1548
ssS'immunofluorescent'
p1554
(dp1555
g3
g4
((lp1556
tp1557
Rp1558
sg8
I00
sg9
g1554
ssS'indefectibilities'
p1559
(dp1560
g3
g4
((lp1561
tp1562
Rp1563
sg8
I00
sg9
g1559
ssS'anticommercialism'
p1564
(dp1565
g3
g4
((lp1566
tp1567
Rp1568
sg8
I00
sg9
g1564
ssS'anachronistically'
p1569
(dp1570
g3
g4
((lp1571
tp1572
Rp1573
sg8
I00
sg9
g1569
ssS'temerariousnesses'
p1574
(dp1575
g3
g4
((lp1576
tp1577
Rp1578
sg8
I00
sg9
g1574
ssS'transcriptionally'
p1579
(dp1580
g3
g4
((lp1581
tp1582
Rp1583
sg8
I00
sg9
g1579
ssS'cholangiographies'
p1584
(dp1585
g3
g4
((lp1586
tp1587
Rp1588
sg8
I00
sg9
g1584
ssS'ultrastructurally'
p1589
(dp1590
g3
g4
((lp1591
tp1592
Rp1593
sg8
I00
sg9
g1589
ssS'unfavorablenesses'
p1594
(dp1595
g3
g4
((lp1596
tp1597
Rp1598
sg8
I00
sg9
g1594
ssS'meaninglessnesses'
p1599
(dp1600
g3
g4
((lp1601
tp1602
Rp1603
sg8
I00
sg9
g1599
ssS'misadministration'
p1604
(dp1605
g3
g4
((lp1606
tp1607
Rp1608
sg8
I00
sg9
g1604
ssS'photocoagulations'
p1609
(dp1610
g3
g4
((lp1611
tp1612
Rp1613
sg8
I00
sg9
g1609
ssS'tendentiousnesses'
p1614
(dp1615
g3
g4
((lp1616
tp1617
Rp1618
sg8
I00
sg9
g1614
ssS'predestinarianism'
p1619
(dp1620
g3
g4
((lp1621
tp1622
Rp1623
sg8
I00
sg9
g1619
ssS'communitarianisms'
p1624
(dp1625
g3
g4
((lp1626
tp1627
Rp1628
sg8
I00
sg9
g1624
ssS'indistinguishably'
p1629
(dp1630
g3
g4
((lp1631
S'indistinguishable'
p1632
atp1633
Rp1634
sg8
I00
sg9
g1629
ssS'incalculabilities'
p1635
(dp1636
g3
g4
((lp1637
tp1638
Rp1639
sg8
I00
sg9
g1635
ssS'necessitousnesses'
p1640
(dp1641
g3
g4
((lp1642
tp1643
Rp1644
sg8
I00
sg9
g1640
ssS'multidisciplinary'
p1645
(dp1646
g3
g4
((lp1647
tp1648
Rp1649
sg8
I00
sg9
g1645
ssS'ultrasonographies'
p1650
(dp1651
g3
g4
((lp1652
tp1653
Rp1654
sg8
I00
sg9
g1650
ssS'opprobriousnesses'
p1655
(dp1656
g3
g4
((lp1657
tp1658
Rp1659
sg8
I00
sg9
g1655
ssS'bacteriorhodopsin'
p1660
(dp1661
g3
g4
((lp1662
tp1663
Rp1664
sg8
I00
sg9
g1660
ssS'carnivorousnesses'
p1665
(dp1666
g3
g4
((lp1667
tp1668
Rp1669
sg8
I00
sg9
g1665
ssS'prestigiousnesses'
p1670
(dp1671
g3
g4
((lp1672
tp1673
Rp1674
sg8
I00
sg9
g1670
ssS'unalterablenesses'
p1675
(dp1676
g3
g4
((lp1677
S'inalterablenesses'
p1678
atp1679
Rp1680
sg8
I00
sg9
g1675
ssS'misunderstandings'
p1681
(dp1682
g3
g4
((lp1683
tp1684
Rp1685
sg8
I00
sg9
g1681
ssS'impressionability'
p1686
(dp1687
g3
g4
((lp1688
tp1689
Rp1690
sg8
I00
sg9
g1686
ssS'unconventionality'
p1691
(dp1692
g3
g4
((lp1693
tp1694
Rp1695
sg8
I00
sg9
g1691
ssS'entrepreneurially'
p1696
(dp1697
g3
g4
((lp1698
tp1699
Rp1700
sg8
I00
sg9
g1696
ssS'miscomprehensions'
p1701
(dp1702
g3
g4
((lp1703
tp1704
Rp1705
sg8
I00
sg9
g1701
ssS'polyacrylonitrile'
p1706
(dp1707
g3
g4
((lp1708
tp1709
Rp1710
sg8
I00
sg9
g1706
ssS'antireductionists'
p1711
(dp1712
g3
g4
((lp1713
S'antireductionisms'
p1714
atp1715
Rp1716
sg8
I00
sg9
g1711
ssS'thermoluminescent'
p1717
(dp1718
g3
g4
((lp1719
tp1720
Rp1721
sg8
I00
sg9
g1717
ssS'psychosomatically'
p1722
(dp1723
g3
g4
((lp1724
tp1725
Rp1726
sg8
I00
sg9
g1722
ssS'collaborationists'
p1727
(dp1728
g3
g4
((lp1729
S'collaborationisms'
p1730
atp1731
Rp1732
sg8
I00
sg9
g1727
ssS'autoimmunizations'
p1733
(dp1734
g3
g4
((lp1735
tp1736
Rp1737
sg8
I00
sg9
g1733
ssS'interdisciplinary'
p1738
(dp1739
g3
g4
((lp1740
tp1741
Rp1742
sg8
I00
sg9
g1738
ssS'hydroxytryptamine'
p1743
(dp1744
g3
g4
((lp1745
tp1746
Rp1747
sg8
I00
sg9
g1743
ssS'intolerablenesses'
p1748
(dp1749
g3
g4
((lp1750
tp1751
Rp1752
sg8
I00
sg9
g1748
ssS'chlordiazepoxides'
p1753
(dp1754
g3
g4
((lp1755
tp1756
Rp1757
sg8
I00
sg9
g1753
ssS'professionalizing'
p1758
(dp1759
g3
g4
((lp1760
tp1761
Rp1762
sg8
I00
sg9
g1758
ssS'neuroradiological'
p1763
(dp1764
g3
g4
((lp1765
tp1766
Rp1767
sg8
I00
sg9
g1763
ssS'electroretinogram'
p1768
(dp1769
g3
g4
((lp1770
tp1771
Rp1772
sg8
I00
sg9
g1768
ssS'undernourishments'
p1773
(dp1774
g3
g4
((lp1775
tp1776
Rp1777
sg8
I00
sg9
g1773
ssS'repetitiousnesses'
p1778
(dp1779
g3
g4
((lp1780
tp1781
Rp1782
sg8
I00
sg9
g1778
ssS'transthoracically'
p1783
(dp1784
g3
g4
((lp1785
tp1786
Rp1787
sg8
I00
sg9
g1783
ssS'rememberabilities'
p1788
(dp1789
g3
g4
((lp1790
tp1791
Rp1792
sg8
I00
sg9
g1788
ssS'intercalibrations'
p1793
(dp1794
g3
g4
((lp1795
tp1796
Rp1797
sg8
I00
sg9
g1793
ssS'irresistibilities'
p1798
(dp1799
g3
g4
((lp1800
tp1801
Rp1802
sg8
I00
sg9
g1798
ssS'counterstrategist'
p1803
(dp1804
g3
g4
((lp1805
tp1806
Rp1807
sg8
I00
sg9
g1803
ssS'crystallographers'
p1808
(dp1809
g3
g4
((lp1810
tp1811
Rp1812
sg8
I00
sg9
g1808
ssS'isoelectronically'
p1813
(dp1814
g3
g4
((lp1815
tp1816
Rp1817
sg8
I00
sg9
g1813
ssS'fractionalization'
p1818
(dp1819
g3
g4
((lp1820
tp1821
Rp1822
sg8
I00
sg9
g1818
ssS'choriocarcinomata'
p1823
(dp1824
g3
g4
((lp1825
tp1826
Rp1827
sg8
I00
sg9
g1823
ssS'blameworthinesses'
p1828
(dp1829
g3
g4
((lp1830
tp1831
Rp1832
sg8
I00
sg9
g1828
ssS'ferrimagnetically'
p1833
(dp1834
g3
g4
((lp1835
tp1836
Rp1837
sg8
I00
sg9
g1833
ssS'susceptiblenesses'
p1838
(dp1839
g3
g4
((lp1840
tp1841
Rp1842
sg8
I00
sg9
g1838
ssS'counterconspiracy'
p1843
(dp1844
g3
g4
((lp1845
tp1846
Rp1847
sg8
I00
sg9
g1843
ssS'circumnavigations'
p1848
(dp1849
g3
g4
((lp1850
tp1851
Rp1852
sg8
I00
sg9
g1848
ssS'constitutionalism'
p1853
(dp1854
g3
g4
((lp1855
S'constitutionalist'
p1856
atp1857
Rp1858
sg8
I00
sg9
g1853
ssS'chorioallantoides'
p1859
(dp1860
g3
g4
((lp1861
tp1862
Rp1863
sg8
I00
sg9
g1859
ssS'disproportionates'
p1864
(dp1865
g3
g4
((lp1866
S'disproportionated'
p1867
atp1868
Rp1869
sg8
I00
sg9
g1864
ssS'gastroenteritises'
p1870
(dp1871
g3
g4
((lp1872
S'gastroenteritides'
p1873
atp1874
Rp1875
sg8
I00
sg9
g1870
ssS'parathyroidectomy'
p1876
(dp1877
g3
g4
((lp1878
tp1879
Rp1880
sg8
I00
sg9
g1876
ssS'incomparabilities'
p1881
(dp1882
g3
g4
((lp1883
tp1884
Rp1885
sg8
I00
sg9
g1881
ssg206
(dp1886
g3
g4
((lp1887
g202
ag205
atp1888
Rp1889
sg8
I00
sg9
g206
ssS'paleopathologists'
p1890
(dp1891
g3
g4
((lp1892
tp1893
Rp1894
sg8
I00
sg9
g1890
ssS'intellectualizers'
p1895
(dp1896
g3
g4
((lp1897
tp1898
Rp1899
sg8
I00
sg9
g1895
ssS'presentablenesses'
p1900
(dp1901
g3
g4
((lp1902
tp1903
Rp1904
sg8
I00
sg9
g1900
ssg510
(dp1905
g3
g4
((lp1906
g507
atp1907
Rp1908
sg8
I00
sg9
g510
ssS'countercomplaints'
p1909
(dp1910
g3
g4
((lp1911
tp1912
Rp1913
sg8
I00
sg9
g1909
ssS'ignominiousnesses'
p1914
(dp1915
g3
g4
((lp1916
tp1917
Rp1918
sg8
I00
sg9
g1914
ssS'spectroscopically'
p1919
(dp1920
g3
g4
((lp1921
tp1922
Rp1923
sg8
I00
sg9
g1919
ssg1867
(dp1924
g3
g4
((lp1925
g1864
atp1926
Rp1927
sg8
I00
sg9
g1867
ssS'handcraftsmanship'
p1928
(dp1929
g3
g4
((lp1930
tp1931
Rp1932
sg8
I00
sg9
g1928
ssS'magnetostrictions'
p1933
(dp1934
g3
g4
((lp1935
tp1936
Rp1937
sg8
I00
sg9
g1933
ssg1856
(dp1938
g3
g4
((lp1939
g1853
atp1940
Rp1941
sg8
I00
sg9
g1856
ssS'counterinsurgency'
p1942
(dp1943
g3
g4
((lp1944
tp1945
Rp1946
sg8
I00
sg9
g1942
ssS'encephalographies'
p1947
(dp1948
g3
g4
((lp1949
tp1950
Rp1951
sg8
I00
sg9
g1947
ssS'immunosuppressing'
p1952
(dp1953
g3
g4
((lp1954
tp1955
Rp1956
sg8
I00
sg9
g1952
ssg1299
(dp1957
g3
g4
((lp1958
g1296
atp1959
Rp1960
sg8
I00
sg9
g1299
ssS'superspectaculars'
p1961
(dp1962
g3
g4
((lp1963
tp1964
Rp1965
sg8
I00
sg9
g1961
ssS'noncontemporaries'
p1966
(dp1967
g3
g4
((lp1968
tp1969
Rp1970
sg8
I00
sg9
g1966
ssS'sanctimoniousness'
p1971
(dp1972
g3
g4
((lp1973
tp1974
Rp1975
sg8
I00
sg9
g1971
ssS'microcirculations'
p1976
(dp1977
g3
g4
((lp1978
tp1979
Rp1980
sg8
I00
sg9
g1976
ssS'crestfallennesses'
p1981
(dp1982
g3
g4
((lp1983
tp1984
Rp1985
sg8
I00
sg9
g1981
ssS'intergenerational'
p1986
(dp1987
g3
g4
((lp1988
tp1989
Rp1990
sg8
I00
sg9
g1986
ssS'deterministically'
p1991
(dp1992
g3
g4
((lp1993
tp1994
Rp1995
sg8
I00
sg9
g1991
ssg1238
(dp1996
g3
g4
((lp1997
g1235
atp1998
Rp1999
sg8
I00
sg9
g1238
ssS'magnetoresistance'
p2000
(dp2001
g3
g4
((lp2002
tp2003
Rp2004
sg8
I00
sg9
g2000
ssS'quadricentennials'
p2005
(dp2006
g3
g4
((lp2007
tp2008
Rp2009
sg8
I00
sg9
g2005
ssS'counterstrategies'
p2010
(dp2011
g3
g4
((lp2012
tp2013
Rp2014
sg8
I00
sg9
g2010
ssS'miscellaneousness'
p2015
(dp2016
g3
g4
((lp2017
tp2018
Rp2019
sg8
I00
sg9
g2015
ssS'disinterestedness'
p2020
(dp2021
g3
g4
((lp2022
tp2023
Rp2024
sg8
I00
sg9
g2020
ssS'subordinatenesses'
p2025
(dp2026
g3
g4
((lp2027
tp2028
Rp2029
sg8
I00
sg9
g2025
ssS'indispensableness'
p2030
(dp2031
g3
g4
((lp2032
tp2033
Rp2034
sg8
I00
sg9
g2030
ssS'inscrutablenesses'
p2035
(dp2036
g3
g4
((lp2037
tp2038
Rp2039
sg8
I00
sg9
g2035
ssS'permissiblenesses'
p2040
(dp2041
g3
g4
((lp2042
tp2043
Rp2044
sg8
I00
sg9
g2040
ssS'chymotrypsinogens'
p2045
(dp2046
g3
g4
((lp2047
tp2048
Rp2049
sg8
I00
sg9
g2045
ssS'extraordinariness'
p2050
(dp2051
g3
g4
((lp2052
tp2053
Rp2054
sg8
I00
sg9
g2050
ssS'nonecclesiastical'
p2055
(dp2056
g3
g4
((lp2057
tp2058
Rp2059
sg8
I00
sg9
g2055
ssS'malapportionments'
p2060
(dp2061
g3
g4
((lp2062
tp2063
Rp2064
sg8
I00
sg9
g2060
ssS'semidomestication'
p2065
(dp2066
g3
g4
((lp2067
tp2068
Rp2069
sg8
I00
sg9
g2065
ssS'interestingnesses'
p2070
(dp2071
g3
g4
((lp2072
tp2073
Rp2074
sg8
I00
sg9
g2070
ssS'insolubilizations'
p2075
(dp2076
g3
g4
((lp2077
tp2078
Rp2079
sg8
I00
sg9
g2075
ssS'hyperpituitarisms'
p2080
(dp2081
g3
g4
((lp2082
tp2083
Rp2084
sg8
I00
sg9
g2080
ssS'mountainousnesses'
p2085
(dp2086
g3
g4
((lp2087
tp2088
Rp2089
sg8
I00
sg9
g2085
ssS'countersuggestion'
p2090
(dp2091
g3
g4
((lp2092
tp2093
Rp2094
sg8
I00
sg9
g2090
ssS'dichotomousnesses'
p2095
(dp2096
g3
g4
((lp2097
tp2098
Rp2099
sg8
I00
sg9
g2095
ssS'strongyloidosises'
p2100
(dp2101
g3
g4
((lp2102
tp2103
Rp2104
sg8
I00
sg9
g2100
ssS'hyposensitization'
p2105
(dp2106
g3
g4
((lp2107
tp2108
Rp2109
sg8
I00
sg9
g2105
ssS'aminotransferases'
p2110
(dp2111
g3
g4
((lp2112
tp2113
Rp2114
sg8
I00
sg9
g2110
ssg1326
(dp2115
g3
g4
((lp2116
g1323
atp2117
Rp2118
sg8
I00
sg9
g1326
ssS'sesquicentenaries'
p2119
(dp2120
g3
g4
((lp2121
tp2122
Rp2123
sg8
I00
sg9
g2119
ssS'thermodynamicists'
p2124
(dp2125
g3
g4
((lp2126
tp2127
Rp2128
sg8
I00
sg9
g2124
ssS'biomathematicians'
p2129
(dp2130
g3
g4
((lp2131
tp2132
Rp2133
sg8
I00
sg9
g2129
ssS'neurotransmission'
p2134
(dp2135
g3
g4
((lp2136
tp2137
Rp2138
sg8
I00
sg9
g2134
ssS'telecommunication'
p2139
(dp2140
g3
g4
((lp2141
tp2142
Rp2143
sg8
I00
sg9
g2139
ssS'micromanipulation'
p2144
(dp2145
g3
g4
((lp2146
tp2147
Rp2148
sg8
I00
sg9
g2144
ssS'superplasticities'
p2149
(dp2150
g3
g4
((lp2151
tp2152
Rp2153
sg8
I00
sg9
g2149
ssS'antirevolutionary'
p2154
(dp2155
g3
g4
((lp2156
tp2157
Rp2158
sg8
I00
sg9
g2154
ssS'contradistinctive'
p2159
(dp2160
g3
g4
((lp2161
tp2162
Rp2163
sg8
I00
sg9
g2159
ssS'dephosphorylation'
p2164
(dp2165
g3
g4
((lp2166
tp2167
Rp2168
sg8
I00
sg9
g2164
ssS'gentlemanlikeness'
p2169
(dp2170
g3
g4
((lp2171
tp2172
Rp2173
sg8
I00
sg9
g2169
ssS'architectonically'
p2174
(dp2175
g3
g4
((lp2176
tp2177
Rp2178
sg8
I00
sg9
g2174
ssS'ethnomusicologist'
p2179
(dp2180
g3
g4
((lp2181
tp2182
Rp2183
sg8
I00
sg9
g2179
ssS'overexploitations'
p2184
(dp2185
g3
g4
((lp2186
tp2187
Rp2188
sg8
I00
sg9
g2184
ssS'unendurablenesses'
p2189
(dp2190
g3
g4
((lp2191
tp2192
Rp2193
sg8
I00
sg9
g2189
ssS'disestablishments'
p2194
(dp2195
g3
g4
((lp2196
tp2197
Rp2198
sg8
I00
sg9
g2194
ssS'electrostatically'
p2199
(dp2200
g3
g4
((lp2201
tp2202
Rp2203
sg8
I00
sg9
g2199
ssS'hyperemotionality'
p2204
(dp2205
g3
g4
((lp2206
tp2207
Rp2208
sg8
I00
sg9
g2204
ssS'counteroffensives'
p2209
(dp2210
g3
g4
((lp2211
tp2212
Rp2213
sg8
I00
sg9
g2209
ssS'neuroradiologists'
p2214
(dp2215
g3
g4
((lp2216
tp2217
Rp2218
sg8
I00
sg9
g2214
ssS'archconservatives'
p2219
(dp2220
g3
g4
((lp2221
tp2222
Rp2223
sg8
I00
sg9
g2219
ssS'mispronunciations'
p2224
(dp2225
g3
g4
((lp2226
tp2227
Rp2228
sg8
I00
sg9
g2224
ssS'autotetraploidies'
p2229
(dp2230
g3
g4
((lp2231
tp2232
Rp2233
sg8
I00
sg9
g2229
ssg55
(dp2234
g3
g4
((lp2235
g18
ag56
atp2236
Rp2237
sg8
I00
sg9
g55
ssS'antimiscegenation'
p2238
(dp2239
g3
g4
((lp2240
tp2241
Rp2242
sg8
I00
sg9
g2238
ssS'conversationalist'
p2243
(dp2244
g3
g4
((lp2245
tp2246
Rp2247
sg8
I00
sg9
g2243
ssS'counterpropaganda'
p2248
(dp2249
g3
g4
((lp2250
tp2251
Rp2252
sg8
I00
sg9
g2248
ssS'incorrigibilities'
p2253
(dp2254
g3
g4
((lp2255
tp2256
Rp2257
sg8
I00
sg9
g2253
ssS'philanthropically'
p2258
(dp2259
g3
g4
((lp2260
tp2261
Rp2262
sg8
I00
sg9
g2258
ssS'consubstantiation'
p2263
(dp2264
g3
g4
((lp2265
tp2266
Rp2267
sg8
I00
sg9
g2263
ssS'histophysiologies'
p2268
(dp2269
g3
g4
((lp2270
tp2271
Rp2272
sg8
I00
sg9
g2268
ssS'neuropsychiatrist'
p2273
(dp2274
g3
g4
((lp2275
tp2276
Rp2277
sg8
I00
sg9
g2273
ssS'contemplativeness'
p2278
(dp2279
g3
g4
((lp2280
tp2281
Rp2282
sg8
I00
sg9
g2278
ssS'suppressivenesses'
p2283
(dp2284
g3
g4
((lp2285
tp2286
Rp2287
sg8
I00
sg9
g2283
ssS'preternaturalness'
p2288
(dp2289
g3
g4
((lp2290
tp2291
Rp2292
sg8
I00
sg9
g2288
ssS'imponderabilities'
p2293
(dp2294
g3
g4
((lp2295
tp2296
Rp2297
sg8
I00
sg9
g2293
ssS'micromanipulators'
p2298
(dp2299
g3
g4
((lp2300
tp2301
Rp2302
sg8
I00
sg9
g2298
ssS'stereomicroscopes'
p2303
(dp2304
g3
g4
((lp2305
tp2306
Rp2307
sg8
I00
sg9
g2303
ssS'tintinnabulations'
p2308
(dp2309
g3
g4
((lp2310
tp2311
Rp2312
sg8
I00
sg9
g2308
ssS'importunatenesses'
p2313
(dp2314
g3
g4
((lp2315
tp2316
Rp2317
sg8
I00
sg9
g2313
ssS'distrustfulnesses'
p2318
(dp2319
g3
g4
((lp2320
S'mistrustfulnesses'
p2321
atp2322
Rp2323
sg8
I00
sg9
g2318
ssS'governmentalizing'
p2324
(dp2325
g3
g4
((lp2326
tp2327
Rp2328
sg8
I00
sg9
g2324
ssS'teratocarcinomata'
p2329
(dp2330
g3
g4
((lp2331
tp2332
Rp2333
sg8
I00
sg9
g2329
ssS'photopolarimeters'
p2334
(dp2335
g3
g4
((lp2336
tp2337
Rp2338
sg8
I00
sg9
g2334
ssS'lymphogranulomata'
p2339
(dp2340
g3
g4
((lp2341
tp2342
Rp2343
sg8
I00
sg9
g2339
ssS'inapplicabilities'
p2344
(dp2345
g3
g4
((lp2346
tp2347
Rp2348
sg8
I00
sg9
g2344
ssS'prejudicialnesses'
p2349
(dp2350
g3
g4
((lp2351
tp2352
Rp2353
sg8
I00
sg9
g2349
ssS'softheartednesses'
p2354
(dp2355
g3
g4
((lp2356
tp2357
Rp2358
sg8
I00
sg9
g2354
ssS'triboluminescence'
p2359
(dp2360
g3
g4
((lp2361
tp2362
Rp2363
sg8
I00
sg9
g2359
ssS'superbillionaires'
p2364
(dp2365
g3
g4
((lp2366
S'supermillionaires'
p2367
atp2368
Rp2369
sg8
I00
sg9
g2364
ssS'quatercentenaries'
p2370
(dp2371
g3
g4
((lp2372
tp2373
Rp2374
sg8
I00
sg9
g2370
ssS'stereochemistries'
p2375
(dp2376
g3
g4
((lp2377
tp2378
Rp2379
sg8
I00
sg9
g2375
ssS'antievolutionists'
p2380
(dp2381
g3
g4
((lp2382
S'antievolutionisms'
p2383
atp2384
Rp2385
sg8
I00
sg9
g2380
ssS'instantaneousness'
p2386
(dp2387
g3
g4
((lp2388
tp2389
Rp2390
sg8
I00
sg9
g2386
ssS'disqualifications'
p2391
(dp2392
g3
g4
((lp2393
tp2394
Rp2395
sg8
I00
sg9
g2391
ssS'antiestablishment'
p2396
(dp2397
g3
g4
((lp2398
tp2399
Rp2400
sg8
I00
sg9
g2396
ssS'overambitiousness'
p2401
(dp2402
g3
g4
((lp2403
tp2404
Rp2405
sg8
I00
sg9
g2401
ssS'bacteriologically'
p2406
(dp2407
g3
g4
((lp2408
tp2409
Rp2410
sg8
I00
sg9
g2406
ssS'triiodothyronines'
p2411
(dp2412
g3
g4
((lp2413
tp2414
Rp2415
sg8
I00
sg9
g2411
ssS'phytogeographical'
p2416
(dp2417
g3
g4
((lp2418
tp2419
Rp2420
sg8
I00
sg9
g2416
ssS'compendiousnesses'
p2421
(dp2422
g3
g4
((lp2423
tp2424
Rp2425
sg8
I00
sg9
g2421
ssS'recrystallization'
p2426
(dp2427
g3
g4
((lp2428
tp2429
Rp2430
sg8
I00
sg9
g2426
ssS'electrodepositing'
p2431
(dp2432
g3
g4
((lp2433
tp2434
Rp2435
sg8
I00
sg9
g2431
ssS'substantialnesses'
p2436
(dp2437
g3
g4
((lp2438
tp2439
Rp2440
sg8
I00
sg9
g2436
ssS'indeterminateness'
p2441
(dp2442
g3
g4
((lp2443
tp2444
Rp2445
sg8
I00
sg9
g2441
ssS'entrepreneurships'
p2446
(dp2447
g3
g4
((lp2448
tp2449
Rp2450
sg8
I00
sg9
g2446
ssS'electrochemically'
p2451
(dp2452
g3
g4
((lp2453
tp2454
Rp2455
sg8
I00
sg9
g2451
ssS'prefigurativeness'
p2456
(dp2457
g3
g4
((lp2458
tp2459
Rp2460
sg8
I00
sg9
g2456
ssS'inoffensivenesses'
p2461
(dp2462
g3
g4
((lp2463
tp2464
Rp2465
sg8
I00
sg9
g2461
ssS'irreconcilability'
p2466
(dp2467
g3
g4
((lp2468
tp2469
Rp2470
sg8
I00
sg9
g2466
ssS'counteraggression'
p2471
(dp2472
g3
g4
((lp2473
tp2474
Rp2475
sg8
I00
sg9
g2471
ssS'microencapsulates'
p2476
(dp2477
g3
g4
((lp2478
S'microencapsulated'
p2479
atp2480
Rp2481
sg8
I00
sg9
g2476
ssS'electromagnetisms'
p2482
(dp2483
g3
g4
((lp2484
tp2485
Rp2486
sg8
I00
sg9
g2482
ssS'bibliographically'
p2487
(dp2488
g3
g4
((lp2489
tp2490
Rp2491
sg8
I00
sg9
g2487
ssg400
(dp2492
g3
g4
((lp2493
g397
atp2494
Rp2495
sg8
I00
sg9
g400
ssS'synchronousnesses'
p2496
(dp2497
g3
g4
((lp2498
tp2499
Rp2500
sg8
I00
sg9
g2496
ssS'conscientiousness'
p2501
(dp2502
g3
g4
((lp2503
tp2504
Rp2505
sg8
I00
sg9
g2501
ssS'microvasculatures'
p2506
(dp2507
g3
g4
((lp2508
tp2509
Rp2510
sg8
I00
sg9
g2506
ssS'illimitablenesses'
p2511
(dp2512
g3
g4
((lp2513
tp2514
Rp2515
sg8
I00
sg9
g2511
ssS'nonconstitutional'
p2516
(dp2517
g3
g4
((lp2518
tp2519
Rp2520
sg8
I00
sg9
g2516
ssS'antitechnological'
p2521
(dp2522
g3
g4
((lp2523
tp2524
Rp2525
sg8
I00
sg9
g2521
ssg2479
(dp2526
g3
g4
((lp2527
g2476
atp2528
Rp2529
sg8
I00
sg9
g2479
ssS'demilitarizations'
p2530
(dp2531
g3
g4
((lp2532
S'remilitarizations'
p2533
atp2534
Rp2535
sg8
I00
sg9
g2530
ssS'undemonstratively'
p2536
(dp2537
g3
g4
((lp2538
tp2539
Rp2540
sg8
I00
sg9
g2536
ssS'indefensibilities'
p2541
(dp2542
g3
g4
((lp2543
S'indefeasibilities'
p2544
atp2545
Rp2546
sg8
I00
sg9
g2541
ssS'hyperstimulations'
p2547
(dp2548
g3
g4
((lp2549
tp2550
Rp2551
sg8
I00
sg9
g2547
ssS'pleasurablenesses'
p2552
(dp2553
g3
g4
((lp2554
tp2555
Rp2556
sg8
I00
sg9
g2552
ssS'acquaintanceships'
p2557
(dp2558
g3
g4
((lp2559
tp2560
Rp2561
sg8
I00
sg9
g2557
ssS'exchangeabilities'
p2562
(dp2563
g3
g4
((lp2564
tp2565
Rp2566
sg8
I00
sg9
g2562
ssS'denuclearizations'
p2567
(dp2568
g3
g4
((lp2569
tp2570
Rp2571
sg8
I00
sg9
g2567
ssS'thermographically'
p2572
(dp2573
g3
g4
((lp2574
tp2575
Rp2576
sg8
I00
sg9
g2572
ssS'epithelialization'
p2577
(dp2578
g3
g4
((lp2579
tp2580
Rp2581
sg8
I00
sg9
g2577
ssS'unsympathetically'
p2582
(dp2583
g3
g4
((lp2584
tp2585
Rp2586
sg8
I00
sg9
g2582
ssS'overproportioning'
p2587
(dp2588
g3
g4
((lp2589
tp2590
Rp2591
sg8
I00
sg9
g2587
ssS'straightjacketing'
p2592
(dp2593
g3
g4
((lp2594
tp2595
Rp2596
sg8
I00
sg9
g2592
ssS'communicativeness'
p2597
(dp2598
g3
g4
((lp2599
tp2600
Rp2601
sg8
I00
sg9
g2597
ssS'diaphragmatically'
p2602
(dp2603
g3
g4
((lp2604
tp2605
Rp2606
sg8
I00
sg9
g2602
ssS'bronchopneumonias'
p2607
(dp2608
g3
g4
((lp2609
tp2610
Rp2611
sg8
I00
sg9
g2607
ssS'precipitousnesses'
p2612
(dp2613
g3
g4
((lp2614
tp2615
Rp2616
sg8
I00
sg9
g2612
ssS'pharmacognostical'
p2617
(dp2618
g3
g4
((lp2619
tp2620
Rp2621
sg8
I00
sg9
g2617
ssS'radioimmunoassays'
p2622
(dp2623
g3
g4
((lp2624
tp2625
Rp2626
sg8
I00
sg9
g2622
ssS'inefficaciousness'
p2627
(dp2628
g3
g4
((lp2629
tp2630
Rp2631
sg8
I00
sg9
g2627
ssS'ultraprogressives'
p2632
(dp2633
g3
g4
((lp2634
tp2635
Rp2636
sg8
I00
sg9
g2632
ssS'inappropriateness'
p2637
(dp2638
g3
g4
((lp2639
tp2640
Rp2641
sg8
I00
sg9
g2637
ssS'precipitantnesses'
p2642
(dp2643
g3
g4
((lp2644
tp2645
Rp2646
sg8
I00
sg9
g2642
ssS'antiauthoritarian'
p2647
(dp2648
g3
g4
((lp2649
tp2650
Rp2651
sg8
I00
sg9
g2647
ssS'dimethylhydrazine'
p2652
(dp2653
g3
g4
((lp2654
tp2655
Rp2656
sg8
I00
sg9
g2652
ssS'downheartednesses'
p2657
(dp2658
g3
g4
((lp2659
tp2660
Rp2661
sg8
I00
sg9
g2657
ssS'recentralizations'
p2662
(dp2663
g3
g4
((lp2664
S'decentralizations'
p2665
atp2666
Rp2667
sg8
I00
sg9
g2662
ssS'compassionateness'
p2668
(dp2669
g3
g4
((lp2670
tp2671
Rp2672
sg8
I00
sg9
g2668
ssS'foresightednesses'
p2673
(dp2674
g3
g4
((lp2675
tp2676
Rp2677
sg8
I00
sg9
g2673
ssS'superfluousnesses'
p2678
(dp2679
g3
g4
((lp2680
tp2681
Rp2682
sg8
I00
sg9
g2678
ssS'conceivablenesses'
p2683
(dp2684
g3
g4
((lp2685
tp2686
Rp2687
sg8
I00
sg9
g2683
ssS'anesthesiologists'
p2688
(dp2689
g3
g4
((lp2690
tp2691
Rp2692
sg8
I00
sg9
g2688
ssS'orthopsychiatrist'
p2693
(dp2694
g3
g4
((lp2695
tp2696
Rp2697
sg8
I00
sg9
g2693
ssS'kaleidoscopically'
p2698
(dp2699
g3
g4
((lp2700
tp2701
Rp2702
sg8
I00
sg9
g2698
ssS'thermochemistries'
p2703
(dp2704
g3
g4
((lp2705
tp2706
Rp2707
sg8
I00
sg9
g2703
ssS'photoreproduction'
p2708
(dp2709
g3
g4
((lp2710
tp2711
Rp2712
sg8
I00
sg9
g2708
ssS'objectionableness'
p2713
(dp2714
g3
g4
((lp2715
tp2716
Rp2717
sg8
I00
sg9
g2713
ssS'paraprofessionals'
p2718
(dp2719
g3
g4
((lp2720
tp2721
Rp2722
sg8
I00
sg9
g2718
ssS'authoritarianisms'
p2723
(dp2724
g3
g4
((lp2725
tp2726
Rp2727
sg8
I00
sg9
g2723
ssS'retransformations'
p2728
(dp2729
g3
g4
((lp2730
tp2731
Rp2732
sg8
I00
sg9
g2728
ssS'housewifelinesses'
p2733
(dp2734
g3
g4
((lp2735
tp2736
Rp2737
sg8
I00
sg9
g2733
ssS'superconservative'
p2738
(dp2739
g3
g4
((lp2740
tp2741
Rp2742
sg8
I00
sg9
g2738
ssS'organophosphorous'
p2743
(dp2744
g3
g4
((lp2745
tp2746
Rp2747
sg8
I00
sg9
g2743
ssS'immunogeneticists'
p2748
(dp2749
g3
g4
((lp2750
tp2751
Rp2752
sg8
I00
sg9
g2748
ssS'cryopreservations'
p2753
(dp2754
g3
g4
((lp2755
tp2756
Rp2757
sg8
I00
sg9
g2753
ssS'photodissociating'
p2758
(dp2759
g3
g4
((lp2760
tp2761
Rp2762
sg8
I00
sg9
g2758
ssS'micromorphologies'
p2763
(dp2764
g3
g4
((lp2765
tp2766
Rp2767
sg8
I00
sg9
g2763
ssS'dehumidifications'
p2768
(dp2769
g3
g4
((lp2770
tp2771
Rp2772
sg8
I00
sg9
g2768
ssS'choreographically'
p2773
(dp2774
g3
g4
((lp2775
tp2776
Rp2777
sg8
I00
sg9
g2773
ssS'individualization'
p2778
(dp2779
g3
g4
((lp2780
tp2781
Rp2782
sg8
I00
sg9
g2778
ssS'hyperinnervations'
p2783
(dp2784
g3
g4
((lp2785
tp2786
Rp2787
sg8
I00
sg9
g2783
ssS'configurationally'
p2788
(dp2789
g3
g4
((lp2790
tp2791
Rp2792
sg8
I00
sg9
g2788
ssS'histopathological'
p2793
(dp2794
g3
g4
((lp2795
tp2796
Rp2797
sg8
I00
sg9
g2793
ssS'plethysmographies'
p2798
(dp2799
g3
g4
((lp2800
tp2801
Rp2802
sg8
I00
sg9
g2798
ssS'irreparablenesses'
p2803
(dp2804
g3
g4
((lp2805
tp2806
Rp2807
sg8
I00
sg9
g2803
ssS'polymorphonuclear'
p2808
(dp2809
g3
g4
((lp2810
tp2811
Rp2812
sg8
I00
sg9
g2808
ssS'invulnerabilities'
p2813
(dp2814
g3
g4
((lp2815
tp2816
Rp2817
sg8
I00
sg9
g2813
ssS'precertifications'
p2818
(dp2819
g3
g4
((lp2820
tp2821
Rp2822
sg8
I00
sg9
g2818
ssS'rhabdomyosarcomas'
p2823
(dp2824
g3
g4
((lp2825
tp2826
Rp2827
sg8
I00
sg9
g2823
ssS'hydrometallurgies'
p2828
(dp2829
g3
g4
((lp2830
tp2831
Rp2832
sg8
I00
sg9
g2828
ssS'noncontradictions'
p2833
(dp2834
g3
g4
((lp2835
tp2836
Rp2837
sg8
I00
sg9
g2833
ssS'dorsiventralities'
p2838
(dp2839
g3
g4
((lp2840
S'dorsoventralities'
p2841
atp2842
Rp2843
sg8
I00
sg9
g2838
ssS'counteraccusation'
p2844
(dp2845
g3
g4
((lp2846
tp2847
Rp2848
sg8
I00
sg9
g2844
ssS'straitlacednesses'
p2849
(dp2850
g3
g4
((lp2851
tp2852
Rp2853
sg8
I00
sg9
g2849
ssS'resolidifications'
p2854
(dp2855
g3
g4
((lp2856
tp2857
Rp2858
sg8
I00
sg9
g2854
ssS'demonstrativeness'
p2859
(dp2860
g3
g4
((lp2861
tp2862
Rp2863
sg8
I00
sg9
g2859
ssS'recontextualizing'
p2864
(dp2865
g3
g4
((lp2866
tp2867
Rp2868
sg8
I00
sg9
g2864
ssS'interassociations'
p2869
(dp2870
g3
g4
((lp2871
tp2872
Rp2873
sg8
I00
sg9
g2869
ssS'transubstantiates'
p2874
(dp2875
g3
g4
((lp2876
S'transubstantiated'
p2877
atp2878
Rp2879
sg8
I00
sg9
g2874
ssS'irreversibilities'
p2880
(dp2881
g3
g4
((lp2882
tp2883
Rp2884
sg8
I00
sg9
g2880
ssS'microradiographic'
p2885
(dp2886
g3
g4
((lp2887
tp2888
Rp2889
sg8
I00
sg9
g2885
ssS'accountablenesses'
p2890
(dp2891
g3
g4
((lp2892
tp2893
Rp2894
sg8
I00
sg9
g2890
ssS'subclassification'
p2895
(dp2896
g3
g4
((lp2897
tp2898
Rp2899
sg8
I00
sg9
g2895
ssS'heterotrophically'
p2900
(dp2901
g3
g4
((lp2902
tp2903
Rp2904
sg8
I00
sg9
g2900
ssS'phototelegraphies'
p2905
(dp2906
g3
g4
((lp2907
tp2908
Rp2909
sg8
I00
sg9
g2905
ssS'fragmentarinesses'
p2910
(dp2911
g3
g4
((lp2912
tp2913
Rp2914
sg8
I00
sg9
g2910
ssS'nonrepresentative'
p2915
(dp2916
g3
g4
((lp2917
tp2918
Rp2919
sg8
I00
sg9
g2915
ssS'countercriticisms'
p2920
(dp2921
g3
g4
((lp2922
tp2923
Rp2924
sg8
I00
sg9
g2920
ssS'mineralocorticoid'
p2925
(dp2926
g3
g4
((lp2927
tp2928
Rp2929
sg8
I00
sg9
g2925
ssS'gentlemanlinesses'
p2930
(dp2931
g3
g4
((lp2932
tp2933
Rp2934
sg8
I00
sg9
g2930
ssS'irreplaceableness'
p2935
(dp2936
g3
g4
((lp2937
tp2938
Rp2939
sg8
I00
sg9
g2935
ssS'levelheadednesses'
p2940
(dp2941
g3
g4
((lp2942
tp2943
Rp2944
sg8
I00
sg9
g2940
ssS'intertranslatable'
p2945
(dp2946
g3
g4
((lp2947
tp2948
Rp2949
sg8
I00
sg9
g2945
ssg1678
(dp2950
g3
g4
((lp2951
g1675
atp2952
Rp2953
sg8
I00
sg9
g1678
ssS'unmelodiousnesses'
p2954
(dp2955
g3
g4
((lp2956
tp2957
Rp2958
sg8
I00
sg9
g2954
ssS'roentgenographies'
p2959
(dp2960
g3
g4
((lp2961
tp2962
Rp2963
sg8
I00
sg9
g2959
ssS'multiprogrammings'
p2964
(dp2965
g3
g4
((lp2966
tp2967
Rp2968
sg8
I00
sg9
g2964
ssS'intersubjectivity'
p2969
(dp2970
g3
g4
((lp2971
tp2972
Rp2973
sg8
I00
sg9
g2969
ssS'mischievousnesses'
p2974
(dp2975
g3
g4
((lp2976
tp2977
Rp2978
sg8
I00
sg9
g2974
ssS'theatricalization'
p2979
(dp2980
g3
g4
((lp2981
tp2982
Rp2983
sg8
I00
sg9
g2979
ssS'uncontrollability'
p2984
(dp2985
g3
g4
((lp2986
tp2987
Rp2988
sg8
I00
sg9
g2984
ssS'symptomatological'
p2989
(dp2990
g3
g4
((lp2991
tp2992
Rp2993
sg8
I00
sg9
g2989
ssS'rhynchocephalians'
p2994
(dp2995
g3
g4
((lp2996
tp2997
Rp2998
sg8
I00
sg9
g2994
ssS'pseudopregnancies'
p2999
(dp3000
g3
g4
((lp3001
tp3002
Rp3003
sg8
I00
sg9
g2999
ssS'impecuniousnesses'
p3004
(dp3005
g3
g4
((lp3006
tp3007
Rp3008
sg8
I00
sg9
g3004
ssS'cytomegaloviruses'
p3009
(dp3010
g3
g4
((lp3011
tp3012
Rp3013
sg8
I00
sg9
g3009
ssS'intergovernmental'
p3014
(dp3015
g3
g4
((lp3016
tp3017
Rp3018
sg8
I00
sg9
g3014
ssS'sesquicentennials'
p3019
(dp3020
g3
g4
((lp3021
tp3022
Rp3023
sg8
I00
sg9
g3019
ssS'microenvironments'
p3024
(dp3025
g3
g4
((lp3026
tp3027
Rp3028
sg8
I00
sg9
g3024
ssS'symmetricalnesses'
p3029
(dp3030
g3
g4
((lp3031
tp3032
Rp3033
sg8
I00
sg9
g3029
ssS'determinatenesses'
p3034
(dp3035
g3
g4
((lp3036
tp3037
Rp3038
sg8
I00
sg9
g3034
ssS'warrantablenesses'
p3039
(dp3040
g3
g4
((lp3041
tp3042
Rp3043
sg8
I00
sg9
g3039
ssS'understandability'
p3044
(dp3045
g3
g4
((lp3046
tp3047
Rp3048
sg8
I00
sg9
g3044
ssS'counterinfluenced'
p3049
(dp3050
g3
g4
((lp3051
S'counterinfluences'
p3052
atp3053
Rp3054
sg8
I00
sg9
g3049
ssS'complicatednesses'
p3055
(dp3056
g3
g4
((lp3057
tp3058
Rp3059
sg8
I00
sg9
g3055
ssS'communicabilities'
p3060
(dp3061
g3
g4
((lp3062
tp3063
Rp3064
sg8
I00
sg9
g3060
ssS'monochromatically'
p3065
(dp3066
g3
g4
((lp3067
tp3068
Rp3069
sg8
I00
sg9
g3065
ssS'picturesquenesses'
p3070
(dp3071
g3
g4
((lp3072
tp3073
Rp3074
sg8
I00
sg9
g3070
ssS'piezoelectrically'
p3075
(dp3076
g3
g4
((lp3077
tp3078
Rp3079
sg8
I00
sg9
g3075
ssS'confrontationists'
p3080
(dp3081
g3
g4
((lp3082
tp3083
Rp3084
sg8
I00
sg9
g3080
ssS'epidemiologically'
p3085
(dp3086
g3
g4
((lp3087
tp3088
Rp3089
sg8
I00
sg9
g3085
ssg3052
(dp3090
g3
g4
((lp3091
g3049
atp3092
Rp3093
sg8
I00
sg9
g3052
ssg976
(dp3094
g3
g4
((lp3095
g973
atp3096
Rp3097
sg8
I00
sg9
g976
ssS'oversensitivities'
p3098
(dp3099
g3
g4
((lp3100
tp3101
Rp3102
sg8
I00
sg9
g3098
ssS'cyclophosphamides'
p3103
(dp3104
g3
g4
((lp3105
tp3106
Rp3107
sg8
I00
sg9
g3103
ssS'nonenforceability'
p3108
(dp3109
g3
g4
((lp3110
tp3111
Rp3112
sg8
I00
sg9
g3108
ssS'nonanthropologist'
p3113
(dp3114
g3
g4
((lp3115
tp3116
Rp3117
sg8
I00
sg9
g3113
ssS'immunochemistries'
p3118
(dp3119
g3
g4
((lp3120
tp3121
Rp3122
sg8
I00
sg9
g3118
ssS'untranslatability'
p3123
(dp3124
g3
g4
((lp3125
tp3126
Rp3127
sg8
I00
sg9
g3123
ssS'extraterrestrials'
p3128
(dp3129
g3
g4
((lp3130
tp3131
Rp3132
sg8
I00
sg9
g3128
ssS'ovoviviparousness'
p3133
(dp3134
g3
g4
((lp3135
tp3136
Rp3137
sg8
I00
sg9
g3133
ssS'multibillionaires'
p3138
(dp3139
g3
g4
((lp3140
S'multimillionaires'
p3141
atp3142
Rp3143
sg8
I00
sg9
g3138
ssg205
(dp3144
g3
g4
((lp3145
g202
ag206
atp3146
Rp3147
sg8
I00
sg9
g205
ssS'compartmentalizes'
p3148
(dp3149
g3
g4
((lp3150
S'compartmentalized'
p3151
aS'compartmentalises'
p3152
atp3153
Rp3154
sg8
I00
sg9
g3148
ssS'crashworthinesses'
p3155
(dp3156
g3
g4
((lp3157
tp3158
Rp3159
sg8
I00
sg9
g3155
ssS'depoliticizations'
p3160
(dp3161
g3
g4
((lp3162
tp3163
Rp3164
sg8
I00
sg9
g3160
ssS'straightforwardly'
p3165
(dp3166
g3
g4
((lp3167
tp3168
Rp3169
sg8
I00
sg9
g3165
ssS'descriptivenesses'
p3170
(dp3171
g3
g4
((lp3172
tp3173
Rp3174
sg8
I00
sg9
g3170
ssg3151
(dp3175
g3
g4
((lp3176
S'compartmentalised'
p3177
ag3148
atp3178
Rp3179
sg8
I00
sg9
g3151
ssS'consequentialness'
p3180
(dp3181
g3
g4
((lp3182
tp3183
Rp3184
sg8
I00
sg9
g3180
ssS'circumstantiating'
p3185
(dp3186
g3
g4
((lp3187
tp3188
Rp3189
sg8
I00
sg9
g3185
ssS'inseparablenesses'
p3190
(dp3191
g3
g4
((lp3192
tp3193
Rp3194
sg8
I00
sg9
g3190
ssS'serviceablenesses'
p3195
(dp3196
g3
g4
((lp3197
tp3198
Rp3199
sg8
I00
sg9
g3195
ssS'paleoanthropology'
p3200
(dp3201
g3
g4
((lp3202
tp3203
Rp3204
sg8
I00
sg9
g3200
ssS'hyperimmunization'
p3205
(dp3206
g3
g4
((lp3207
tp3208
Rp3209
sg8
I00
sg9
g3205
ssS'treacherousnesses'
p3210
(dp3211
g3
g4
((lp3212
tp3213
Rp3214
sg8
I00
sg9
g3210
ssS'indomitablenesses'
p3215
(dp3216
g3
g4
((lp3217
tp3218
Rp3219
sg8
I00
sg9
g3215
ssS'counterrevolution'
p3220
(dp3221
g3
g4
((lp3222
tp3223
Rp3224
sg8
I00
sg9
g3220
ssS'arteriosclerotics'
p3225
(dp3226
g3
g4
((lp3227
tp3228
Rp3229
sg8
I00
sg9
g3225
ssS'venturesomenesses'
p3230
(dp3231
g3
g4
((lp3232
tp3233
Rp3234
sg8
I00
sg9
g3230
ssS'clinicopathologic'
p3235
(dp3236
g3
g4
((lp3237
tp3238
Rp3239
sg8
I00
sg9
g3235
ssS'onomatopoetically'
p3240
(dp3241
g3
g4
((lp3242
tp3243
Rp3244
sg8
I00
sg9
g3240
ssS'contemporaneities'
p3245
(dp3246
g3
g4
((lp3247
tp3248
Rp3249
sg8
I00
sg9
g3245
ssS'characterizations'
p3250
(dp3251
g3
g4
((lp3252
tp3253
Rp3254
sg8
I00
sg9
g3250
ssS'mesembryanthemums'
p3255
(dp3256
g3
g4
((lp3257
tp3258
Rp3259
sg8
I00
sg9
g3255
ssS'morphogenetically'
p3260
(dp3261
g3
g4
((lp3262
tp3263
Rp3264
sg8
I00
sg9
g3260
ssS'commercialization'
p3265
(dp3266
g3
g4
((lp3267
tp3268
Rp3269
sg8
I00
sg9
g3265
ssg900
(dp3270
g3
g4
((lp3271
g897
atp3272
Rp3273
sg8
I00
sg9
g900
ssS'embourgeoisements'
p3274
(dp3275
g3
g4
((lp3276
tp3277
Rp3278
sg8
I00
sg9
g3274
ssS'tempestuousnesses'
p3279
(dp3280
g3
g4
((lp3281
tp3282
Rp3283
sg8
I00
sg9
g3279
ssg3141
(dp3284
g3
g4
((lp3285
g3138
atp3286
Rp3287
sg8
I00
sg9
g3141
ssg207
(dp3288
g3
g4
((lp3289
g202
ag299
atp3290
Rp3291
sg8
I00
sg9
g207
ssS'inconspicuousness'
p3292
(dp3293
g3
g4
((lp3294
tp3295
Rp3296
sg8
I00
sg9
g3292
ssS'indefatigableness'
p3297
(dp3298
g3
g4
((lp3299
tp3300
Rp3301
sg8
I00
sg9
g3297
ssS'counterincentives'
p3302
(dp3303
g3
g4
((lp3304
tp3305
Rp3306
sg8
I00
sg9
g3302
ssS'cooperativenesses'
p3307
(dp3308
g3
g4
((lp3309
tp3310
Rp3311
sg8
I00
sg9
g3307
ssS'superromanticisms'
p3312
(dp3313
g3
g4
((lp3314
tp3315
Rp3316
sg8
I00
sg9
g3312
ssS'knowledgeableness'
p3317
(dp3318
g3
g4
((lp3319
tp3320
Rp3321
sg8
I00
sg9
g3317
ssg1873
(dp3322
g3
g4
((lp3323
g1870
atp3324
Rp3325
sg8
I00
sg9
g1873
ssS'structurelessness'
p3326
(dp3327
g3
g4
((lp3328
tp3329
Rp3330
sg8
I00
sg9
g3326
ssS'expeditiousnesses'
p3331
(dp3332
g3
g4
((lp3333
tp3334
Rp3335
sg8
I00
sg9
g3331
ssS'progressivenesses'
p3336
(dp3337
g3
g4
((lp3338
tp3339
Rp3340
sg8
I00
sg9
g3336
ssS'multitudinousness'
p3341
(dp3342
g3
g4
((lp3343
tp3344
Rp3345
sg8
I00
sg9
g3341
ssS'opportunistically'
p3346
(dp3347
g3
g4
((lp3348
tp3349
Rp3350
sg8
I00
sg9
g3346
ssS'crystallographies'
p3351
(dp3352
g3
g4
((lp3353
tp3354
Rp3355
sg8
I00
sg9
g3351
ssS'splendiferousness'
p3356
(dp3357
g3
g4
((lp3358
tp3359
Rp3360
sg8
I00
sg9
g3356
ssS'electrometallurgy'
p3361
(dp3362
g3
g4
((lp3363
tp3364
Rp3365
sg8
I00
sg9
g3361
ssS'superlativenesses'
p3366
(dp3367
g3
g4
((lp3368
tp3369
Rp3370
sg8
I00
sg9
g3366
ssS'adventuresomeness'
p3371
(dp3372
g3
g4
((lp3373
tp3374
Rp3375
sg8
I00
sg9
g3371
ssS'ethnocentricities'
p3376
(dp3377
g3
g4
((lp3378
tp3379
Rp3380
sg8
I00
sg9
g3376
ssS'hemochromatosises'
p3381
(dp3382
g3
g4
((lp3383
tp3384
Rp3385
sg8
I00
sg9
g3381
ssS'nonentertainments'
p3386
(dp3387
g3
g4
((lp3388
tp3389
Rp3390
sg8
I00
sg9
g3386
ssS'angiocardiography'
p3391
(dp3392
g3
g4
((lp3393
tp3394
Rp3395
sg8
I00
sg9
g3391
ssS'transcendentalism'
p3396
(dp3397
g3
g4
((lp3398
S'transcendentalist'
p3399
atp3400
Rp3401
sg8
I00
sg9
g3396
ssS'proportionalities'
p3402
(dp3403
g3
g4
((lp3404
tp3405
Rp3406
sg8
I00
sg9
g3402
ssS'overzealousnesses'
p3407
(dp3408
g3
g4
((lp3409
tp3410
Rp3411
sg8
I00
sg9
g3407
ssS'roundheadednesses'
p3412
(dp3413
g3
g4
((lp3414
tp3415
Rp3416
sg8
I00
sg9
g3412
ssS'semiprofessionals'
p3417
(dp3418
g3
g4
((lp3419
tp3420
Rp3421
sg8
I00
sg9
g3417
ssg3399
(dp3422
g3
g4
((lp3423
g3396
atp3424
Rp3425
sg8
I00
sg9
g3399
ssS'accommodationists'
p3426
(dp3427
g3
g4
((lp3428
tp3429
Rp3430
sg8
I00
sg9
g3426
ssS'incommunicability'
p3431
(dp3432
g3
g4
((lp3433
tp3434
Rp3435
sg8
I00
sg9
g3431
ssS'spectrophotometer'
p3436
(dp3437
g3
g4
((lp3438
tp3439
Rp3440
sg8
I00
sg9
g3436
ssS'cytotaxonomically'
p3441
(dp3442
g3
g4
((lp3443
tp3444
Rp3445
sg8
I00
sg9
g3441
ssS'supercorporations'
p3446
(dp3447
g3
g4
((lp3448
tp3449
Rp3450
sg8
I00
sg9
g3446
ssS'transgenerational'
p3451
(dp3452
g3
g4
((lp3453
tp3454
Rp3455
sg8
I00
sg9
g3451
ssS'counterstatements'
p3456
(dp3457
g3
g4
((lp3458
tp3459
Rp3460
sg8
I00
sg9
g3456
ssS'imperishabilities'
p3461
(dp3462
g3
g4
((lp3463
tp3464
Rp3465
sg8
I00
sg9
g3461
ssS'magnanimousnesses'
p3466
(dp3467
g3
g4
((lp3468
tp3469
Rp3470
sg8
I00
sg9
g3466
ssS'nearsightednesses'
p3471
(dp3472
g3
g4
((lp3473
tp3474
Rp3475
sg8
I00
sg9
g3471
ssS'jurisprudentially'
p3476
(dp3477
g3
g4
((lp3478
tp3479
Rp3480
sg8
I00
sg9
g3476
ssg571
(dp3481
g3
g4
((lp3482
g568
atp3483
Rp3484
sg8
I00
sg9
g571
ssS'obstructivenesses'
p3485
(dp3486
g3
g4
((lp3487
tp3488
Rp3489
sg8
I00
sg9
g3485
ssS'multigenerational'
p3490
(dp3491
g3
g4
((lp3492
tp3493
Rp3494
sg8
I00
sg9
g3490
ssS'pheochromocytomas'
p3495
(dp3496
g3
g4
((lp3497
tp3498
Rp3499
sg8
I00
sg9
g3495
ssS'latitudinarianism'
p3500
(dp3501
g3
g4
((lp3502
tp3503
Rp3504
sg8
I00
sg9
g3500
ssS'irreproachability'
p3505
(dp3506
g3
g4
((lp3507
tp3508
Rp3509
sg8
I00
sg9
g3505
ssS'noncommunications'
p3510
(dp3511
g3
g4
((lp3512
tp3513
Rp3514
sg8
I00
sg9
g3510
ssS'multiculturalisms'
p3515
(dp3516
g3
g4
((lp3517
tp3518
Rp3519
sg8
I00
sg9
g3515
ssS'overorchestrating'
p3520
(dp3521
g3
g4
((lp3522
tp3523
Rp3524
sg8
I00
sg9
g3520
ssS'psychotherapeutic'
p3525
(dp3526
g3
g4
((lp3527
tp3528
Rp3529
sg8
I00
sg9
g3525
ssS'disgracefulnesses'
p3530
(dp3531
g3
g4
((lp3532
tp3533
Rp3534
sg8
I00
sg9
g3530
ssS'nonreappointments'
p3535
(dp3536
g3
g4
((lp3537
tp3538
Rp3539
sg8
I00
sg9
g3535
ssS'cholecystectomies'
p3540
(dp3541
g3
g4
((lp3542
tp3543
Rp3544
sg8
I00
sg9
g3540
ssS'conventionalizing'
p3545
(dp3546
g3
g4
((lp3547
tp3548
Rp3549
sg8
I00
sg9
g3545
ssg747
(dp3550
g3
g4
((lp3551
g744
atp3552
Rp3553
sg8
I00
sg9
g747
ssS'trichloroethylene'
p3554
(dp3555
g3
g4
((lp3556
tp3557
Rp3558
sg8
I00
sg9
g3554
ssS'uniformitarianism'
p3559
(dp3560
g3
g4
((lp3561
tp3562
Rp3563
sg8
I00
sg9
g3559
ssS'sphygmomanometers'
p3564
(dp3565
g3
g4
((lp3566
tp3567
Rp3568
sg8
I00
sg9
g3564
ssS'overcompensations'
p3569
(dp3570
g3
g4
((lp3571
tp3572
Rp3573
sg8
I00
sg9
g3569
ssS'micropaleontology'
p3574
(dp3575
g3
g4
((lp3576
tp3577
Rp3578
sg8
I00
sg9
g3574
ssS'noncooperationist'
p3579
(dp3580
g3
g4
((lp3581
tp3582
Rp3583
sg8
I00
sg9
g3579
ssS'depressurizations'
p3584
(dp3585
g3
g4
((lp3586
tp3587
Rp3588
sg8
I00
sg9
g3584
ssS'ultracentrifuging'
p3589
(dp3590
g3
g4
((lp3591
tp3592
Rp3593
sg8
I00
sg9
g3589
ssS'electropherograms'
p3594
(dp3595
g3
g4
((lp3596
tp3597
Rp3598
sg8
I00
sg9
g3594
ssS'undesirablenesses'
p3599
(dp3600
g3
g4
((lp3601
tp3602
Rp3603
sg8
I00
sg9
g3599
ssS'suspensefulnesses'
p3604
(dp3605
g3
g4
((lp3606
tp3607
Rp3608
sg8
I00
sg9
g3604
ssS'unceremoniousness'
p3609
(dp3610
g3
g4
((lp3611
tp3612
Rp3613
sg8
I00
sg9
g3609
ssS'nonproliferations'
p3614
(dp3615
g3
g4
((lp3616
tp3617
Rp3618
sg8
I00
sg9
g3614
ssS'photoconductivity'
p3619
(dp3620
g3
g4
((lp3621
tp3622
Rp3623
sg8
I00
sg9
g3619
ssS'pharmacotherapies'
p3624
(dp3625
g3
g4
((lp3626
tp3627
Rp3628
sg8
I00
sg9
g3624
ssS'fashionablenesses'
p3629
(dp3630
g3
g4
((lp3631
tp3632
Rp3633
sg8
I00
sg9
g3629
ssS'phenylethylamines'
p3634
(dp3635
g3
g4
((lp3636
tp3637
Rp3638
sg8
I00
sg9
g3634
ssS'provincialization'
p3639
(dp3640
g3
g4
((lp3641
tp3642
Rp3643
sg8
I00
sg9
g3639
ssS'predeterminations'
p3644
(dp3645
g3
g4
((lp3646
tp3647
Rp3648
sg8
I00
sg9
g3644
ssS'microdensitometry'
p3649
(dp3650
g3
g4
((lp3651
tp3652
Rp3653
sg8
I00
sg9
g3649
ssS'incompatibilities'
p3654
(dp3655
g3
g4
((lp3656
tp3657
Rp3658
sg8
I00
sg9
g3654
ssS'pretentiousnesses'
p3659
(dp3660
g3
g4
((lp3661
tp3662
Rp3663
sg8
I00
sg9
g3659
ssg813
(dp3664
g3
g4
((lp3665
g810
atp3666
Rp3667
sg8
I00
sg9
g813
ssS'otolaryngologists'
p3668
(dp3669
g3
g4
((lp3670
tp3671
Rp3672
sg8
I00
sg9
g3668
ssS'psychosexualities'
p3673
(dp3674
g3
g4
((lp3675
tp3676
Rp3677
sg8
I00
sg9
g3673
ssS'instructivenesses'
p3678
(dp3679
g3
g4
((lp3680
tp3681
Rp3682
sg8
I00
sg9
g3678
ssS'electrocardiogram'
p3683
(dp3684
g3
g4
((lp3685
tp3686
Rp3687
sg8
I00
sg9
g3683
ssS'antirationalities'
p3688
(dp3689
g3
g4
((lp3690
tp3691
Rp3692
sg8
I00
sg9
g3688
ssS'nonproductiveness'
p3693
(dp3694
g3
g4
((lp3695
tp3696
Rp3697
sg8
I00
sg9
g3693
ssS'countertendencies'
p3698
(dp3699
g3
g4
((lp3700
tp3701
Rp3702
sg8
I00
sg9
g3698
ssS'convertiblenesses'
p3703
(dp3704
g3
g4
((lp3705
tp3706
Rp3707
sg8
I00
sg9
g3703
ssS'conceptualization'
p3708
(dp3709
g3
g4
((lp3710
tp3711
Rp3712
sg8
I00
sg9
g3708
ssS'carboxypeptidases'
p3713
(dp3714
g3
g4
((lp3715
tp3716
Rp3717
sg8
I00
sg9
g3713
ssS'hydroelectrically'
p3718
(dp3719
g3
g4
((lp3720
tp3721
Rp3722
sg8
I00
sg9
g3718
ssS'troublesomenesses'
p3723
(dp3724
g3
g4
((lp3725
tp3726
Rp3727
sg8
I00
sg9
g3723
ssS'biogeochemistries'
p3728
(dp3729
g3
g4
((lp3730
tp3731
Rp3732
sg8
I00
sg9
g3728
ssg839
(dp3733
g3
g4
((lp3734
g836
atp3735
Rp3736
sg8
I00
sg9
g839
ssS'transparentnesses'
p3737
(dp3738
g3
g4
((lp3739
tp3740
Rp3741
sg8
I00
sg9
g3737
ssS'ultrasonographers'
p3742
(dp3743
g3
g4
((lp3744
tp3745
Rp3746
sg8
I00
sg9
g3742
ssg19
(dp3747
g3
g4
((lp3748
g57
ag15
atp3749
Rp3750
sg8
I00
sg9
g19
ssS'cardiorespiratory'
p3751
(dp3752
g3
g4
((lp3753
tp3754
Rp3755
sg8
I00
sg9
g3751
ssS'temporomandibular'
p3756
(dp3757
g3
g4
((lp3758
tp3759
Rp3760
sg8
I00
sg9
g3756
ssS'postrevolutionary'
p3761
(dp3762
g3
g4
((lp3763
tp3764
Rp3765
sg8
I00
sg9
g3761
ssS'tridimensionality'
p3766
(dp3767
g3
g4
((lp3768
tp3769
Rp3770
sg8
I00
sg9
g3766
ssS'unforgivingnesses'
p3771
(dp3772
g3
g4
((lp3773
tp3774
Rp3775
sg8
I00
sg9
g3771
ssS'transferabilities'
p3776
(dp3777
g3
g4
((lp3778
tp3779
Rp3780
sg8
I00
sg9
g3776
ssS'comprehensiveness'
p3781
(dp3782
g3
g4
((lp3783
tp3784
Rp3785
sg8
I00
sg9
g3781
ssS'hypophysectomizes'
p3786
(dp3787
g3
g4
((lp3788
S'hypophysectomized'
p3789
atp3790
Rp3791
sg8
I00
sg9
g3786
ssS'universalizations'
p3792
(dp3793
g3
g4
((lp3794
tp3795
Rp3796
sg8
I00
sg9
g3792
ssS'circumstantiality'
p3797
(dp3798
g3
g4
((lp3799
tp3800
Rp3801
sg8
I00
sg9
g3797
ssS'involuntarinesses'
p3802
(dp3803
g3
g4
((lp3804
tp3805
Rp3806
sg8
I00
sg9
g3802
ssg57
(dp3807
g3
g4
((lp3808
g18
ag19
atp3809
Rp3810
sg8
I00
sg9
g57
ssg3789
(dp3811
g3
g4
((lp3812
g3786
atp3813
Rp3814
sg8
I00
sg9
g3789
ssS'otolaryngological'
p3815
(dp3816
g3
g4
((lp3817
tp3818
Rp3819
sg8
I00
sg9
g3815
ssS'unfashionableness'
p3820
(dp3821
g3
g4
((lp3822
tp3823
Rp3824
sg8
I00
sg9
g3820
ssS'paternalistically'
p3825
(dp3826
g3
g4
((lp3827
tp3828
Rp3829
sg8
I00
sg9
g3825
ssS'pictorializations'
p3830
(dp3831
g3
g4
((lp3832
tp3833
Rp3834
sg8
I00
sg9
g3830
ssS'precipitatenesses'
p3835
(dp3836
g3
g4
((lp3837
tp3838
Rp3839
sg8
I00
sg9
g3835
ssS'physicochemically'
p3840
(dp3841
g3
g4
((lp3842
tp3843
Rp3844
sg8
I00
sg9
g3840
ssS'warmheartednesses'
p3845
(dp3846
g3
g4
((lp3847
tp3848
Rp3849
sg8
I00
sg9
g3845
ssS'overcommunication'
p3850
(dp3851
g3
g4
((lp3852
tp3853
Rp3854
sg8
I00
sg9
g3850
ssS'unacceptabilities'
p3855
(dp3856
g3
g4
((lp3857
tp3858
Rp3859
sg8
I00
sg9
g3855
ssS'phosphoglycerates'
p3860
(dp3861
g3
g4
((lp3862
tp3863
Rp3864
sg8
I00
sg9
g3860
ssS'fantasticalnesses'
p3865
(dp3866
g3
g4
((lp3867
tp3868
Rp3869
sg8
I00
sg9
g3865
ssg3177
(dp3870
g3
g4
((lp3871
g3151
ag3152
atp3872
Rp3873
sg8
I00
sg9
g3177
ssS'dephosphorylating'
p3874
(dp3875
g3
g4
((lp3876
tp3877
Rp3878
sg8
I00
sg9
g3874
ssS'hydrometallurgist'
p3879
(dp3880
g3
g4
((lp3881
tp3882
Rp3883
sg8
I00
sg9
g3879
ssS'nonavailabilities'
p3884
(dp3885
g3
g4
((lp3886
tp3887
Rp3888
sg8
I00
sg9
g3884
ssS'restrictivenesses'
p3889
(dp3890
g3
g4
((lp3891
tp3892
Rp3893
sg8
I00
sg9
g3889
ssS'demonstrabilities'
p3894
(dp3895
g3
g4
((lp3896
tp3897
Rp3898
sg8
I00
sg9
g3894
ssS'parasitologically'
p3899
(dp3900
g3
g4
((lp3901
tp3902
Rp3903
sg8
I00
sg9
g3899
ssg3152
(dp3904
g3
g4
((lp3905
g3177
ag3148
atp3906
Rp3907
sg8
I00
sg9
g3152
ssS'technicalizations'
p3908
(dp3909
g3
g4
((lp3910
tp3911
Rp3912
sg8
I00
sg9
g3908
ssS'misappropriations'
p3913
(dp3914
g3
g4
((lp3915
tp3916
Rp3917
sg8
I00
sg9
g3913
ssS'superintellectual'
p3918
(dp3919
g3
g4
((lp3920
tp3921
Rp3922
sg8
I00
sg9
g3918
ssS'ineffectivenesses'
p3923
(dp3924
g3
g4
((lp3925
tp3926
Rp3927
sg8
I00
sg9
g3923
ssS'counterespionages'
p3928
(dp3929
g3
g4
((lp3930
tp3931
Rp3932
sg8
I00
sg9
g3928
ssS'reconceptualizing'
p3933
(dp3934
g3
g4
((lp3935
tp3936
Rp3937
sg8
I00
sg9
g3933
ssS'metapsychological'
p3938
(dp3939
g3
g4
((lp3940
tp3941
Rp3942
sg8
I00
sg9
g3938
ssg2367
(dp3943
g3
g4
((lp3944
g2364
atp3945
Rp3946
sg8
I00
sg9
g2367
ssS'heterosexualities'
p3947
(dp3948
g3
g4
((lp3949
tp3950
Rp3951
sg8
I00
sg9
g3947
ssS'probabilistically'
p3952
(dp3953
g3
g4
((lp3954
tp3955
Rp3956
sg8
I00
sg9
g3952
ssS'conspicuousnesses'
p3957
(dp3958
g3
g4
((lp3959
tp3960
Rp3961
sg8
I00
sg9
g3957
ssS'heterogeneousness'
p3962
(dp3963
g3
g4
((lp3964
tp3965
Rp3966
sg8
I00
sg9
g3962
ssS'contradistinguish'
p3967
(dp3968
g3
g4
((lp3969
tp3970
Rp3971
sg8
I00
sg9
g3967
ssS'counterpetitioned'
p3972
(dp3973
g3
g4
((lp3974
tp3975
Rp3976
sg8
I00
sg9
g3972
ssS'longsightednesses'
p3977
(dp3978
g3
g4
((lp3979
tp3980
Rp3981
sg8
I00
sg9
g3977
ssg2533
(dp3982
g3
g4
((lp3983
g2530
atp3984
Rp3985
sg8
I00
sg9
g2533
ssS'electromechanical'
p3986
(dp3987
g3
g4
((lp3988
tp3989
Rp3990
sg8
I00
sg9
g3986
ssS'fissiparousnesses'
p3991
(dp3992
g3
g4
((lp3993
tp3994
Rp3995
sg8
I00
sg9
g3991
ssS'immunogenetically'
p3996
(dp3997
g3
g4
((lp3998
tp3999
Rp4000
sg8
I00
sg9
g3996
ssg2841
(dp4001
g3
g4
((lp4002
g2838
atp4003
Rp4004
sg8
I00
sg9
g2841
ssS'triphenylmethanes'
p4005
(dp4006
g3
g4
((lp4007
tp4008
Rp4009
sg8
I00
sg9
g4005
ssS'immunosuppression'
p4010
(dp4011
g3
g4
((lp4012
tp4013
Rp4014
sg8
I00
sg9
g4010
ssS'overconscientious'
p4015
(dp4016
g3
g4
((lp4017
tp4018
Rp4019
sg8
I00
sg9
g4015
ssS'lymphangiographic'
p4020
(dp4021
g3
g4
((lp4022
tp4023
Rp4024
sg8
I00
sg9
g4020
ssS'ribonucleoprotein'
p4025
(dp4026
g3
g4
((lp4027
tp4028
Rp4029
sg8
I00
sg9
g4025
ssS'supercivilization'
p4030
(dp4031
g3
g4
((lp4032
tp4033
Rp4034
sg8
I00
sg9
g4030
ssg1632
(dp4035
g3
g4
((lp4036
g1629
atp4037
Rp4038
sg8
I00
sg9
g1632
ssS'contraindications'
p4039
(dp4040
g3
g4
((lp4041
tp4042
Rp4043
sg8
I00
sg9
g4039
ssS'pyroelectricities'
p4044
(dp4045
g3
g4
((lp4046
tp4047
Rp4048
sg8
I00
sg9
g4044
ssS'responsiblenesses'
p4049
(dp4050
g3
g4
((lp4051
tp4052
Rp4053
sg8
I00
sg9
g4049
ssS'reconcilabilities'
p4054
(dp4055
g3
g4
((lp4056
tp4057
Rp4058
sg8
I00
sg9
g4054
ssS'radioautographies'
p4059
(dp4060
g3
g4
((lp4061
tp4062
Rp4063
sg8
I00
sg9
g4059
ssS'dedifferentiation'
p4064
(dp4065
g3
g4
((lp4066
tp4067
Rp4068
sg8
I00
sg9
g4064
ssS'unconsciousnesses'
p4069
(dp4070
g3
g4
((lp4071
tp4072
Rp4073
sg8
I00
sg9
g4069
ssS'intellectualities'
p4074
(dp4075
g3
g4
((lp4076
tp4077
Rp4078
sg8
I00
sg9
g4074
ssS'maneuverabilities'
p4079
(dp4080
g3
g4
((lp4081
tp4082
Rp4083
sg8
I00
sg9
g4079
ssS'flirtatiousnesses'
p4084
(dp4085
g3
g4
((lp4086
tp4087
Rp4088
sg8
I00
sg9
g4084
ssS'spectroheliograms'
p4089
(dp4090
g3
g4
((lp4091
tp4092
Rp4093
sg8
I00
sg9
g4089
ssS'phytopathological'
p4094
(dp4095
g3
g4
((lp4096
tp4097
Rp4098
sg8
I00
sg9
g4094
ssS'dispassionateness'
p4099
(dp4100
g3
g4
((lp4101
tp4102
Rp4103
sg8
I00
sg9
g4099
ssS'depersonalization'
p4104
(dp4105
g3
g4
((lp4106
tp4107
Rp4108
sg8
I00
sg9
g4104
ssS'exceptionalnesses'
p4109
(dp4110
g3
g4
((lp4111
tp4112
Rp4113
sg8
I00
sg9
g4109
ssS'coadministrations'
p4114
(dp4115
g3
g4
((lp4116
tp4117
Rp4118
sg8
I00
sg9
g4114
ssS'anticonservations'
p4119
(dp4120
g3
g4
((lp4121
tp4122
Rp4123
sg8
I00
sg9
g4119
ssS'retroperitoneally'
p4124
(dp4125
g3
g4
((lp4126
tp4127
Rp4128
sg8
I00
sg9
g4124
ssS'thermostabilities'
p4129
(dp4130
g3
g4
((lp4131
tp4132
Rp4133
sg8
I00
sg9
g4129
ssS'spiritualizations'
p4134
(dp4135
g3
g4
((lp4136
tp4137
Rp4138
sg8
I00
sg9
g4134
ssS'psychopathologist'
p4139
(dp4140
g3
g4
((lp4141
tp4142
Rp4143
sg8
I00
sg9
g4139
ssS'industriousnesses'
p4144
(dp4145
g3
g4
((lp4146
tp4147
Rp4148
sg8
I00
sg9
g4144
ssS'irresponsibleness'
p4149
(dp4150
g3
g4
((lp4151
tp4152
Rp4153
sg8
I00
sg9
g4149
ssS'lepidopterologist'
p4154
(dp4155
g3
g4
((lp4156
tp4157
Rp4158
sg8
I00
sg9
g4154
ssS'intrathoracically'
p4159
(dp4160
g3
g4
((lp4161
tp4162
Rp4163
sg8
I00
sg9
g4159
ssS'hyperpigmentation'
p4164
(dp4165
g3
g4
((lp4166
tp4167
Rp4168
sg8
I00
sg9
g4164
ssS'underutilizations'
p4169
(dp4170
g3
g4
((lp4171
tp4172
Rp4173
sg8
I00
sg9
g4169
ssS'dihydroxyacetones'
p4174
(dp4175
g3
g4
((lp4176
tp4177
Rp4178
sg8
I00
sg9
g4174
ssS'inexpressibleness'
p4179
(dp4180
g3
g4
((lp4181
tp4182
Rp4183
sg8
I00
sg9
g4179
ssS'amphitheatrically'
p4184
(dp4185
g3
g4
((lp4186
tp4187
Rp4188
sg8
I00
sg9
g4184
ssS'pharisaicalnesses'
p4189
(dp4190
g3
g4
((lp4191
tp4192
Rp4193
sg8
I00
sg9
g4189
ssS'complementarities'
p4194
(dp4195
g3
g4
((lp4196
tp4197
Rp4198
sg8
I00
sg9
g4194
ssS'quarrelsomenesses'
p4199
(dp4200
g3
g4
((lp4201
tp4202
Rp4203
sg8
I00
sg9
g4199
ssS'purposelessnesses'
p4204
(dp4205
g3
g4
((lp4206
tp4207
Rp4208
sg8
I00
sg9
g4204
ssS'consideratenesses'
p4209
(dp4210
g3
g4
((lp4211
tp4212
Rp4213
sg8
I00
sg9
g4209
ssS'nonconfrontations'
p4214
(dp4215
g3
g4
((lp4216
tp4217
Rp4218
sg8
I00
sg9
g4214
ssS'methemoglobinemia'
p4219
(dp4220
g3
g4
((lp4221
tp4222
Rp4223
sg8
I00
sg9
g4219
ssS'chromolithographs'
p4224
(dp4225
g3
g4
((lp4226
S'chromolithography'
p4227
atp4228
Rp4229
sg8
I00
sg9
g4224
ssS'microreproduction'
p4230
(dp4231
g3
g4
((lp4232
tp4233
Rp4234
sg8
I00
sg9
g4230
ssS'paraformaldehydes'
p4235
(dp4236
g3
g4
((lp4237
tp4238
Rp4239
sg8
I00
sg9
g4235
ssS'mischaracterizing'
p4240
(dp4241
g3
g4
((lp4242
tp4243
Rp4244
sg8
I00
sg9
g4240
ssS'reproducibilities'
p4245
(dp4246
g3
g4
((lp4247
tp4248
Rp4249
sg8
I00
sg9
g4245
ssg4227
(dp4250
g3
g4
((lp4251
g4224
atp4252
Rp4253
sg8
I00
sg9
g4227
ssS'destructibilities'
p4254
(dp4255
g3
g4
((lp4256
tp4257
Rp4258
sg8
I00
sg9
g4254
ssS'hardheartednesses'
p4259
(dp4260
g3
g4
((lp4261
tp4262
Rp4263
sg8
I00
sg9
g4259
ssS'photointerpreters'
p4264
(dp4265
g3
g4
((lp4266
tp4267
Rp4268
sg8
I00
sg9
g4264
ssS'electrooculograms'
p4269
(dp4270
g3
g4
((lp4271
tp4272
Rp4273
sg8
I00
sg9
g4269
ssS'vasoconstrictions'
p4274
(dp4275
g3
g4
((lp4276
tp4277
Rp4278
sg8
I00
sg9
g4274
ssS'microminiaturized'
p4279
(dp4280
g3
g4
((lp4281
tp4282
Rp4283
sg8
I00
sg9
g4279
ssS'provocativenesses'
p4284
(dp4285
g3
g4
((lp4286
tp4287
Rp4288
sg8
I00
sg9
g4284
ssS'contentiousnesses'
p4289
(dp4290
g3
g4
((lp4291
tp4292
Rp4293
sg8
I00
sg9
g4289
ssS'transilluminating'
p4294
(dp4295
g3
g4
((lp4296
tp4297
Rp4298
sg8
I00
sg9
g4294
ssS'psychodynamically'
p4299
(dp4300
g3
g4
((lp4301
tp4302
Rp4303
sg8
I00
sg9
g4299
ssS'microseismicities'
p4304
(dp4305
g3
g4
((lp4306
tp4307
Rp4308
sg8
I00
sg9
g4304
ssS'interprofessional'
p4309
(dp4310
g3
g4
((lp4311
tp4312
Rp4313
sg8
I00
sg9
g4309
ssg1371
(dp4314
g3
g4
((lp4315
g1368
atp4316
Rp4317
sg8
I00
sg9
g1371
ssS'immunohematologic'
p4318
(dp4319
g3
g4
((lp4320
tp4321
Rp4322
sg8
I00
sg9
g4318
ssS'disadvantageously'
p4323
(dp4324
g3
g4
((lp4325
tp4326
Rp4327
sg8
I00
sg9
g4323
ssS'exaggeratednesses'
p4328
(dp4329
g3
g4
((lp4330
tp4331
Rp4332
sg8
I00
sg9
g4328
ssS'decriminalization'
p4333
(dp4334
g3
g4
((lp4335
tp4336
Rp4337
sg8
I00
sg9
g4333
ssS'unapproachability'
p4338
(dp4339
g3
g4
((lp4340
tp4341
Rp4342
sg8
I00
sg9
g4338
ssS'suppressibilities'
p4343
(dp4344
g3
g4
((lp4345
tp4346
Rp4347
sg8
I00
sg9
g4343
ssS'teleconferencings'
p4348
(dp4349
g3
g4
((lp4350
tp4351
Rp4352
sg8
I00
sg9
g4348
ssS'anthropomorphized'
p4353
(dp4354
g3
g4
((lp4355
S'anthropomorphizes'
p4356
atp4357
Rp4358
sg8
I00
sg9
g4353
ssS'inquisitivenesses'
p4359
(dp4360
g3
g4
((lp4361
tp4362
Rp4363
sg8
I00
sg9
g4359
ssS'maladministration'
p4364
(dp4365
g3
g4
((lp4366
tp4367
Rp4368
sg8
I00
sg9
g4364
ssS'thoughtlessnesses'
p4369
(dp4370
g3
g4
((lp4371
tp4372
Rp4373
sg8
I00
sg9
g4369
ssS'viscoelasticities'
p4374
(dp4375
g3
g4
((lp4376
tp4377
Rp4378
sg8
I00
sg9
g4374
ssg987
(dp4379
g3
g4
((lp4380
g984
aS'reconstructionism'
p4381
atp4382
Rp4383
sg8
I00
sg9
g987
ssS'nonsensicalnesses'
p4384
(dp4385
g3
g4
((lp4386
tp4387
Rp4388
sg8
I00
sg9
g4384
ssS'immunocompetences'
p4389
(dp4390
g3
g4
((lp4391
tp4392
Rp4393
sg8
I00
sg9
g4389
ssS'neuropathologists'
p4394
(dp4395
g3
g4
((lp4396
tp4397
Rp4398
sg8
I00
sg9
g4394
ssS'pathophysiologies'
p4399
(dp4400
g3
g4
((lp4401
tp4402
Rp4403
sg8
I00
sg9
g4399
ssg4356
(dp4404
g3
g4
((lp4405
g4353
atp4406
Rp4407
sg8
I00
sg9
g4356
ssS'uncompetitiveness'
p4408
(dp4409
g3
g4
((lp4410
tp4411
Rp4412
sg8
I00
sg9
g4408
ssS'nonmanufacturings'
p4413
(dp4414
g3
g4
((lp4415
tp4416
Rp4417
sg8
I00
sg9
g4413
ssS'thermoperiodicity'
p4418
(dp4419
g3
g4
((lp4420
tp4421
Rp4422
sg8
I00
sg9
g4418
ssS'emotionlessnesses'
p4423
(dp4424
g3
g4
((lp4425
tp4426
Rp4427
sg8
I00
sg9
g4423
ssS'unmitigatednesses'
p4428
(dp4429
g3
g4
((lp4430
tp4431
Rp4432
sg8
I00
sg9
g4428
ssS'overextrapolation'
p4433
(dp4434
g3
g4
((lp4435
tp4436
Rp4437
sg8
I00
sg9
g4433
ssS'psychobiographies'
p4438
(dp4439
g3
g4
((lp4440
tp4441
Rp4442
sg8
I00
sg9
g4438
ssS'interrelationship'
p4443
(dp4444
g3
g4
((lp4445
tp4446
Rp4447
sg8
I00
sg9
g4443
ssS'everlastingnesses'
p4448
(dp4449
g3
g4
((lp4450
tp4451
Rp4452
sg8
I00
sg9
g4448
ssS'monosyllabicities'
p4453
(dp4454
g3
g4
((lp4455
tp4456
Rp4457
sg8
I00
sg9
g4453
ssg1730
(dp4458
g3
g4
((lp4459
g1727
atp4460
Rp4461
sg8
I00
sg9
g1730
ssS'depolymerizations'
p4462
(dp4463
g3
g4
((lp4464
tp4465
Rp4466
sg8
I00
sg9
g4462
ssS'paradoxicalnesses'
p4467
(dp4468
g3
g4
((lp4469
tp4470
Rp4471
sg8
I00
sg9
g4467
ssS'distressfulnesses'
p4472
(dp4473
g3
g4
((lp4474
tp4475
Rp4476
sg8
I00
sg9
g4472
ssS'contractibilities'
p4477
(dp4478
g3
g4
((lp4479
tp4480
Rp4481
sg8
I00
sg9
g4477
ssS'polycondensations'
p4482
(dp4483
g3
g4
((lp4484
tp4485
Rp4486
sg8
I00
sg9
g4482
ssS'mistranscriptions'
p4487
(dp4488
g3
g4
((lp4489
tp4490
Rp4491
sg8
I00
sg9
g4487
ssS'nonprofessionally'
p4492
(dp4493
g3
g4
((lp4494
tp4495
Rp4496
sg8
I00
sg9
g4492
ssS'radioisotopically'
p4497
(dp4498
g3
g4
((lp4499
tp4500
Rp4501
sg8
I00
sg9
g4497
ssS'irrecoverableness'
p4502
(dp4503
g3
g4
((lp4504
tp4505
Rp4506
sg8
I00
sg9
g4502
ssS'photolithographed'
p4507
(dp4508
g3
g4
((lp4509
tp4510
Rp4511
sg8
I00
sg9
g4507
ssS'punctiliousnesses'
p4512
(dp4513
g3
g4
((lp4514
tp4515
Rp4516
sg8
I00
sg9
g4512
ssS'polarographically'
p4517
(dp4518
g3
g4
((lp4519
tp4520
Rp4521
sg8
I00
sg9
g4517
ssg1714
(dp4522
g3
g4
((lp4523
g1711
atp4524
Rp4525
sg8
I00
sg9
g1714
ssS'hyperpolarization'
p4526
(dp4527
g3
g4
((lp4528
tp4529
Rp4530
sg8
I00
sg9
g4526
ssg1551
(dp4531
g3
g4
((lp4532
g1548
atp4533
Rp4534
sg8
I00
sg9
g1551
ssS'politicalizations'
p4535
(dp4536
g3
g4
((lp4537
tp4538
Rp4539
sg8
I00
sg9
g4535
ssS'xeroradiographies'
p4540
(dp4541
g3
g4
((lp4542
tp4543
Rp4544
sg8
I00
sg9
g4540
ssS'halfheartednesses'
p4545
(dp4546
g3
g4
((lp4547
tp4548
Rp4549
sg8
I00
sg9
g4545
ssS'irreproducibility'
p4550
(dp4551
g3
g4
((lp4552
tp4553
Rp4554
sg8
I00
sg9
g4550
ssS'floriferousnesses'
p4555
(dp4556
g3
g4
((lp4557
tp4558
Rp4559
sg8
I00
sg9
g4555
ssS'immunosuppressive'
p4560
(dp4561
g3
g4
((lp4562
tp4563
Rp4564
sg8
I00
sg9
g4560
ssS'irrevocablenesses'
p4565
(dp4566
g3
g4
((lp4567
tp4568
Rp4569
sg8
I00
sg9
g4565
ssS'lymphadenopathies'
p4570
(dp4571
g3
g4
((lp4572
tp4573
Rp4574
sg8
I00
sg9
g4570
ssS'superregenerative'
p4575
(dp4576
g3
g4
((lp4577
tp4578
Rp4579
sg8
I00
sg9
g4575
ssS'anticlimactically'
p4580
(dp4581
g3
g4
((lp4582
tp4583
Rp4584
sg8
I00
sg9
g4580
ssS'photodissociation'
p4585
(dp4586
g3
g4
((lp4587
tp4588
Rp4589
sg8
I00
sg9
g4585
ssS'misclassification'
p4590
(dp4591
g3
g4
((lp4592
tp4593
Rp4594
sg8
I00
sg9
g4590
ssS'historiographical'
p4595
(dp4596
g3
g4
((lp4597
tp4598
Rp4599
sg8
I00
sg9
g4595
ssS'superminicomputer'
p4600
(dp4601
g3
g4
((lp4602
tp4603
Rp4604
sg8
I00
sg9
g4600
ssS'orthopsychiatries'
p4605
(dp4606
g3
g4
((lp4607
tp4608
Rp4609
sg8
I00
sg9
g4605
ssg56
(dp4610
g3
g4
((lp4611
g18
ag55
atp4612
Rp4613
sg8
I00
sg9
g56
ssS'photoreactivating'
p4614
(dp4615
g3
g4
((lp4616
tp4617
Rp4618
sg8
I00
sg9
g4614
ssS'neurophysiologies'
p4619
(dp4620
g3
g4
((lp4621
tp4622
Rp4623
sg8
I00
sg9
g4619
ssS'inaccessibilities'
p4624
(dp4625
g3
g4
((lp4626
tp4627
Rp4628
sg8
I00
sg9
g4624
ssS'impersonalization'
p4629
(dp4630
g3
g4
((lp4631
tp4632
Rp4633
sg8
I00
sg9
g4629
ssg2665
(dp4634
g3
g4
((lp4635
g2662
atp4636
Rp4637
sg8
I00
sg9
g2665
ssS'swellheadednesses'
p4638
(dp4639
g3
g4
((lp4640
tp4641
Rp4642
sg8
I00
sg9
g4638
ssS'supranationalists'
p4643
(dp4644
g3
g4
((lp4645
S'supranationalisms'
p4646
atp4647
Rp4648
sg8
I00
sg9
g4643
ssS'materialistically'
p4649
(dp4650
g3
g4
((lp4651
tp4652
Rp4653
sg8
I00
sg9
g4649
ssS'counterblockading'
p4654
(dp4655
g3
g4
((lp4656
tp4657
Rp4658
sg8
I00
sg9
g4654
ssS'indefinablenesses'
p4659
(dp4660
g3
g4
((lp4661
tp4662
Rp4663
sg8
I00
sg9
g4659
ssS'competitivenesses'
p4664
(dp4665
g3
g4
((lp4666
tp4667
Rp4668
sg8
I00
sg9
g4664
ssS'antihypertensives'
p4669
(dp4670
g3
g4
((lp4671
tp4672
Rp4673
sg8
I00
sg9
g4669
ssS'electronegativity'
p4674
(dp4675
g3
g4
((lp4676
tp4677
Rp4678
sg8
I00
sg9
g4674
ssS'distastefulnesses'
p4679
(dp4680
g3
g4
((lp4681
tp4682
Rp4683
sg8
I00
sg9
g4679
ssS'constitutionality'
p4684
(dp4685
g3
g4
((lp4686
tp4687
Rp4688
sg8
I00
sg9
g4684
ssS'disreputabilities'
p4689
(dp4690
g3
g4
((lp4691
tp4692
Rp4693
sg8
I00
sg9
g4689
ssS'interdependencies'
p4694
(dp4695
g3
g4
((lp4696
tp4697
Rp4698
sg8
I00
sg9
g4694
ssS'diastereoisomeric'
p4699
(dp4700
g3
g4
((lp4701
tp4702
Rp4703
sg8
I00
sg9
g4699
ssS'dematerialization'
p4704
(dp4705
g3
g4
((lp4706
tp4707
Rp4708
sg8
I00
sg9
g4704
ssS'overprescriptions'
p4709
(dp4710
g3
g4
((lp4711
tp4712
Rp4713
sg8
I00
sg9
g4709
ssS'superconglomerate'
p4714
(dp4715
g3
g4
((lp4716
tp4717
Rp4718
sg8
I00
sg9
g4714
ssg299
(dp4719
g3
g4
((lp4720
g207
ag208
atp4721
Rp4722
sg8
I00
sg9
g299
ssS'ultraprofessional'
p4723
(dp4724
g3
g4
((lp4725
tp4726
Rp4727
sg8
I00
sg9
g4723
ssS'rehospitalization'
p4728
(dp4729
g3
g4
((lp4730
tp4731
Rp4732
sg8
I00
sg9
g4728
ssS'mellifluousnesses'
p4733
(dp4734
g3
g4
((lp4735
tp4736
Rp4737
sg8
I00
sg9
g4733
ssS'photogrammetrists'
p4738
(dp4739
g3
g4
((lp4740
tp4741
Rp4742
sg8
I00
sg9
g4738
ssS'impenetrabilities'
p4743
(dp4744
g3
g4
((lp4745
tp4746
Rp4747
sg8
I00
sg9
g4743
ssS'prestidigitations'
p4748
(dp4749
g3
g4
((lp4750
tp4751
Rp4752
sg8
I00
sg9
g4748
ssS'interpenetrations'
p4753
(dp4754
g3
g4
((lp4755
tp4756
Rp4757
sg8
I00
sg9
g4753
ssS'videoconferencing'
p4758
(dp4759
g3
g4
((lp4760
tp4761
Rp4762
sg8
I00
sg9
g4758
ssS'overcommunicating'
p4763
(dp4764
g3
g4
((lp4765
tp4766
Rp4767
sg8
I00
sg9
g4763
ssS'transplantability'
p4768
(dp4769
g3
g4
((lp4770
tp4771
Rp4772
sg8
I00
sg9
g4768
ssS'trueheartednesses'
p4773
(dp4774
g3
g4
((lp4775
tp4776
Rp4777
sg8
I00
sg9
g4773
ssS'microphotographer'
p4778
(dp4779
g3
g4
((lp4780
tp4781
Rp4782
sg8
I00
sg9
g4778
ssS'disintermediation'
p4783
(dp4784
g3
g4
((lp4785
tp4786
Rp4787
sg8
I00
sg9
g4783
ssS'epiphenomenalisms'
p4788
(dp4789
g3
g4
((lp4790
tp4791
Rp4792
sg8
I00
sg9
g4788
ssS'intelligibilities'
p4793
(dp4794
g3
g4
((lp4795
tp4796
Rp4797
sg8
I00
sg9
g4793
ssS'wrongheadednesses'
p4798
(dp4799
g3
g4
((lp4800
tp4801
Rp4802
sg8
I00
sg9
g4798
ssS'intraperitoneally'
p4803
(dp4804
g3
g4
((lp4805
tp4806
Rp4807
sg8
I00
sg9
g4803
ssS'characterological'
p4808
(dp4809
g3
g4
((lp4810
tp4811
Rp4812
sg8
I00
sg9
g4808
ssS'unanswerabilities'
p4813
(dp4814
g3
g4
((lp4815
tp4816
Rp4817
sg8
I00
sg9
g4813
ssS'microcalorimeters'
p4818
(dp4819
g3
g4
((lp4820
tp4821
Rp4822
sg8
I00
sg9
g4818
ssg4381
(dp4823
g3
g4
((lp4824
g987
atp4825
Rp4826
sg8
I00
sg9
g4381
ssS'chlortetracycline'
p4827
(dp4828
g3
g4
((lp4829
tp4830
Rp4831
sg8
I00
sg9
g4827
ssS'photomicrographic'
p4832
(dp4833
g3
g4
((lp4834
tp4835
Rp4836
sg8
I00
sg9
g4832
ssS'bloodguiltinesses'
p4837
(dp4838
g3
g4
((lp4839
tp4840
Rp4841
sg8
I00
sg9
g4837
ssS'lepidopterologies'
p4842
(dp4843
g3
g4
((lp4844
tp4845
Rp4846
sg8
I00
sg9
g4842
ssS'photoelectrically'
p4847
(dp4848
g3
g4
((lp4849
tp4850
Rp4851
sg8
I00
sg9
g4847
ssS'hypermutabilities'
p4852
(dp4853
g3
g4
((lp4854
tp4855
Rp4856
sg8
I00
sg9
g4852
ssS'indestructibility'
p4857
(dp4858
g3
g4
((lp4859
tp4860
Rp4861
sg8
I00
sg9
g4857
ssS'spectrohelioscope'
p4862
(dp4863
g3
g4
((lp4864
tp4865
Rp4866
sg8
I00
sg9
g4862
ssS'counterinsurgents'
p4867
(dp4868
g3
g4
((lp4869
tp4870
Rp4871
sg8
I00
sg9
g4867
ssS'unconscionability'
p4872
(dp4873
g3
g4
((lp4874
tp4875
Rp4876
sg8
I00
sg9
g4872
ssS'neurodegenerative'
p4877
(dp4878
g3
g4
((lp4879
tp4880
Rp4881
sg8
I00
sg9
g4877
ssg4646
(dp4882
g3
g4
((lp4883
g4643
atp4884
Rp4885
sg8
I00
sg9
g4646
ssS'contradictoriness'
p4886
(dp4887
g3
g4
((lp4888
tp4889
Rp4890
sg8
I00
sg9
g4886
ssS'nucleophilicities'
p4891
(dp4892
g3
g4
((lp4893
tp4894
Rp4895
sg8
I00
sg9
g4891
ssS'remorselessnesses'
p4896
(dp4897
g3
g4
((lp4898
tp4899
Rp4900
sg8
I00
sg9
g4896
ssS'epistemologically'
p4901
(dp4902
g3
g4
((lp4903
tp4904
Rp4905
sg8
I00
sg9
g4901
ssS'resourcefulnesses'
p4906
(dp4907
g3
g4
((lp4908
tp4909
Rp4910
sg8
I00
sg9
g4906
ssS'distinctivenesses'
p4911
(dp4912
g3
g4
((lp4913
tp4914
Rp4915
sg8
I00
sg9
g4911
ssS'conventionalities'
p4916
(dp4917
g3
g4
((lp4918
tp4919
Rp4920
sg8
I00
sg9
g4916
ssS'physiopathologies'
p4921
(dp4922
g3
g4
((lp4923
tp4924
Rp4925
sg8
I00
sg9
g4921
ssS'biodeteriorations'
p4926
(dp4927
g3
g4
((lp4928
tp4929
Rp4930
sg8
I00
sg9
g4926
ssS'catecholaminergic'
p4931
(dp4932
g3
g4
((lp4933
tp4934
Rp4935
sg8
I00
sg9
g4931
ssS'hexachloroethanes'
p4936
(dp4937
g3
g4
((lp4938
tp4939
Rp4940
sg8
I00
sg9
g4936
ssS'counterscientific'
p4941
(dp4942
g3
g4
((lp4943
tp4944
Rp4945
sg8
I00
sg9
g4941
ssS'microdensitometer'
p4946
(dp4947
g3
g4
((lp4948
tp4949
Rp4950
sg8
I00
sg9
g4946
ssS'uncontroversially'
p4951
(dp4952
g3
g4
((lp4953
tp4954
Rp4955
sg8
I00
sg9
g4951
ssS'nondiscrimination'
p4956
(dp4957
g3
g4
((lp4958
tp4959
Rp4960
sg8
I00
sg9
g4956
ssS'immunotherapeutic'
p4961
(dp4962
g3
g4
((lp4963
tp4964
Rp4965
sg8
I00
sg9
g4961
ssS'photodisintegrate'
p4966
(dp4967
g3
g4
((lp4968
tp4969
Rp4970
sg8
I00
sg9
g4966
ssS'openmouthednesses'
p4971
(dp4972
g3
g4
((lp4973
tp4974
Rp4975
sg8
I00
sg9
g4971
ssS'programmabilities'
p4976
(dp4977
g3
g4
((lp4978
tp4979
Rp4980
sg8
I00
sg9
g4976
ssS'circumambulations'
p4981
(dp4982
g3
g4
((lp4983
tp4984
Rp4985
sg8
I00
sg9
g4981
ssS'recapitalizations'
p4986
(dp4987
g3
g4
((lp4988
tp4989
Rp4990
sg8
I00
sg9
g4986
ssS'phytosociological'
p4991
(dp4992
g3
g4
((lp4993
tp4994
Rp4995
sg8
I00
sg9
g4991
ssS'odoriferousnesses'
p4996
(dp4997
g3
g4
((lp4998
tp4999
Rp5000
sg8
I00
sg9
g4996
ssS'ineradicabilities'
p5001
(dp5002
g3
g4
((lp5003
tp5004
Rp5005
sg8
I00
sg9
g5001
ssS'nephelometrically'
p5006
(dp5007
g3
g4
((lp5008
tp5009
Rp5010
sg8
I00
sg9
g5006
ssS'clandestinenesses'
p5011
(dp5012
g3
g4
((lp5013
tp5014
Rp5015
sg8
I00
sg9
g5011
ssS'pseudoclassicisms'
p5016
(dp5017
g3
g4
((lp5018
tp5019
Rp5020
sg8
I00
sg9
g5016
ssS'commissionerships'
p5021
(dp5022
g3
g4
((lp5023
tp5024
Rp5025
sg8
I00
sg9
g5021
ssS'unintelligibility'
p5026
(dp5027
g3
g4
((lp5028
tp5029
Rp5030
sg8
I00
sg9
g5026
ssS'defenselessnesses'
p5031
(dp5032
g3
g4
((lp5033
tp5034
Rp5035
sg8
I00
sg9
g5031
ssS'intersubjectively'
p5036
(dp5037
g3
g4
((lp5038
tp5039
Rp5040
sg8
I00
sg9
g5036
ssS'counterproductive'
p5041
(dp5042
g3
g4
((lp5043
tp5044
Rp5045
sg8
I00
sg9
g5041
ssg2383
(dp5046
g3
g4
((lp5047
g2380
atp5048
Rp5049
sg8
I00
sg9
g2383
ssS'fictionalizations'
p5050
(dp5051
g3
g4
((lp5052
tp5053
Rp5054
sg8
I00
sg9
g5050
ssS'hemagglutinations'
p5055
(dp5056
g3
g4
((lp5057
tp5058
Rp5059
sg8
I00
sg9
g5055
ssS'superfecundations'
p5060
(dp5061
g3
g4
((lp5062
tp5063
Rp5064
sg8
I00
sg9
g5060
ssS'contemptibilities'
p5065
(dp5066
g3
g4
((lp5067
tp5068
Rp5069
sg8
I00
sg9
g5065
ssg30
(dp5070
g3
g4
((lp5071
g27
atp5072
Rp5073
sg8
I00
sg9
g30
ssS'hyperalimentation'
p5074
(dp5075
g3
g4
((lp5076
tp5077
Rp5078
sg8
I00
sg9
g5074
ssS'introspectionisms'
p5079
(dp5080
g3
g4
((lp5081
S'introspectionists'
p5082
atp5083
Rp5084
sg8
I00
sg9
g5079
ssS'denaturalizations'
p5085
(dp5086
g3
g4
((lp5087
tp5088
Rp5089
sg8
I00
sg9
g5085
ssS'misrepresentative'
p5090
(dp5091
g3
g4
((lp5092
tp5093
Rp5094
sg8
I00
sg9
g5090
ssS'semidocumentaries'
p5095
(dp5096
g3
g4
((lp5097
tp5098
Rp5099
sg8
I00
sg9
g5095
ssS'underdevelopments'
p5100
(dp5101
g3
g4
((lp5102
tp5103
Rp5104
sg8
I00
sg9
g5100
ssS'dextroamphetamine'
p5105
(dp5106
g3
g4
((lp5107
tp5108
Rp5109
sg8
I00
sg9
g5105
ssS'counterconvention'
p5110
(dp5111
g3
g4
((lp5112
tp5113
Rp5114
sg8
I00
sg9
g5110
ssS'diphthongizations'
p5115
(dp5116
g3
g4
((lp5117
tp5118
Rp5119
sg8
I00
sg9
g5115
ssS'countersignatures'
p5120
(dp5121
g3
g4
((lp5122
tp5123
Rp5124
sg8
I00
sg9
g5120
ssS'posttranslational'
p5125
(dp5126
g3
g4
((lp5127
tp5128
Rp5129
sg8
I00
sg9
g5125
ssS'countercyclically'
p5130
(dp5131
g3
g4
((lp5132
tp5133
Rp5134
sg8
I00
sg9
g5130
ssS'overfertilization'
p5135
(dp5136
g3
g4
((lp5137
tp5138
Rp5139
sg8
I00
sg9
g5135
ssS'coproprietorships'
p5140
(dp5141
g3
g4
((lp5142
tp5143
Rp5144
sg8
I00
sg9
g5140
ssS'subjectivizations'
p5145
(dp5146
g3
g4
((lp5147
tp5148
Rp5149
sg8
I00
sg9
g5145
ssS'inoperativenesses'
p5150
(dp5151
g3
g4
((lp5152
tp5153
Rp5154
sg8
I00
sg9
g5150
ssS'photofluorography'
p5155
(dp5156
g3
g4
((lp5157
tp5158
Rp5159
sg8
I00
sg9
g5155
ssS'antischizophrenic'
p5160
(dp5161
g3
g4
((lp5162
S'antischizophrenia'
p5163
atp5164
Rp5165
sg8
I00
sg9
g5160
ssg5163
(dp5166
g3
g4
((lp5167
g5160
atp5168
Rp5169
sg8
I00
sg9
g5163
ssS'quattuordecillion'
p5170
(dp5171
g3
g4
((lp5172
tp5173
Rp5174
sg8
I00
sg9
g5170
ssS'parapsychologists'
p5175
(dp5176
g3
g4
((lp5177
tp5178
Rp5179
sg8
I00
sg9
g5175
ssS'photoperiodically'
p5180
(dp5181
g3
g4
((lp5182
tp5183
Rp5184
sg8
I00
sg9
g5180
ssS'unidimensionality'
p5185
(dp5186
g3
g4
((lp5187
tp5188
Rp5189
sg8
I00
sg9
g5185
ssS'contradistinction'
p5190
(dp5191
g3
g4
((lp5192
tp5193
Rp5194
sg8
I00
sg9
g5190
ssS'perchloroethylene'
p5195
(dp5196
g3
g4
((lp5197
tp5198
Rp5199
sg8
I00
sg9
g5195
ssS'destructivenesses'
p5200
(dp5201
g3
g4
((lp5202
tp5203
Rp5204
sg8
I00
sg9
g5200
ssS'antiferromagnetic'
p5205
(dp5206
g3
g4
((lp5207
tp5208
Rp5209
sg8
I00
sg9
g5205
ssS'psychophysiologic'
p5210
(dp5211
g3
g4
((lp5212
tp5213
Rp5214
sg8
I00
sg9
g5210
ssS'immunopathologist'
p5215
(dp5216
g3
g4
((lp5217
tp5218
Rp5219
sg8
I00
sg9
g5215
ssS'refrangiblenesses'
p5220
(dp5221
g3
g4
((lp5222
tp5223
Rp5224
sg8
I00
sg9
g5220
ssS'overfamiliarities'
p5225
(dp5226
g3
g4
((lp5227
tp5228
Rp5229
sg8
I00
sg9
g5225
ssg2877
(dp5230
g3
g4
((lp5231
g2874
atp5232
Rp5233
sg8
I00
sg9
g2877
ssS'inexplicabilities'
p5234
(dp5235
g3
g4
((lp5236
tp5237
Rp5238
sg8
I00
sg9
g5234
ssS'sententiousnesses'
p5239
(dp5240
g3
g4
((lp5241
tp5242
Rp5243
sg8
I00
sg9
g5239
ssS'unchangeabilities'
p5244
(dp5245
g3
g4
((lp5246
tp5247
Rp5248
sg8
I00
sg9
g5244
ssS'nonparticipations'
p5249
(dp5250
g3
g4
((lp5251
tp5252
Rp5253
sg8
I00
sg9
g5249
ssS'carcinogenicities'
p5254
(dp5255
g3
g4
((lp5256
tp5257
Rp5258
sg8
I00
sg9
g5254
ssS'lumpenproletariat'
p5259
(dp5260
g3
g4
((lp5261
tp5262
Rp5263
sg8
I00
sg9
g5259
ssS'misidentification'
p5264
(dp5265
g3
g4
((lp5266
tp5267
Rp5268
sg8
I00
sg9
g5264
ssS'standoffishnesses'
p5269
(dp5270
g3
g4
((lp5271
tp5272
Rp5273
sg8
I00
sg9
g5269
ssS'perspicuousnesses'
p5274
(dp5275
g3
g4
((lp5276
tp5277
Rp5278
sg8
I00
sg9
g5274
ssS'plenipotentiaries'
p5279
(dp5280
g3
g4
((lp5281
tp5282
Rp5283
sg8
I00
sg9
g5279
ssS'radiotelegraphies'
p5284
(dp5285
g3
g4
((lp5286
tp5287
Rp5288
sg8
I00
sg9
g5284
ssS'intercommunicated'
p5289
(dp5290
g3
g4
((lp5291
S'intercommunicates'
p5292
atp5293
Rp5294
sg8
I00
sg9
g5289
ssS'stereophotography'
p5295
(dp5296
g3
g4
((lp5297
tp5298
Rp5299
sg8
I00
sg9
g5295
ssS'monospecificities'
p5300
(dp5301
g3
g4
((lp5302
tp5303
Rp5304
sg8
I00
sg9
g5300
ssS'photojournalistic'
p5305
(dp5306
g3
g4
((lp5307
tp5308
Rp5309
sg8
I00
sg9
g5305
ssS'insurrectionaries'
p5310
(dp5311
g3
g4
((lp5312
tp5313
Rp5314
sg8
I00
sg9
g5310
ssS'chemoautotrophies'
p5315
(dp5316
g3
g4
((lp5317
tp5318
Rp5319
sg8
I00
sg9
g5315
ssg5292
(dp5320
g3
g4
((lp5321
g5289
atp5322
Rp5323
sg8
I00
sg9
g5292
ssS'opinionatednesses'
p5324
(dp5325
g3
g4
((lp5326
tp5327
Rp5328
sg8
I00
sg9
g5324
ssS'nondiscriminatory'
p5329
(dp5330
g3
g4
((lp5331
tp5332
Rp5333
sg8
I00
sg9
g5329
ssS'hypnotizabilities'
p5334
(dp5335
g3
g4
((lp5336
tp5337
Rp5338
sg8
I00
sg9
g5334
ssS'reclassifications'
p5339
(dp5340
g3
g4
((lp5341
S'declassifications'
p5342
atp5343
Rp5344
sg8
I00
sg9
g5339
ssS'neurotransmitters'
p5345
(dp5346
g3
g4
((lp5347
tp5348
Rp5349
sg8
I00
sg9
g5345
ssg5342
(dp5350
g3
g4
((lp5351
g5339
atp5352
Rp5353
sg8
I00
sg9
g5342
ssS'bittersweetnesses'
p5354
(dp5355
g3
g4
((lp5356
tp5357
Rp5358
sg8
I00
sg9
g5354
ssS'prequalifications'
p5359
(dp5360
g3
g4
((lp5361
tp5362
Rp5363
sg8
I00
sg9
g5359
ssS'transdisciplinary'
p5364
(dp5365
g3
g4
((lp5366
tp5367
Rp5368
sg8
I00
sg9
g5364
ssS'disadvantagedness'
p5369
(dp5370
g3
g4
((lp5371
tp5372
Rp5373
sg8
I00
sg9
g5369
ssS'methylnaphthalene'
p5374
(dp5375
g3
g4
((lp5376
tp5377
Rp5378
sg8
I00
sg9
g5374
ssS'acquisitivenesses'
p5379
(dp5380
g3
g4
((lp5381
tp5382
Rp5383
sg8
I00
sg9
g5379
ssS'interdepartmental'
p5384
(dp5385
g3
g4
((lp5386
tp5387
Rp5388
sg8
I00
sg9
g5384
ssS'photomechanically'
p5389
(dp5390
g3
g4
((lp5391
tp5392
Rp5393
sg8
I00
sg9
g5389
ssS'thermoregulations'
p5394
(dp5395
g3
g4
((lp5396
tp5397
Rp5398
sg8
I00
sg9
g5394
ssg2544
(dp5399
g3
g4
((lp5400
g2541
atp5401
Rp5402
sg8
I00
sg9
g2544
ssS'anthropocentrisms'
p5403
(dp5404
g3
g4
((lp5405
tp5406
Rp5407
sg8
I00
sg9
g5403
ssS'revascularization'
p5408
(dp5409
g3
g4
((lp5410
tp5411
Rp5412
sg8
I00
sg9
g5408
ssS'parameterizations'
p5413
(dp5414
g3
g4
((lp5415
tp5416
Rp5417
sg8
I00
sg9
g5413
ssS'disequilibrations'
p5418
(dp5419
g3
g4
((lp5420
tp5421
Rp5422
sg8
I00
sg9
g5418
ssS'comprehensibility'
p5423
(dp5424
g3
g4
((lp5425
tp5426
Rp5427
sg8
I00
sg9
g5423
ssg154
(dp5428
g3
g4
((lp5429
g151
atp5430
Rp5431
sg8
I00
sg9
g154
ssS'neuropsychologies'
p5432
(dp5433
g3
g4
((lp5434
tp5435
Rp5436
sg8
I00
sg9
g5432
ssS'immunoprecipitate'
p5437
(dp5438
g3
g4
((lp5439
tp5440
Rp5441
sg8
I00
sg9
g5437
ssg2321
(dp5442
g3
g4
((lp5443
g2318
atp5444
Rp5445
sg8
I00
sg9
g2321
ssS'superconductivity'
p5446
(dp5447
g3
g4
((lp5448
tp5449
Rp5450
sg8
I00
sg9
g5446
ssS'microphotometries'
p5451
(dp5452
g3
g4
((lp5453
tp5454
Rp5455
sg8
I00
sg9
g5451
ssS'necessitarianisms'
p5456
(dp5457
g3
g4
((lp5458
tp5459
Rp5460
sg8
I00
sg9
g5456
ssS'oversubscriptions'
p5461
(dp5462
g3
g4
((lp5463
tp5464
Rp5465
sg8
I00
sg9
g5461
ssg5082
(dp5466
g3
g4
((lp5467
g5079
atp5468
Rp5469
sg8
I00
sg9
g5082
ssS'semipornographies'
p5470
(dp5471
g3
g4
((lp5472
tp5473
Rp5474
sg8
I00
sg9
g5470
ssS'inexpensivenesses'
p5475
(dp5476
g3
g4
((lp5477
tp5478
Rp5479
sg8
I00
sg9
g5475
ssS'hyperreactivities'
p5480
(dp5481
g3
g4
((lp5482
tp5483
Rp5484
sg8
I00
sg9
g5480
ssS'pseudoparenchymas'
p5485
(dp5486
g3
g4
((lp5487
tp5488
Rp5489
sg8
I00
sg9
g5485
ssS'premillenarianism'
p5490
(dp5491
g3
g4
((lp5492
tp5493
Rp5494
sg8
I00
sg9
g5490
ssS'autoradiographies'
p5495
(dp5496
g3
g4
((lp5497
tp5498
Rp5499
sg8
I00
sg9
g5495
ssS'hyperinflationary'
p5500
(dp5501
g3
g4
((lp5502
tp5503
Rp5504
sg8
I00
sg9
g5500
ssS'denominationalism'
p5505
(dp5506
g3
g4
((lp5507
tp5508
Rp5509
sg8
I00
sg9
g5505
ssS'nondenominational'
p5510
(dp5511
g3
g4
((lp5512
tp5513
Rp5514
sg8
I00
sg9
g5510
ssS'ineffaceabilities'
p5515
(dp5516
g3
g4
((lp5517
tp5518
Rp5519
sg8
I00
sg9
g5515
ssS'spontaneousnesses'
p5520
(dp5521
g3
g4
((lp5522
tp5523
Rp5524
sg8
I00
sg9
g5520
ssS'anthropologically'
p5525
(dp5526
g3
g4
((lp5527
tp5528
Rp5529
sg8
I00
sg9
g5525
ssS'immunopathologies'
p5530
(dp5531
g3
g4
((lp5532
tp5533
Rp5534
sg8
I00
sg9
g5530
ssS'immunocompromised'
p5535
(dp5536
g3
g4
((lp5537
tp5538
Rp5539
sg8
I00
sg9
g5535
ssS'authoritativeness'
p5540
(dp5541
g3
g4
((lp5542
tp5543
Rp5544
sg8
I00
sg9
g5540
ssS'autointoxications'
p5545
(dp5546
g3
g4
((lp5547
tp5548
Rp5549
sg8
I00
sg9
g5545
ssS'ultraconservatism'
p5550
(dp5551
g3
g4
((lp5552
tp5553
Rp5554
sg8
I00
sg9
g5550
ssS'acetylsalicylates'
p5555
(dp5556
g3
g4
((lp5557
tp5558
Rp5559
sg8
I00
sg9
g5555
ssS'maintainabilities'
p5560
(dp5561
g3
g4
((lp5562
tp5563
Rp5564
sg8
I00
sg9
g5560
ssS'intercolumniation'
p5565
(dp5566
g3
g4
((lp5567
tp5568
Rp5569
sg8
I00
sg9
g5565
ssS'synchrocyclotrons'
p5570
(dp5571
g3
g4
((lp5572
tp5573
Rp5574
sg8
I00
sg9
g5570
ssS'illusionistically'
p5575
(dp5576
g3
g4
((lp5577
tp5578
Rp5579
sg8
I00
sg9
g5575
ssS'iontophoretically'
p5580
(dp5581
g3
g4
((lp5582
tp5583
Rp5584
sg8
I00
sg9
g5580
ssS'underhandednesses'
p5585
(dp5586
g3
g4
((lp5587
tp5588
Rp5589
sg8
I00
sg9
g5585
ssS'telephotographies'
p5590
(dp5591
g3
g4
((lp5592
tp5593
Rp5594
sg8
I00
sg9
g5590
ssS'neuropsychiatries'
p5595
(dp5596
g3
g4
((lp5597
tp5598
Rp5599
sg8
I00
sg9
g5595
ssS'medulloblastomata'
p5600
(dp5601
g3
g4
((lp5602
tp5603
Rp5604
sg8
I00
sg9
g5600
ssS'bioavailabilities'
p5605
(dp5606
g3
g4
((lp5607
tp5608
Rp5609
sg8
I00
sg9
g5605
ssS'marriageabilities'
p5610
(dp5611
g3
g4
((lp5612
tp5613
Rp5614
sg8
I00
sg9
g5610
ssS'turbidimetrically'
p5615
(dp5616
g3
g4
((lp5617
tp5618
Rp5619
sg8
I00
sg9
g5615
ssS'uninhibitednesses'
p5620
(dp5621
g3
g4
((lp5622
tp5623
Rp5624
sg8
I00
sg9
g5620
ssS'pyrometallurgical'
p5625
(dp5626
g3
g4
((lp5627
tp5628
Rp5629
sg8
I00
sg9
g5625
ssS'inadmissibilities'
p5630
(dp5631
g3
g4
((lp5632
tp5633
Rp5634
sg8
I00
sg9
g5630
ssS'illustriousnesses'
p5635
(dp5636
g3
g4
((lp5637
tp5638
Rp5639
sg8
I00
sg9
g5635
ss.