(dp0
S'ineffectualnesses'
p1
(dp2
S'neighbors'
p3
c__builtin__
set
p4
((lp5
tp6
Rp7
sS'visited'
p8
I00
sS'word'
p9
g1
ssS'reproachfulnesses'
p10
(dp11
g3
g4
((lp12
tp13
Rp14
sg8
I00
sg9
g10
ssS'counterterrorisms'
p15
(dp16
g3
g4
((lp17
S'counterterrorists'
p18
atp19
Rp20
sg8
I00
sg9
g15
ssS'destructibilities'
p21
(dp22
g3
g4
((lp23
tp24
Rp25
sg8
I00
sg9
g21
ssS'hardheartednesses'
p26
(dp27
g3
g4
((lp28
tp29
Rp30
sg8
I00
sg9
g26
ssS'microminiaturized'
p31
(dp32
g3
g4
((lp33
tp34
Rp35
sg8
I00
sg9
g31
ssS'electromagnetally'
p36
(dp37
g3
g4
((lp38
tp39
Rp40
sg8
I00
sg9
g36
ssS'superintelligence'
p41
(dp42
g3
g4
((lp43
tp44
Rp45
sg8
I00
sg9
g41
ssS'intergovernmental'
p46
(dp47
g3
g4
((lp48
tp49
Rp50
sg8
I00
sg9
g46
ssS'promiscuousnesses'
p51
(dp52
g3
g4
((lp53
tp54
Rp55
sg8
I00
sg9
g51
ssS'countersuggestion'
p56
(dp57
g3
g4
((lp58
tp59
Rp60
sg8
I00
sg9
g56
ssS'mischievousnesses'
p61
(dp62
g3
g4
((lp63
tp64
Rp65
sg8
I00
sg9
g61
ssS'picturesquenesses'
p66
(dp67
g3
g4
((lp68
tp69
Rp70
sg8
I00
sg9
g66
ssS'thoughtlessnesses'
p71
(dp72
g3
g4
((lp73
tp74
Rp75
sg8
I00
sg9
g71
ssS'counterinfluences'
p76
(dp77
g3
g4
((lp78
tp79
Rp80
sg8
I00
sg9
g76
ssS'misunderstandings'
p81
(dp82
g3
g4
((lp83
tp84
Rp85
sg8
I00
sg9
g81
ssS'cyclophosphamides'
p86
(dp87
g3
g4
((lp88
tp89
Rp90
sg8
I00
sg9
g86
ssS'precipitatenesses'
p91
(dp92
g3
g4
((lp93
tp94
Rp95
sg8
I00
sg9
g91
ssS'myelosuppressions'
p96
(dp97
g3
g4
((lp98
tp99
Rp100
sg8
I00
sg9
g96
ssS'superenthusiastic'
p101
(dp102
g3
g4
((lp103
tp104
Rp105
sg8
I00
sg9
g101
ssS'misinterpretation'
p106
(dp107
g3
g4
((lp108
tp109
Rp110
sg8
I00
sg9
g106
ssS'professionalizing'
p111
(dp112
g3
g4
((lp113
tp114
Rp115
sg8
I00
sg9
g111
ssS'undernourishments'
p116
(dp117
g3
g4
((lp118
tp119
Rp120
sg8
I00
sg9
g116
ssS'repetitiousnesses'
p121
(dp122
g3
g4
((lp123
tp124
Rp125
sg8
I00
sg9
g121
ssS'meritoriousnesses'
p126
(dp127
g3
g4
((lp128
tp129
Rp130
sg8
I00
sg9
g126
ssS'internationalisms'
p131
(dp132
g3
g4
((lp133
tp134
Rp135
sg8
I00
sg9
g131
ssS'blameworthinesses'
p136
(dp137
g3
g4
((lp138
tp139
Rp140
sg8
I00
sg9
g136
ssS'interrelationship'
p141
(dp142
g3
g4
((lp143
tp144
Rp145
sg8
I00
sg9
g141
ssS'nonindustrialized'
p146
(dp147
g3
g4
((lp148
tp149
Rp150
sg8
I00
sg9
g146
ssS'counterrevolution'
p151
(dp152
g3
g4
((lp153
tp154
Rp155
sg8
I00
sg9
g151
ssS'circumnavigations'
p156
(dp157
g3
g4
((lp158
tp159
Rp160
sg8
I00
sg9
g156
ssg18
(dp161
g3
g4
((lp162
g15
atp163
Rp164
sg8
I00
sg9
g18
ssS'industrialization'
p165
(dp166
g3
g4
((lp167
tp168
Rp169
sg8
I00
sg9
g165
ssS'internationalized'
p170
(dp171
g3
g4
((lp172
S'internationalizes'
p173
atp174
Rp175
sg8
I00
sg9
g170
ssS'photoelectrically'
p176
(dp177
g3
g4
((lp178
tp179
Rp180
sg8
I00
sg9
g176
ssS'prestidigitations'
p181
(dp182
g3
g4
((lp183
tp184
Rp185
sg8
I00
sg9
g181
ssS'countercomplaints'
p186
(dp187
g3
g4
((lp188
tp189
Rp190
sg8
I00
sg9
g186
ssg173
(dp191
g3
g4
((lp192
g170
atp193
Rp194
sg8
I00
sg9
g173
ssS'incorrigibilities'
p195
(dp196
g3
g4
((lp197
tp198
Rp199
sg8
I00
sg9
g195
ssS'paleoclimatologic'
p200
(dp201
g3
g4
((lp202
tp203
Rp204
sg8
I00
sg9
g200
ssS'extradepartmental'
p205
(dp206
g3
g4
((lp207
tp208
Rp209
sg8
I00
sg9
g205
ssS'nondiscrimination'
p210
(dp211
g3
g4
((lp212
tp213
Rp214
sg8
I00
sg9
g210
ssS'inaccessibilities'
p215
(dp216
g3
g4
((lp217
tp218
Rp219
sg8
I00
sg9
g215
ssS'counterstrategies'
p220
(dp221
g3
g4
((lp222
tp223
Rp224
sg8
I00
sg9
g220
ssS'miscellaneousness'
p225
(dp226
g3
g4
((lp227
tp228
Rp229
sg8
I00
sg9
g225
ssS'disinterestedness'
p230
(dp231
g3
g4
((lp232
tp233
Rp234
sg8
I00
sg9
g230
ssS'overexaggerations'
p235
(dp236
g3
g4
((lp237
tp238
Rp239
sg8
I00
sg9
g235
ssS'constitutionality'
p240
(dp241
g3
g4
((lp242
tp243
Rp244
sg8
I00
sg9
g240
ssS'nondenominational'
p245
(dp246
g3
g4
((lp247
tp248
Rp249
sg8
I00
sg9
g245
ssS'antimaterialistic'
p250
(dp251
g3
g4
((lp252
tp253
Rp254
sg8
I00
sg9
g250
ssS'nearsightednesses'
p255
(dp256
g3
g4
((lp257
tp258
Rp259
sg8
I00
sg9
g255
ssS'impecuniousnesses'
p260
(dp261
g3
g4
((lp262
tp263
Rp264
sg8
I00
sg9
g260
ssS'inattentivenesses'
p265
(dp266
g3
g4
((lp267
tp268
Rp269
sg8
I00
sg9
g265
ssS'rehospitalization'
p270
(dp271
g3
g4
((lp272
tp273
Rp274
sg8
I00
sg9
g270
ssS'antieavesdropping'
p275
(dp276
g3
g4
((lp277
tp278
Rp279
sg8
I00
sg9
g275
ssS'impenetrabilities'
p280
(dp281
g3
g4
((lp282
tp283
Rp284
sg8
I00
sg9
g280
ssS'photosynthesizing'
p285
(dp286
g3
g4
((lp287
tp288
Rp289
sg8
I00
sg9
g285
ssS'magnanimousnesses'
p290
(dp291
g3
g4
((lp292
tp293
Rp294
sg8
I00
sg9
g290
ssS'environmentalists'
p295
(dp296
g3
g4
((lp297
tp298
Rp299
sg8
I00
sg9
g295
ssS'maintainabilities'
p300
(dp301
g3
g4
((lp302
tp303
Rp304
sg8
I00
sg9
g300
ssS'intelligibilities'
p305
(dp306
g3
g4
((lp307
tp308
Rp309
sg8
I00
sg9
g305
ssS'wrongheadednesses'
p310
(dp311
g3
g4
((lp312
tp313
Rp314
sg8
I00
sg9
g310
ssS'misrepresentation'
p315
(dp316
g3
g4
((lp317
tp318
Rp319
sg8
I00
sg9
g315
ssS'mispronunciations'
p320
(dp321
g3
g4
((lp322
tp323
Rp324
sg8
I00
sg9
g320
ssS'antimiscegenation'
p325
(dp326
g3
g4
((lp327
tp328
Rp329
sg8
I00
sg9
g325
ssS'postbaccalaureate'
p330
(dp331
g3
g4
((lp332
tp333
Rp334
sg8
I00
sg9
g330
ssS'unconsciousnesses'
p335
(dp336
g3
g4
((lp337
tp338
Rp339
sg8
I00
sg9
g335
ssS'superintendencies'
p340
(dp341
g3
g4
((lp342
tp343
Rp344
sg8
I00
sg9
g340
ssS'multidisciplinary'
p345
(dp346
g3
g4
((lp347
tp348
Rp349
sg8
I00
sg9
g345
ssS'nonproliferations'
p350
(dp351
g3
g4
((lp352
tp353
Rp354
sg8
I00
sg9
g350
ssS'intemperatenesses'
p355
(dp356
g3
g4
((lp357
tp358
Rp359
sg8
I00
sg9
g355
ssS'reclassifications'
p360
(dp361
g3
g4
((lp362
tp363
Rp364
sg8
I00
sg9
g360
ssS'halfheartednesses'
p365
(dp366
g3
g4
((lp367
tp368
Rp369
sg8
I00
sg9
g365
ssS'pretentiousnesses'
p370
(dp371
g3
g4
((lp372
tp373
Rp374
sg8
I00
sg9
g370
ssS'consideratenesses'
p375
(dp376
g3
g4
((lp377
tp378
Rp379
sg8
I00
sg9
g375
ssS'programmabilities'
p380
(dp381
g3
g4
((lp382
tp383
Rp384
sg8
I00
sg9
g380
ssS'electrocardiogram'
p385
(dp386
g3
g4
((lp387
tp388
Rp389
sg8
I00
sg9
g385
ssS'countertendencies'
p390
(dp391
g3
g4
((lp392
tp393
Rp394
sg8
I00
sg9
g390
ssS'carnivorousnesses'
p395
(dp396
g3
g4
((lp397
tp398
Rp399
sg8
I00
sg9
g395
ssS'disfranchisements'
p400
(dp401
g3
g4
((lp402
tp403
Rp404
sg8
I00
sg9
g400
ssS'distinctivenesses'
p405
(dp406
g3
g4
((lp407
tp408
Rp409
sg8
I00
sg9
g405
ssS'resourcefulnesses'
p410
(dp411
g3
g4
((lp412
tp413
Rp414
sg8
I00
sg9
g410
ssS'disqualifications'
p415
(dp416
g3
g4
((lp417
tp418
Rp419
sg8
I00
sg9
g415
ssS'antiestablishment'
p420
(dp421
g3
g4
((lp422
tp423
Rp424
sg8
I00
sg9
g420
ssS'hydroelectrically'
p425
(dp426
g3
g4
((lp427
tp428
Rp429
sg8
I00
sg9
g425
ssS'homogeneousnesses'
p430
(dp431
g3
g4
((lp432
tp433
Rp434
sg8
I00
sg9
g430
ssS'venturesomenesses'
p435
(dp436
g3
g4
((lp437
tp438
Rp439
sg8
I00
sg9
g435
ssS'postrevolutionary'
p440
(dp441
g3
g4
((lp442
tp443
Rp444
sg8
I00
sg9
g440
ssS'counteraggression'
p445
(dp446
g3
g4
((lp447
tp448
Rp449
sg8
I00
sg9
g445
ssS'comprehensiveness'
p450
(dp451
g3
g4
((lp452
tp453
Rp454
sg8
I00
sg9
g450
ssS'postfertilization'
p455
(dp456
g3
g4
((lp457
tp458
Rp459
sg8
I00
sg9
g455
ssS'coproprietorships'
p460
(dp461
g3
g4
((lp462
tp463
Rp464
sg8
I00
sg9
g460
ssS'antitechnological'
p465
(dp466
g3
g4
((lp467
tp468
Rp469
sg8
I00
sg9
g465
ssS'acquaintanceships'
p470
(dp471
g3
g4
((lp472
tp473
Rp474
sg8
I00
sg9
g470
ssS'characterizations'
p475
(dp476
g3
g4
((lp477
tp478
Rp479
sg8
I00
sg9
g475
ssS'instrumentalities'
p480
(dp481
g3
g4
((lp482
tp483
Rp484
sg8
I00
sg9
g480
ssS'extragovernmental'
p485
(dp486
g3
g4
((lp487
tp488
Rp489
sg8
I00
sg9
g485
ssS'misappropriations'
p490
(dp491
g3
g4
((lp492
tp493
Rp494
sg8
I00
sg9
g490
ssS'superintellectual'
p495
(dp496
g3
g4
((lp497
tp498
Rp499
sg8
I00
sg9
g495
ssS'superefficiencies'
p500
(dp501
g3
g4
((lp502
tp503
Rp504
sg8
I00
sg9
g500
ssS'ineffectivenesses'
p505
(dp506
g3
g4
((lp507
tp508
Rp509
sg8
I00
sg9
g505
ssS'plenipotentiaries'
p510
(dp511
g3
g4
((lp512
tp513
Rp514
sg8
I00
sg9
g510
ssS'inappropriateness'
p515
(dp516
g3
g4
((lp517
tp518
Rp519
sg8
I00
sg9
g515
ssS'counterchallenges'
p520
(dp521
g3
g4
((lp522
tp523
Rp524
sg8
I00
sg9
g520
ssS'antiauthoritarian'
p525
(dp526
g3
g4
((lp527
tp528
Rp529
sg8
I00
sg9
g525
ssS'foresightednesses'
p530
(dp531
g3
g4
((lp532
tp533
Rp534
sg8
I00
sg9
g530
ssS'nondiscriminatory'
p535
(dp536
g3
g4
((lp537
tp538
Rp539
sg8
I00
sg9
g535
ssS'straightforwarder'
p540
(dp541
g3
g4
((lp542
tp543
Rp544
sg8
I00
sg9
g540
ssS'kaleidoscopically'
p545
(dp546
g3
g4
((lp547
tp548
Rp549
sg8
I00
sg9
g545
ssS'trustworthinesses'
p550
(dp551
g3
g4
((lp552
tp553
Rp554
sg8
I00
sg9
g550
ssS'overconscientious'
p555
(dp556
g3
g4
((lp557
tp558
Rp559
sg8
I00
sg9
g555
ssS'underhandednesses'
p560
(dp561
g3
g4
((lp562
tp563
Rp564
sg8
I00
sg9
g560
ssS'housewifelinesses'
p565
(dp566
g3
g4
((lp567
tp568
Rp569
sg8
I00
sg9
g565
ssS'indistinguishable'
p570
(dp571
g3
g4
((lp572
tp573
Rp574
sg8
I00
sg9
g570
ssS'interdepartmental'
p575
(dp576
g3
g4
((lp577
tp578
Rp579
sg8
I00
sg9
g575
ssS'inquisitivenesses'
p580
(dp581
g3
g4
((lp582
tp583
Rp584
sg8
I00
sg9
g580
ssS'responsiblenesses'
p585
(dp586
g3
g4
((lp587
tp588
Rp589
sg8
I00
sg9
g585
ssS'histopathological'
p590
(dp591
g3
g4
((lp592
tp593
Rp594
sg8
I00
sg9
g590
ssS'inconsiderateness'
p595
(dp596
g3
g4
((lp597
tp598
Rp599
sg8
I00
sg9
g595
ssS'mellifluousnesses'
p600
(dp601
g3
g4
((lp602
tp603
Rp604
sg8
I00
sg9
g600
ssS'antirevolutionary'
p605
(dp606
g3
g4
((lp607
tp608
Rp609
sg8
I00
sg9
g605
ssS'inconsequentially'
p610
(dp611
g3
g4
((lp612
tp613
Rp614
sg8
I00
sg9
g610
ssS'counteraccusation'
p615
(dp616
g3
g4
((lp617
tp618
Rp619
sg8
I00
sg9
g615
ssS'industriousnesses'
p620
(dp621
g3
g4
((lp622
tp623
Rp624
sg8
I00
sg9
g620
ssS'irreconcilability'
p625
(dp626
g3
g4
((lp627
tp628
Rp629
sg8
I00
sg9
g625
ssS'subclassification'
p630
(dp631
g3
g4
((lp632
tp633
Rp634
sg8
I00
sg9
g630
ssS'maneuverabilities'
p635
(dp636
g3
g4
((lp637
tp638
Rp639
sg8
I00
sg9
g635
ssS'injudiciousnesses'
p640
(dp641
g3
g4
((lp642
tp643
Rp644
sg8
I00
sg9
g640
ssS'nonrepresentative'
p645
(dp646
g3
g4
((lp647
tp648
Rp649
sg8
I00
sg9
g645
ssS'countercriticisms'
p650
(dp651
g3
g4
((lp652
tp653
Rp654
sg8
I00
sg9
g650
ssS'mistrustfulnesses'
p655
(dp656
g3
g4
((lp657
tp658
Rp659
sg8
I00
sg9
g655
ssS'illustriousnesses'
p660
(dp661
g3
g4
((lp662
tp663
Rp664
sg8
I00
sg9
g660
ss.