(dp0
S'countersuggestions'
p1
(dp2
S'neighbors'
p3
c__builtin__
set
p4
((lp5
tp6
Rp7
sS'visited'
p8
I00
sS'word'
p9
g1
ssS'hypernationalistic'
p10
(dp11
g3
g4
((lp12
tp13
Rp14
sg8
I00
sg9
g10
ssS'internationalizing'
p15
(dp16
g3
g4
((lp17
tp18
Rp19
sg8
I00
sg9
g15
ssS'electrocardiograms'
p20
(dp21
g3
g4
((lp22
tp23
Rp24
sg8
I00
sg9
g20
ssS'irresponsibilities'
p25
(dp26
g3
g4
((lp27
tp28
Rp29
sg8
I00
sg9
g25
ssS'hydroelectricities'
p30
(dp31
g3
g4
((lp32
tp33
Rp34
sg8
I00
sg9
g30
ssS'representativeness'
p35
(dp36
g3
g4
((lp37
tp38
Rp39
sg8
I00
sg9
g35
ssS'counterpropagation'
p40
(dp41
g3
g4
((lp42
tp43
Rp44
sg8
I00
sg9
g40
ssS'counterretaliation'
p45
(dp46
g3
g4
((lp47
tp48
Rp49
sg8
I00
sg9
g45
ssS'simultaneousnesses'
p50
(dp51
g3
g4
((lp52
tp53
Rp54
sg8
I00
sg9
g50
ssS'obstreperousnesses'
p55
(dp56
g3
g4
((lp57
tp58
Rp59
sg8
I00
sg9
g55
ssS'apprehensivenesses'
p60
(dp61
g3
g4
((lp62
tp63
Rp64
sg8
I00
sg9
g60
ssS'postfertilizations'
p65
(dp66
g3
g4
((lp67
tp68
Rp69
sg8
I00
sg9
g65
ssS'bloodthirstinesses'
p70
(dp71
g3
g4
((lp72
tp73
Rp74
sg8
I00
sg9
g70
ssS'heterogenousnesses'
p75
(dp76
g3
g4
((lp77
tp78
Rp79
sg8
I00
sg9
g75
ssS'misinterpretations'
p80
(dp81
g3
g4
((lp82
tp83
Rp84
sg8
I00
sg9
g80
ssS'indispensabilities'
p85
(dp86
g3
g4
((lp87
tp88
Rp89
sg8
I00
sg9
g85
ssS'hypersensitivities'
p90
(dp91
g3
g4
((lp92
tp93
Rp94
sg8
I00
sg9
g90
ssS'counteraccusations'
p95
(dp96
g3
g4
((lp97
tp98
Rp99
sg8
I00
sg9
g95
ssS'superintelligences'
p100
(dp101
g3
g4
((lp102
tp103
Rp104
sg8
I00
sg9
g100
ssS'absentmindednesses'
p105
(dp106
g3
g4
((lp107
tp108
Rp109
sg8
I00
sg9
g105
ssS'straightforwardest'
p110
(dp111
g3
g4
((lp112
tp113
Rp114
sg8
I00
sg9
g110
ssS'characteristically'
p115
(dp116
g3
g4
((lp117
tp118
Rp119
sg8
I00
sg9
g115
ssS'interrelatednesses'
p120
(dp121
g3
g4
((lp122
tp123
Rp124
sg8
I00
sg9
g120
ssS'antidiscrimination'
p125
(dp126
g3
g4
((lp127
tp128
Rp129
sg8
I00
sg9
g125
ssS'unscrupulousnesses'
p130
(dp131
g3
g4
((lp132
tp133
Rp134
sg8
I00
sg9
g130
ssS'electrocardiograph'
p135
(dp136
g3
g4
((lp137
tp138
Rp139
sg8
I00
sg9
g135
ssS'hypersensitiveness'
p140
(dp141
g3
g4
((lp142
tp143
Rp144
sg8
I00
sg9
g140
ssS'industrializations'
p145
(dp146
g3
g4
((lp147
tp148
Rp149
sg8
I00
sg9
g145
ssS'chemotherapeutical'
p150
(dp151
g3
g4
((lp152
tp153
Rp154
sg8
I00
sg9
g150
ssS'rehospitalizations'
p155
(dp156
g3
g4
((lp157
tp158
Rp159
sg8
I00
sg9
g155
ssS'biodegradabilities'
p160
(dp161
g3
g4
((lp162
tp163
Rp164
sg8
I00
sg9
g160
ssS'nondiscriminations'
p165
(dp166
g3
g4
((lp167
tp168
Rp169
sg8
I00
sg9
g165
ssS'perpendicularities'
p170
(dp171
g3
g4
((lp172
tp173
Rp174
sg8
I00
sg9
g170
ssS'subclassifications'
p175
(dp176
g3
g4
((lp177
tp178
Rp179
sg8
I00
sg9
g175
ssS'subconsciousnesses'
p180
(dp181
g3
g4
((lp182
tp183
Rp184
sg8
I00
sg9
g180
ssS'antiadministration'
p185
(dp186
g3
g4
((lp187
tp188
Rp189
sg8
I00
sg9
g185
ssS'cantankerousnesses'
p190
(dp191
g3
g4
((lp192
tp193
Rp194
sg8
I00
sg9
g190
ssS'counteraggressions'
p195
(dp196
g3
g4
((lp197
tp198
Rp199
sg8
I00
sg9
g195
ssS'superintellectuals'
p200
(dp201
g3
g4
((lp202
tp203
Rp204
sg8
I00
sg9
g200
ssS'interinstitutional'
p205
(dp206
g3
g4
((lp207
tp208
Rp209
sg8
I00
sg9
g205
ssS'hyperconscientious'
p210
(dp211
g3
g4
((lp212
tp213
Rp214
sg8
I00
sg9
g210
ssS'lightheartednesses'
p215
(dp216
g3
g4
((lp217
tp218
Rp219
sg8
I00
sg9
g215
ssS'adventitiousnesses'
p220
(dp221
g3
g4
((lp222
tp223
Rp224
sg8
I00
sg9
g220
ssS'remunerativenesses'
p225
(dp226
g3
g4
((lp227
tp228
Rp229
sg8
I00
sg9
g225
ssS'misrepresentations'
p230
(dp231
g3
g4
((lp232
tp233
Rp234
sg8
I00
sg9
g230
ssS'counterrevolutions'
p235
(dp236
g3
g4
((lp237
tp238
Rp239
sg8
I00
sg9
g235
ssS'feeblemindednesses'
p240
(dp241
g3
g4
((lp242
tp243
Rp244
sg8
I00
sg9
g240
ss.