(dp0
S'entrepreneurialism'
p1
(dp2
S'neighbors'
p3
c__builtin__
set
p4
((lp5
tp6
Rp7
sS'visited'
p8
I00
sS'word'
p9
g1
ssS'physiopathological'
p10
(dp11
g3
g4
((lp12
tp13
Rp14
sg8
I00
sg9
g10
ssS'inexhaustibilities'
p15
(dp16
g3
g4
((lp17
tp18
Rp19
sg8
I00
sg9
g15
ssS'quantitativenesses'
p20
(dp21
g3
g4
((lp22
tp23
Rp24
sg8
I00
sg9
g20
ssS'overclassification'
p25
(dp26
g3
g4
((lp27
tp28
Rp29
sg8
I00
sg9
g25
ssS'intercommunication'
p30
(dp31
g3
g4
((lp32
tp33
Rp34
sg8
I00
sg9
g30
ssS'semiprofessionally'
p35
(dp36
g3
g4
((lp37
tp38
Rp39
sg8
I00
sg9
g35
ssS'disingenuousnesses'
p40
(dp41
g3
g4
((lp42
tp43
Rp44
sg8
I00
sg9
g40
ssS'inconclusivenesses'
p45
(dp46
g3
g4
((lp47
tp48
Rp49
sg8
I00
sg9
g45
ssS'counterinstitution'
p50
(dp51
g3
g4
((lp52
tp53
Rp54
sg8
I00
sg9
g50
ssS'bloodthirstinesses'
p55
(dp56
g3
g4
((lp57
tp58
Rp59
sg8
I00
sg9
g55
ssS'ultramicroscopical'
p60
(dp61
g3
g4
((lp62
tp63
Rp64
sg8
I00
sg9
g60
ssS'deconstructionists'
p65
(dp66
g3
g4
((lp67
S'reconstructionists'
p68
atp69
Rp70
sg8
I00
sg9
g65
ssS'nondestructiveness'
p71
(dp72
g3
g4
((lp73
tp74
Rp75
sg8
I00
sg9
g71
ssS'premillenarianisms'
p76
(dp77
g3
g4
((lp78
tp79
Rp80
sg8
I00
sg9
g76
ssS'superminicomputers'
p81
(dp82
g3
g4
((lp83
tp84
Rp85
sg8
I00
sg9
g81
ssS'introspectionistic'
p86
(dp87
g3
g4
((lp88
tp89
Rp90
sg8
I00
sg9
g86
ssS'inconvertibilities'
p91
(dp92
g3
g4
((lp93
tp94
Rp95
sg8
I00
sg9
g91
ssS'antiferromagnetism'
p96
(dp97
g3
g4
((lp98
tp99
Rp100
sg8
I00
sg9
g96
ssS'coccidioidomycoses'
p101
(dp102
g3
g4
((lp103
S'coccidioidomycosis'
p104
atp105
Rp106
sg8
I00
sg9
g101
ssS'pseudotuberculoses'
p107
(dp108
g3
g4
((lp109
S'pseudotuberculosis'
p110
atp111
Rp112
sg8
I00
sg9
g107
ssS'unprinciplednesses'
p113
(dp114
g3
g4
((lp115
tp116
Rp117
sg8
I00
sg9
g113
ssS'ethnomethodologies'
p118
(dp119
g3
g4
((lp120
tp121
Rp122
sg8
I00
sg9
g118
ssS'demythologizations'
p123
(dp124
g3
g4
((lp125
tp126
Rp127
sg8
I00
sg9
g123
ssS'reprehensibilities'
p128
(dp129
g3
g4
((lp130
tp131
Rp132
sg8
I00
sg9
g128
ssS'polyesterification'
p133
(dp134
g3
g4
((lp135
tp136
Rp137
sg8
I00
sg9
g133
ssS'counteraggressions'
p138
(dp139
g3
g4
((lp140
tp141
Rp142
sg8
I00
sg9
g138
ssS'immunodeficiencies'
p143
(dp144
g3
g4
((lp145
tp146
Rp147
sg8
I00
sg9
g143
ssS'melodramatizations'
p148
(dp149
g3
g4
((lp150
tp151
Rp152
sg8
I00
sg9
g148
ssS'electrodesiccation'
p153
(dp154
g3
g4
((lp155
tp156
Rp157
sg8
I00
sg9
g153
ssS'curmudgeonlinesses'
p158
(dp159
g3
g4
((lp160
tp161
Rp162
sg8
I00
sg9
g158
ssS'immunopathological'
p163
(dp164
g3
g4
((lp165
tp166
Rp167
sg8
I00
sg9
g163
ssS'ungrammaticalities'
p168
(dp169
g3
g4
((lp170
tp171
Rp172
sg8
I00
sg9
g168
ssS'unprofitablenesses'
p173
(dp174
g3
g4
((lp175
tp176
Rp177
sg8
I00
sg9
g173
ssS'immunoreactivities'
p178
(dp179
g3
g4
((lp180
tp181
Rp182
sg8
I00
sg9
g178
ssS'transubstantiating'
p183
(dp184
g3
g4
((lp185
tp186
Rp187
sg8
I00
sg9
g183
ssS'insusceptibilities'
p188
(dp189
g3
g4
((lp190
tp191
Rp192
sg8
I00
sg9
g188
ssS'astrophotographers'
p193
(dp194
g3
g4
((lp195
tp196
Rp197
sg8
I00
sg9
g193
ssS'irremediablenesses'
p198
(dp199
g3
g4
((lp200
tp201
Rp202
sg8
I00
sg9
g198
ssS'electrocardiograms'
p203
(dp204
g3
g4
((lp205
tp206
Rp207
sg8
I00
sg9
g203
ssS'ethnomusicological'
p208
(dp209
g3
g4
((lp210
tp211
Rp212
sg8
I00
sg9
g208
ssS'substitutabilities'
p213
(dp214
g3
g4
((lp215
tp216
Rp217
sg8
I00
sg9
g213
ssS'neurophysiologists'
p218
(dp219
g3
g4
((lp220
tp221
Rp222
sg8
I00
sg9
g218
ssS'indissolublenesses'
p223
(dp224
g3
g4
((lp225
tp226
Rp227
sg8
I00
sg9
g223
ssS'commercializations'
p228
(dp229
g3
g4
((lp230
tp231
Rp232
sg8
I00
sg9
g228
ssS'microdensitometric'
p233
(dp234
g3
g4
((lp235
tp236
Rp237
sg8
I00
sg9
g233
ssS'pentylenetetrazols'
p238
(dp239
g3
g4
((lp240
tp241
Rp242
sg8
I00
sg9
g238
ssS'uncompromisingness'
p243
(dp244
g3
g4
((lp245
tp246
Rp247
sg8
I00
sg9
g243
ssS'inharmoniousnesses'
p248
(dp249
g3
g4
((lp250
tp251
Rp252
sg8
I00
sg9
g248
ssS'photosensitivities'
p253
(dp254
g3
g4
((lp255
tp256
Rp257
sg8
I00
sg9
g253
ssS'dimethylhydrazines'
p258
(dp259
g3
g4
((lp260
tp261
Rp262
sg8
I00
sg9
g258
ssS'incommodiousnesses'
p263
(dp264
g3
g4
((lp265
tp266
Rp267
sg8
I00
sg9
g263
ssS'counteraccusations'
p268
(dp269
g3
g4
((lp270
tp271
Rp272
sg8
I00
sg9
g268
ssS'landlubberlinesses'
p273
(dp274
g3
g4
((lp275
tp276
Rp277
sg8
I00
sg9
g273
ssS'biocompatibilities'
p278
(dp279
g3
g4
((lp280
tp281
Rp282
sg8
I00
sg9
g278
ssS'superintelligences'
p283
(dp284
g3
g4
((lp285
tp286
Rp287
sg8
I00
sg9
g283
ssS'inconsequentiality'
p288
(dp289
g3
g4
((lp290
tp291
Rp292
sg8
I00
sg9
g288
ssS'advantageousnesses'
p293
(dp294
g3
g4
((lp295
tp296
Rp297
sg8
I00
sg9
g293
ssS'institutionalizing'
p298
(dp299
g3
g4
((lp300
S'institutionalising'
p301
atp302
Rp303
sg8
I00
sg9
g298
ssS'unenthusiastically'
p304
(dp305
g3
g4
((lp306
tp307
Rp308
sg8
I00
sg9
g304
ssS'fractionalizations'
p309
(dp310
g3
g4
((lp311
tp312
Rp313
sg8
I00
sg9
g309
ssS'rhabdomyosarcomata'
p314
(dp315
g3
g4
((lp316
tp317
Rp318
sg8
I00
sg9
g314
ssS'questionablenesses'
p319
(dp320
g3
g4
((lp321
tp322
Rp323
sg8
I00
sg9
g319
ssS'electromyographies'
p324
(dp325
g3
g4
((lp326
tp327
Rp328
sg8
I00
sg9
g324
ssg110
(dp329
g3
g4
((lp330
g107
atp331
Rp332
sg8
I00
sg9
g110
ssS'anthropocentricity'
p333
(dp334
g3
g4
((lp335
tp336
Rp337
sg8
I00
sg9
g333
ssS'photomicrographies'
p338
(dp339
g3
g4
((lp340
tp341
Rp342
sg8
I00
sg9
g338
ssS'orthogonalizations'
p343
(dp344
g3
g4
((lp345
tp346
Rp347
sg8
I00
sg9
g343
ssS'methylnaphthalenes'
p348
(dp349
g3
g4
((lp350
tp351
Rp352
sg8
I00
sg9
g348
ssS'disreputablenesses'
p353
(dp354
g3
g4
((lp355
tp356
Rp357
sg8
I00
sg9
g353
ssS'photodissociations'
p358
(dp359
g3
g4
((lp360
tp361
Rp362
sg8
I00
sg9
g358
ssS'counterprogramming'
p363
(dp364
g3
g4
((lp365
tp366
Rp367
sg8
I00
sg9
g363
ssS'provincializations'
p368
(dp369
g3
g4
((lp370
tp371
Rp372
sg8
I00
sg9
g368
ssS'counterdeployments'
p373
(dp374
g3
g4
((lp375
tp376
Rp377
sg8
I00
sg9
g373
ssS'unseasonablenesses'
p378
(dp379
g3
g4
((lp380
S'unreasonablenesses'
p381
atp382
Rp383
sg8
I00
sg9
g378
ssS'internationalizing'
p384
(dp385
g3
g4
((lp386
S'internationalising'
p387
atp388
Rp389
sg8
I00
sg9
g384
ssS'inexpressibilities'
p390
(dp391
g3
g4
((lp392
tp393
Rp394
sg8
I00
sg9
g390
ssS'irresponsibilities'
p395
(dp396
g3
g4
((lp397
tp398
Rp399
sg8
I00
sg9
g395
ssS'stoutheartednesses'
p400
(dp401
g3
g4
((lp402
tp403
Rp404
sg8
I00
sg9
g400
ssS'histophysiological'
p405
(dp406
g3
g4
((lp407
tp408
Rp409
sg8
I00
sg9
g405
ssS'vaingloriousnesses'
p410
(dp411
g3
g4
((lp412
tp413
Rp414
sg8
I00
sg9
g410
ssS'photodecomposition'
p415
(dp416
g3
g4
((lp417
tp418
Rp419
sg8
I00
sg9
g415
ssS'muddleheadednesses'
p420
(dp421
g3
g4
((lp422
tp423
Rp424
sg8
I00
sg9
g420
ssS'lumpenproletariats'
p425
(dp426
g3
g4
((lp427
tp428
Rp429
sg8
I00
sg9
g425
ssS'appreciativenesses'
p430
(dp431
g3
g4
((lp432
tp433
Rp434
sg8
I00
sg9
g430
ssS'psychoanalytically'
p435
(dp436
g3
g4
((lp437
tp438
Rp439
sg8
I00
sg9
g435
ssS'superadministrator'
p440
(dp441
g3
g4
((lp442
tp443
Rp444
sg8
I00
sg9
g440
ssS'psychobiographical'
p445
(dp446
g3
g4
((lp447
tp448
Rp449
sg8
I00
sg9
g445
ssS'photodisintegrated'
p450
(dp451
g3
g4
((lp452
S'photodisintegrates'
p453
atp454
Rp455
sg8
I00
sg9
g450
ssS'sphygmomanometries'
p456
(dp457
g3
g4
((lp458
tp459
Rp460
sg8
I00
sg9
g456
ssS'disputatiousnesses'
p461
(dp462
g3
g4
((lp463
tp464
Rp465
sg8
I00
sg9
g461
ssS'inexplicablenesses'
p466
(dp467
g3
g4
((lp468
tp469
Rp470
sg8
I00
sg9
g466
ssg453
(dp471
g3
g4
((lp472
g450
atp473
Rp474
sg8
I00
sg9
g453
ssS'ferroelectricities'
p475
(dp476
g3
g4
((lp477
tp478
Rp479
sg8
I00
sg9
g475
ssS'supernaturalnesses'
p480
(dp481
g3
g4
((lp482
tp483
Rp484
sg8
I00
sg9
g480
ssS'metallographically'
p485
(dp486
g3
g4
((lp487
tp488
Rp489
sg8
I00
sg9
g485
ssS'insufferablenesses'
p490
(dp491
g3
g4
((lp492
tp493
Rp494
sg8
I00
sg9
g490
ssS'superciliousnesses'
p495
(dp496
g3
g4
((lp497
tp498
Rp499
sg8
I00
sg9
g495
ssS'representationally'
p500
(dp501
g3
g4
((lp502
tp503
Rp504
sg8
I00
sg9
g500
ssS'spectrofluorimeter'
p505
(dp506
g3
g4
((lp507
S'spectrofluorometer'
p508
atp509
Rp510
sg8
I00
sg9
g505
ssS'malcontentednesses'
p511
(dp512
g3
g4
((lp513
tp514
Rp515
sg8
I00
sg9
g511
ssS'microencapsulating'
p516
(dp517
g3
g4
((lp518
tp519
Rp520
sg8
I00
sg9
g516
ssS'chemiluminescences'
p521
(dp522
g3
g4
((lp523
tp524
Rp525
sg8
I00
sg9
g521
ssS'overgeneralization'
p526
(dp527
g3
g4
((lp528
tp529
Rp530
sg8
I00
sg9
g526
ssS'mucopolysaccharide'
p531
(dp532
g3
g4
((lp533
tp534
Rp535
sg8
I00
sg9
g531
ssS'countergovernments'
p536
(dp537
g3
g4
((lp538
tp539
Rp540
sg8
I00
sg9
g536
ssS'archaeoastronomies'
p541
(dp542
g3
g4
((lp543
tp544
Rp545
sg8
I00
sg9
g541
ssS'multifariousnesses'
p546
(dp547
g3
g4
((lp548
tp549
Rp550
sg8
I00
sg9
g546
ssS'hyperpigmentations'
p551
(dp552
g3
g4
((lp553
tp554
Rp555
sg8
I00
sg9
g551
ssS'microlepidopterous'
p556
(dp557
g3
g4
((lp558
tp559
Rp560
sg8
I00
sg9
g556
ssS'antivivisectionist'
p561
(dp562
g3
g4
((lp563
tp564
Rp565
sg8
I00
sg9
g561
ssS'overcommunications'
p566
(dp567
g3
g4
((lp568
tp569
Rp570
sg8
I00
sg9
g566
ssS'maladministrations'
p571
(dp572
g3
g4
((lp573
tp574
Rp575
sg8
I00
sg9
g571
ssS'triboluminescences'
p576
(dp577
g3
g4
((lp578
tp579
Rp580
sg8
I00
sg9
g576
ssS'simplemindednesses'
p581
(dp582
g3
g4
((lp583
tp584
Rp585
sg8
I00
sg9
g581
ssS'misclassifications'
p586
(dp587
g3
g4
((lp588
tp589
Rp590
sg8
I00
sg9
g586
ssS'monochromaticities'
p591
(dp592
g3
g4
((lp593
tp594
Rp595
sg8
I00
sg9
g591
ssS'magnetoresistances'
p596
(dp597
g3
g4
((lp598
tp599
Rp600
sg8
I00
sg9
g596
ssS'hyposensitizations'
p601
(dp602
g3
g4
((lp603
tp604
Rp605
sg8
I00
sg9
g601
ssS'satisfactorinesses'
p606
(dp607
g3
g4
((lp608
tp609
Rp610
sg8
I00
sg9
g606
ssS'creditworthinesses'
p611
(dp612
g3
g4
((lp613
tp614
Rp615
sg8
I00
sg9
g611
ssS'unconvincingnesses'
p616
(dp617
g3
g4
((lp618
tp619
Rp620
sg8
I00
sg9
g616
ssS'indiscriminatingly'
p621
(dp622
g3
g4
((lp623
tp624
Rp625
sg8
I00
sg9
g621
ssS'dextroamphetamines'
p626
(dp627
g3
g4
((lp628
tp629
Rp630
sg8
I00
sg9
g626
ssS'exterritorialities'
p631
(dp632
g3
g4
((lp633
tp634
Rp635
sg8
I00
sg9
g631
ssS'nonrepresentatives'
p636
(dp637
g3
g4
((lp638
tp639
Rp640
sg8
I00
sg9
g636
ssS'electrodynamometer'
p641
(dp642
g3
g4
((lp643
tp644
Rp645
sg8
I00
sg9
g641
ssS'counteradvertising'
p646
(dp647
g3
g4
((lp648
tp649
Rp650
sg8
I00
sg9
g646
ssS'internationalities'
p651
(dp652
g3
g4
((lp653
tp654
Rp655
sg8
I00
sg9
g651
ssS'thrombophlebitides'
p656
(dp657
g3
g4
((lp658
tp659
Rp660
sg8
I00
sg9
g656
ssS'micrometeorologies'
p661
(dp662
g3
g4
((lp663
tp664
Rp665
sg8
I00
sg9
g661
ssS'discriminabilities'
p666
(dp667
g3
g4
((lp668
tp669
Rp670
sg8
I00
sg9
g666
ssS'disconsolatenesses'
p671
(dp672
g3
g4
((lp673
tp674
Rp675
sg8
I00
sg9
g671
ssS'dehydrochlorinates'
p676
(dp677
g3
g4
((lp678
S'dehydrochlorinated'
p679
aS'dehydrochlorinases'
p680
atp681
Rp682
sg8
I00
sg9
g676
ssS'counterculturalism'
p683
(dp684
g3
g4
((lp685
tp686
Rp687
sg8
I00
sg9
g683
ssS'compartmentalising'
p688
(dp689
g3
g4
((lp690
S'compartmentalizing'
p691
atp692
Rp693
sg8
I00
sg9
g688
ssS'otherworldlinesses'
p694
(dp695
g3
g4
((lp696
tp697
Rp698
sg8
I00
sg9
g694
ssS'overindustrialized'
p699
(dp700
g3
g4
((lp701
S'overindustrializes'
p702
atp703
Rp704
sg8
I00
sg9
g699
ssg679
(dp705
g3
g4
((lp706
g676
atp707
Rp708
sg8
I00
sg9
g679
ssS'hyperconcentration'
p709
(dp710
g3
g4
((lp711
tp712
Rp713
sg8
I00
sg9
g709
ssS'hydroxytryptamines'
p714
(dp715
g3
g4
((lp716
tp717
Rp718
sg8
I00
sg9
g714
ssg691
(dp719
g3
g4
((lp720
g688
atp721
Rp722
sg8
I00
sg9
g691
ssS'immunosuppressions'
p723
(dp724
g3
g4
((lp725
tp726
Rp727
sg8
I00
sg9
g723
ssS'reinstitutionalize'
p728
(dp729
g3
g4
((lp730
S'deinstitutionalize'
p731
atp732
Rp733
sg8
I00
sg9
g728
ssS'structuralizations'
p734
(dp735
g3
g4
((lp736
tp737
Rp738
sg8
I00
sg9
g734
ssS'incombustibilities'
p739
(dp740
g3
g4
((lp741
tp742
Rp743
sg8
I00
sg9
g739
ssS'deoxyribonucleases'
p744
(dp745
g3
g4
((lp746
tp747
Rp748
sg8
I00
sg9
g744
ssS'hydrometallurgists'
p749
(dp750
g3
g4
((lp751
tp752
Rp753
sg8
I00
sg9
g749
ssS'quasiperiodicities'
p754
(dp755
g3
g4
((lp756
tp757
Rp758
sg8
I00
sg9
g754
ssS'presumptuousnesses'
p759
(dp760
g3
g4
((lp761
tp762
Rp763
sg8
I00
sg9
g759
ssg508
(dp764
g3
g4
((lp765
g505
atp766
Rp767
sg8
I00
sg9
g508
ssS'electrophilicities'
p768
(dp769
g3
g4
((lp770
tp771
Rp772
sg8
I00
sg9
g768
ssS'piezoelectricities'
p773
(dp774
g3
g4
((lp775
tp776
Rp777
sg8
I00
sg9
g773
ssS'submicroscopically'
p778
(dp779
g3
g4
((lp780
tp781
Rp782
sg8
I00
sg9
g778
ssS'sacrilegiousnesses'
p783
(dp784
g3
g4
((lp785
tp786
Rp787
sg8
I00
sg9
g783
ssS'recrystallizations'
p788
(dp789
g3
g4
((lp790
tp791
Rp792
sg8
I00
sg9
g788
ssS'adenocarcinomatous'
p793
(dp794
g3
g4
((lp795
tp796
Rp797
sg8
I00
sg9
g793
ssS'handcraftsmanships'
p798
(dp799
g3
g4
((lp800
tp801
Rp802
sg8
I00
sg9
g798
ssS'overcommercialized'
p803
(dp804
g3
g4
((lp805
S'overcommercializes'
p806
atp807
Rp808
sg8
I00
sg9
g803
ssS'neuropsychological'
p809
(dp810
g3
g4
((lp811
tp812
Rp813
sg8
I00
sg9
g809
ssS'postmillennialisms'
p814
(dp815
g3
g4
((lp816
S'postmillennialists'
p817
atp818
Rp819
sg8
I00
sg9
g814
ssS'sedimentologically'
p820
(dp821
g3
g4
((lp822
tp823
Rp824
sg8
I00
sg9
g820
ssS'ultraconservatives'
p825
(dp826
g3
g4
((lp827
tp828
Rp829
sg8
I00
sg9
g825
ssg806
(dp830
g3
g4
((lp831
g803
atp832
Rp833
sg8
I00
sg9
g806
ssS'radiosensitivities'
p834
(dp835
g3
g4
((lp836
tp837
Rp838
sg8
I00
sg9
g834
ssS'unaccountabilities'
p839
(dp840
g3
g4
((lp841
tp842
Rp843
sg8
I00
sg9
g839
ssS'photomorphogeneses'
p844
(dp845
g3
g4
((lp846
S'photomorphogenesis'
p847
atp848
Rp849
sg8
I00
sg9
g844
ssS'contradistinctions'
p850
(dp851
g3
g4
((lp852
tp853
Rp854
sg8
I00
sg9
g850
ssS'photoreproductions'
p855
(dp856
g3
g4
((lp857
tp858
Rp859
sg8
I00
sg9
g855
ssS'consequentialities'
p860
(dp861
g3
g4
((lp862
tp863
Rp864
sg8
I00
sg9
g860
ssS'conceptualizations'
p865
(dp866
g3
g4
((lp867
tp868
Rp869
sg8
I00
sg9
g865
ssS'inconsiderableness'
p870
(dp871
g3
g4
((lp872
tp873
Rp874
sg8
I00
sg9
g870
ssS'dendrochronologies'
p875
(dp876
g3
g4
((lp877
tp878
Rp879
sg8
I00
sg9
g875
ssS'dedifferentiations'
p880
(dp881
g3
g4
((lp882
tp883
Rp884
sg8
I00
sg9
g880
ssS'unscrupulousnesses'
p885
(dp886
g3
g4
((lp887
tp888
Rp889
sg8
I00
sg9
g885
ssS'spectrohelioscopes'
p890
(dp891
g3
g4
((lp892
tp893
Rp894
sg8
I00
sg9
g890
ssS'organophosphoruses'
p895
(dp896
g3
g4
((lp897
tp898
Rp899
sg8
I00
sg9
g895
ssS'superintellectuals'
p900
(dp901
g3
g4
((lp902
tp903
Rp904
sg8
I00
sg9
g900
ssS'postpsychoanalytic'
p905
(dp906
g3
g4
((lp907
tp908
Rp909
sg8
I00
sg9
g905
ssS'noninterventionist'
p910
(dp911
g3
g4
((lp912
tp913
Rp914
sg8
I00
sg9
g910
ssS'microradiographies'
p915
(dp916
g3
g4
((lp917
tp918
Rp919
sg8
I00
sg9
g915
ssS'macroglobulinemias'
p920
(dp921
g3
g4
((lp922
tp923
Rp924
sg8
I00
sg9
g920
ssS'nonconfrontational'
p925
(dp926
g3
g4
((lp927
tp928
Rp929
sg8
I00
sg9
g925
ssS'feeblemindednesses'
p930
(dp931
g3
g4
((lp932
tp933
Rp934
sg8
I00
sg9
g930
ssg702
(dp935
g3
g4
((lp936
g699
atp937
Rp938
sg8
I00
sg9
g702
ssS'counterpetitioning'
p939
(dp940
g3
g4
((lp941
tp942
Rp943
sg8
I00
sg9
g939
ssS'transcendentalisms'
p944
(dp945
g3
g4
((lp946
S'transcendentalists'
p947
atp948
Rp949
sg8
I00
sg9
g944
ssS'electrophysiologic'
p950
(dp951
g3
g4
((lp952
tp953
Rp954
sg8
I00
sg9
g950
ssS'misidentifications'
p955
(dp956
g3
g4
((lp957
tp958
Rp959
sg8
I00
sg9
g955
ssS'ophthalmologically'
p960
(dp961
g3
g4
((lp962
tp963
Rp964
sg8
I00
sg9
g960
ssS'psychopathological'
p965
(dp966
g3
g4
((lp967
tp968
Rp969
sg8
I00
sg9
g965
ssS'irresistiblenesses'
p970
(dp971
g3
g4
((lp972
tp973
Rp974
sg8
I00
sg9
g970
ssS'pertinaciousnesses'
p975
(dp976
g3
g4
((lp977
tp978
Rp979
sg8
I00
sg9
g975
ssS'histocompatibility'
p980
(dp981
g3
g4
((lp982
tp983
Rp984
sg8
I00
sg9
g980
ssS'pentachlorophenols'
p985
(dp986
g3
g4
((lp987
tp988
Rp989
sg8
I00
sg9
g985
ssS'granulocytopoiesis'
p990
(dp991
g3
g4
((lp992
S'granulocytopoieses'
p993
atp994
Rp995
sg8
I00
sg9
g990
ssS'autobiographically'
p996
(dp997
g3
g4
((lp998
tp999
Rp1000
sg8
I00
sg9
g996
ssS'transmogrification'
p1001
(dp1002
g3
g4
((lp1003
tp1004
Rp1005
sg8
I00
sg9
g1001
ssS'interconnectedness'
p1006
(dp1007
g3
g4
((lp1008
tp1009
Rp1010
sg8
I00
sg9
g1006
ssS'photolithographies'
p1011
(dp1012
g3
g4
((lp1013
tp1014
Rp1015
sg8
I00
sg9
g1011
ssS'rechromatographing'
p1016
(dp1017
g3
g4
((lp1018
tp1019
Rp1020
sg8
I00
sg9
g1016
ssS'misrepresentations'
p1021
(dp1022
g3
g4
((lp1023
tp1024
Rp1025
sg8
I00
sg9
g1021
ssS'overrepresentation'
p1026
(dp1027
g3
g4
((lp1028
tp1029
Rp1030
sg8
I00
sg9
g1026
ssS'subcategorizations'
p1031
(dp1032
g3
g4
((lp1033
tp1034
Rp1035
sg8
I00
sg9
g1031
ssS'macrophotographies'
p1036
(dp1037
g3
g4
((lp1038
S'microphotographies'
p1039
atp1040
Rp1041
sg8
I00
sg9
g1036
ssS'unresponsivenesses'
p1042
(dp1043
g3
g4
((lp1044
tp1045
Rp1046
sg8
I00
sg9
g1042
ssS'inappreciativeness'
p1047
(dp1048
g3
g4
((lp1049
tp1050
Rp1051
sg8
I00
sg9
g1047
ssS'micropaleontologic'
p1052
(dp1053
g3
g4
((lp1054
tp1055
Rp1056
sg8
I00
sg9
g1052
ssS'intercommunicating'
p1057
(dp1058
g3
g4
((lp1059
tp1060
Rp1061
sg8
I00
sg9
g1057
ssS'conservativenesses'
p1062
(dp1063
g3
g4
((lp1064
tp1065
Rp1066
sg8
I00
sg9
g1062
ssS'neuroendocrinology'
p1067
(dp1068
g3
g4
((lp1069
tp1070
Rp1071
sg8
I00
sg9
g1067
ssS'microcalorimetries'
p1072
(dp1073
g3
g4
((lp1074
tp1075
Rp1076
sg8
I00
sg9
g1072
ssS'interminablenesses'
p1077
(dp1078
g3
g4
((lp1079
tp1080
Rp1081
sg8
I00
sg9
g1077
ssS'interinstitutional'
p1082
(dp1083
g3
g4
((lp1084
tp1085
Rp1086
sg8
I00
sg9
g1082
ssS'interpretabilities'
p1087
(dp1088
g3
g4
((lp1089
tp1090
Rp1091
sg8
I00
sg9
g1087
ssS'nonrevolutionaries'
p1092
(dp1093
g3
g4
((lp1094
tp1095
Rp1096
sg8
I00
sg9
g1092
ssS'counterintuitively'
p1097
(dp1098
g3
g4
((lp1099
tp1100
Rp1101
sg8
I00
sg9
g1097
ssg68
(dp1102
g3
g4
((lp1103
S'reconstructionisms'
p1104
ag65
atp1105
Rp1106
sg8
I00
sg9
g68
ssS'conversationalists'
p1107
(dp1108
g3
g4
((lp1109
tp1110
Rp1111
sg8
I00
sg9
g1107
ssS'homoscedasticities'
p1112
(dp1113
g3
g4
((lp1114
tp1115
Rp1116
sg8
I00
sg9
g1112
ssS'phosphoglucomutase'
p1117
(dp1118
g3
g4
((lp1119
tp1120
Rp1121
sg8
I00
sg9
g1117
ssS'heavyheartednesses'
p1122
(dp1123
g3
g4
((lp1124
tp1125
Rp1126
sg8
I00
sg9
g1122
ssS'pathophysiological'
p1127
(dp1128
g3
g4
((lp1129
tp1130
Rp1131
sg8
I00
sg9
g1127
ssS'transubstantiation'
p1132
(dp1133
g3
g4
((lp1134
tp1135
Rp1136
sg8
I00
sg9
g1132
ssS'spectrophotometers'
p1137
(dp1138
g3
g4
((lp1139
tp1140
Rp1141
sg8
I00
sg9
g1137
ssS'electroretinograms'
p1142
(dp1143
g3
g4
((lp1144
tp1145
Rp1146
sg8
I00
sg9
g1142
ssS'microenvironmental'
p1147
(dp1148
g3
g4
((lp1149
tp1150
Rp1151
sg8
I00
sg9
g1147
ssS'quantificationally'
p1152
(dp1153
g3
g4
((lp1154
tp1155
Rp1156
sg8
I00
sg9
g1152
ssg104
(dp1157
g3
g4
((lp1158
g101
atp1159
Rp1160
sg8
I00
sg9
g104
ssS'interrelationships'
p1161
(dp1162
g3
g4
((lp1163
tp1164
Rp1165
sg8
I00
sg9
g1161
ssS'redistributionists'
p1166
(dp1167
g3
g4
((lp1168
tp1169
Rp1170
sg8
I00
sg9
g1166
ssS'dihydroergotamines'
p1171
(dp1172
g3
g4
((lp1173
tp1174
Rp1175
sg8
I00
sg9
g1171
ssS'unsatisfactoriness'
p1176
(dp1177
g3
g4
((lp1178
tp1179
Rp1180
sg8
I00
sg9
g1176
ssS'bourgeoisification'
p1181
(dp1182
g3
g4
((lp1183
tp1184
Rp1185
sg8
I00
sg9
g1181
ssg680
(dp1186
g3
g4
((lp1187
g676
atp1188
Rp1189
sg8
I00
sg9
g680
ssS'spectrographically'
p1190
(dp1191
g3
g4
((lp1192
tp1193
Rp1194
sg8
I00
sg9
g1190
ssS'constitutionalisms'
p1195
(dp1196
g3
g4
((lp1197
S'constitutionalists'
p1198
atp1199
Rp1200
sg8
I00
sg9
g1195
ssS'dishonorablenesses'
p1201
(dp1202
g3
g4
((lp1203
tp1204
Rp1205
sg8
I00
sg9
g1201
ssS'anticholinesterase'
p1206
(dp1207
g3
g4
((lp1208
tp1209
Rp1210
sg8
I00
sg9
g1206
ssS'cholecystectomized'
p1211
(dp1212
g3
g4
((lp1213
tp1214
Rp1215
sg8
I00
sg9
g1211
ssS'photolithographing'
p1216
(dp1217
g3
g4
((lp1218
tp1219
Rp1220
sg8
I00
sg9
g1216
ssS'postmillenarianism'
p1221
(dp1222
g3
g4
((lp1223
tp1224
Rp1225
sg8
I00
sg9
g1221
ssS'cantankerousnesses'
p1226
(dp1227
g3
g4
((lp1228
tp1229
Rp1230
sg8
I00
sg9
g1226
ssS'radiochromatograms'
p1231
(dp1232
g3
g4
((lp1233
tp1234
Rp1235
sg8
I00
sg9
g1231
ssS'lipopolysaccharide'
p1236
(dp1237
g3
g4
((lp1238
tp1239
Rp1240
sg8
I00
sg9
g1236
ssS'unrestrainednesses'
p1241
(dp1242
g3
g4
((lp1243
tp1244
Rp1245
sg8
I00
sg9
g1241
ssS'lightheartednesses'
p1246
(dp1247
g3
g4
((lp1248
tp1249
Rp1250
sg8
I00
sg9
g1246
ssS'chlortetracyclines'
p1251
(dp1252
g3
g4
((lp1253
tp1254
Rp1255
sg8
I00
sg9
g1251
ssS'latitudinarianisms'
p1256
(dp1257
g3
g4
((lp1258
tp1259
Rp1260
sg8
I00
sg9
g1256
ssS'polychromatophilia'
p1261
(dp1262
g3
g4
((lp1263
S'polychromatophilic'
p1264
atp1265
Rp1266
sg8
I00
sg9
g1261
ssg1264
(dp1267
g3
g4
((lp1268
g1261
atp1269
Rp1270
sg8
I00
sg9
g1264
ssS'electrophoretogram'
p1271
(dp1272
g3
g4
((lp1273
tp1274
Rp1275
sg8
I00
sg9
g1271
ssS'proletarianization'
p1276
(dp1277
g3
g4
((lp1278
tp1279
Rp1280
sg8
I00
sg9
g1276
ssS'incorrigiblenesses'
p1281
(dp1282
g3
g4
((lp1283
tp1284
Rp1285
sg8
I00
sg9
g1281
ssS'transilluminations'
p1286
(dp1287
g3
g4
((lp1288
tp1289
Rp1290
sg8
I00
sg9
g1286
ssS'overinterpretation'
p1291
(dp1292
g3
g4
((lp1293
tp1294
Rp1295
sg8
I00
sg9
g1291
ssS'counterretaliation'
p1296
(dp1297
g3
g4
((lp1298
tp1299
Rp1300
sg8
I00
sg9
g1296
ssS'claustrophobically'
p1301
(dp1302
g3
g4
((lp1303
tp1304
Rp1305
sg8
I00
sg9
g1301
ssS'phonocardiographic'
p1306
(dp1307
g3
g4
((lp1308
tp1309
Rp1310
sg8
I00
sg9
g1306
ssS'individualizations'
p1311
(dp1312
g3
g4
((lp1313
tp1314
Rp1315
sg8
I00
sg9
g1311
ssS'microreproductions'
p1316
(dp1317
g3
g4
((lp1318
tp1319
Rp1320
sg8
I00
sg9
g1316
ssS'polyacrylonitriles'
p1321
(dp1322
g3
g4
((lp1323
tp1324
Rp1325
sg8
I00
sg9
g1321
ssS'superconglomerates'
p1326
(dp1327
g3
g4
((lp1328
tp1329
Rp1330
sg8
I00
sg9
g1326
ssS'ostentatiousnesses'
p1331
(dp1332
g3
g4
((lp1333
tp1334
Rp1335
sg8
I00
sg9
g1331
ssS'pseudoparenchymata'
p1336
(dp1337
g3
g4
((lp1338
tp1339
Rp1340
sg8
I00
sg9
g1336
ssS'geochronologically'
p1341
(dp1342
g3
g4
((lp1343
tp1344
Rp1345
sg8
I00
sg9
g1341
ssS'impermissibilities'
p1346
(dp1347
g3
g4
((lp1348
tp1349
Rp1350
sg8
I00
sg9
g1346
ssS'representativities'
p1351
(dp1352
g3
g4
((lp1353
tp1354
Rp1355
sg8
I00
sg9
g1351
ssS'methylcholanthrene'
p1356
(dp1357
g3
g4
((lp1358
tp1359
Rp1360
sg8
I00
sg9
g1356
ssS'unsubstantialities'
p1361
(dp1362
g3
g4
((lp1363
S'insubstantialities'
p1364
atp1365
Rp1366
sg8
I00
sg9
g1361
ssS'rehospitalizations'
p1367
(dp1368
g3
g4
((lp1369
tp1370
Rp1371
sg8
I00
sg9
g1367
ssS'rambunctiousnesses'
p1372
(dp1373
g3
g4
((lp1374
tp1375
Rp1376
sg8
I00
sg9
g1372
ssS'shortsightednesses'
p1377
(dp1378
g3
g4
((lp1379
tp1380
Rp1381
sg8
I00
sg9
g1377
ssS'disenfranchisement'
p1382
(dp1383
g3
g4
((lp1384
tp1385
Rp1386
sg8
I00
sg9
g1382
ssS'misinterpretations'
p1387
(dp1388
g3
g4
((lp1389
tp1390
Rp1391
sg8
I00
sg9
g1387
ssg847
(dp1392
g3
g4
((lp1393
g844
atp1394
Rp1395
sg8
I00
sg9
g847
ssS'subconsciousnesses'
p1396
(dp1397
g3
g4
((lp1398
tp1399
Rp1400
sg8
I00
sg9
g1396
ssS'triskaidekaphobias'
p1401
(dp1402
g3
g4
((lp1403
tp1404
Rp1405
sg8
I00
sg9
g1401
ssS'knowledgeabilities'
p1406
(dp1407
g3
g4
((lp1408
tp1409
Rp1410
sg8
I00
sg9
g1406
ssS'electrophotography'
p1411
(dp1412
g3
g4
((lp1413
tp1414
Rp1415
sg8
I00
sg9
g1411
ssS'stoichiometrically'
p1416
(dp1417
g3
g4
((lp1418
tp1419
Rp1420
sg8
I00
sg9
g1416
ssS'verisimilitudinous'
p1421
(dp1422
g3
g4
((lp1423
tp1424
Rp1425
sg8
I00
sg9
g1421
ssS'immeasurablenesses'
p1426
(dp1427
g3
g4
((lp1428
tp1429
Rp1430
sg8
I00
sg9
g1426
ssS'electroretinograph'
p1431
(dp1432
g3
g4
((lp1433
tp1434
Rp1435
sg8
I00
sg9
g1431
ssS'discontentednesses'
p1436
(dp1437
g3
g4
((lp1438
tp1439
Rp1440
sg8
I00
sg9
g1436
ssS'phytohemagglutinin'
p1441
(dp1442
g3
g4
((lp1443
tp1444
Rp1445
sg8
I00
sg9
g1441
ssS'denominationalisms'
p1446
(dp1447
g3
g4
((lp1448
tp1449
Rp1450
sg8
I00
sg9
g1446
ssS'micrometeorologist'
p1451
(dp1452
g3
g4
((lp1453
tp1454
Rp1455
sg8
I00
sg9
g1451
ssS'constructivenesses'
p1456
(dp1457
g3
g4
((lp1458
tp1459
Rp1460
sg8
I00
sg9
g1456
ssS'epithelializations'
p1461
(dp1462
g3
g4
((lp1463
tp1464
Rp1465
sg8
I00
sg9
g1461
ssS'agammaglobulinemic'
p1466
(dp1467
g3
g4
((lp1468
S'agammaglobulinemia'
p1469
atp1470
Rp1471
sg8
I00
sg9
g1466
ssg1469
(dp1472
g3
g4
((lp1473
g1466
atp1474
Rp1475
sg8
I00
sg9
g1469
ssS'photosynthetically'
p1476
(dp1477
g3
g4
((lp1478
tp1479
Rp1480
sg8
I00
sg9
g1476
ssS'indestructibleness'
p1481
(dp1482
g3
g4
((lp1483
tp1484
Rp1485
sg8
I00
sg9
g1481
ssS'hydrometallurgical'
p1486
(dp1487
g3
g4
((lp1488
tp1489
Rp1490
sg8
I00
sg9
g1486
ssS'immunohematologies'
p1491
(dp1492
g3
g4
((lp1493
tp1494
Rp1495
sg8
I00
sg9
g1491
ssS'disconnectednesses'
p1496
(dp1497
g3
g4
((lp1498
tp1499
Rp1500
sg8
I00
sg9
g1496
ssS'pseudonymousnesses'
p1501
(dp1502
g3
g4
((lp1503
tp1504
Rp1505
sg8
I00
sg9
g1501
ssS'evapotranspiration'
p1506
(dp1507
g3
g4
((lp1508
tp1509
Rp1510
sg8
I00
sg9
g1506
ssS'disintermediations'
p1511
(dp1512
g3
g4
((lp1513
tp1514
Rp1515
sg8
I00
sg9
g1511
ssS'chromolithographer'
p1516
(dp1517
g3
g4
((lp1518
S'chromolithographed'
p1519
atp1520
Rp1521
sg8
I00
sg9
g1516
ssS'micromanipulations'
p1522
(dp1523
g3
g4
((lp1524
tp1525
Rp1526
sg8
I00
sg9
g1522
ssS'imperishablenesses'
p1527
(dp1528
g3
g4
((lp1529
tp1530
Rp1531
sg8
I00
sg9
g1527
ssS'hypersensitization'
p1532
(dp1533
g3
g4
((lp1534
tp1535
Rp1536
sg8
I00
sg9
g1532
ssS'triboelectricities'
p1537
(dp1538
g3
g4
((lp1539
tp1540
Rp1541
sg8
I00
sg9
g1537
ssS'unchangeablenesses'
p1542
(dp1543
g3
g4
((lp1544
tp1545
Rp1546
sg8
I00
sg9
g1542
ssg1519
(dp1547
g3
g4
((lp1548
g1516
atp1549
Rp1550
sg8
I00
sg9
g1519
ssS'overspecialization'
p1551
(dp1552
g3
g4
((lp1553
tp1554
Rp1555
sg8
I00
sg9
g1551
ssS'decriminalizations'
p1556
(dp1557
g3
g4
((lp1558
tp1559
Rp1560
sg8
I00
sg9
g1556
ssS'overoptimistically'
p1561
(dp1562
g3
g4
((lp1563
tp1564
Rp1565
sg8
I00
sg9
g1561
ssS'sentimentalization'
p1566
(dp1567
g3
g4
((lp1568
tp1569
Rp1570
sg8
I00
sg9
g1566
ssS'hyperalimentations'
p1571
(dp1572
g3
g4
((lp1573
tp1574
Rp1575
sg8
I00
sg9
g1571
ssS'noncooperationists'
p1576
(dp1577
g3
g4
((lp1578
tp1579
Rp1580
sg8
I00
sg9
g1576
ssS'intraventricularly'
p1581
(dp1582
g3
g4
((lp1583
tp1584
Rp1585
sg8
I00
sg9
g1581
ssS'nondiscriminations'
p1586
(dp1587
g3
g4
((lp1588
tp1589
Rp1590
sg8
I00
sg9
g1586
ssS'hemoglobinopathies'
p1591
(dp1592
g3
g4
((lp1593
tp1594
Rp1595
sg8
I00
sg9
g1591
ssS'overconcentrations'
p1596
(dp1597
g3
g4
((lp1598
tp1599
Rp1600
sg8
I00
sg9
g1596
ssS'pronounceabilities'
p1601
(dp1602
g3
g4
((lp1603
tp1604
Rp1605
sg8
I00
sg9
g1601
ssS'incontestabilities'
p1606
(dp1607
g3
g4
((lp1608
tp1609
Rp1610
sg8
I00
sg9
g1606
ssS'diethylstilbestrol'
p1611
(dp1612
g3
g4
((lp1613
tp1614
Rp1615
sg8
I00
sg9
g1611
ssS'glottochronologies'
p1616
(dp1617
g3
g4
((lp1618
tp1619
Rp1620
sg8
I00
sg9
g1616
ssS'disagreeablenesses'
p1621
(dp1622
g3
g4
((lp1623
tp1624
Rp1625
sg8
I00
sg9
g1621
ssS'aerothermodynamics'
p1626
(dp1627
g3
g4
((lp1628
tp1629
Rp1630
sg8
I00
sg9
g1626
ssS'mineralocorticoids'
p1631
(dp1632
g3
g4
((lp1633
tp1634
Rp1635
sg8
I00
sg9
g1631
ssS'soporiferousnesses'
p1636
(dp1637
g3
g4
((lp1638
tp1639
Rp1640
sg8
I00
sg9
g1636
ssS'immunosuppressants'
p1641
(dp1642
g3
g4
((lp1643
tp1644
Rp1645
sg8
I00
sg9
g1641
ssS'ethnomusicologists'
p1646
(dp1647
g3
g4
((lp1648
tp1649
Rp1650
sg8
I00
sg9
g1646
ssS'irreplaceabilities'
p1651
(dp1652
g3
g4
((lp1653
tp1654
Rp1655
sg8
I00
sg9
g1651
ssS'contemptiblenesses'
p1656
(dp1657
g3
g4
((lp1658
tp1659
Rp1660
sg8
I00
sg9
g1656
ssS'hyperpolarizations'
p1661
(dp1662
g3
g4
((lp1663
tp1664
Rp1665
sg8
I00
sg9
g1661
ssS'interchangeability'
p1666
(dp1667
g3
g4
((lp1668
tp1669
Rp1670
sg8
I00
sg9
g1666
ssS'phenomenologically'
p1671
(dp1672
g3
g4
((lp1673
tp1674
Rp1675
sg8
I00
sg9
g1671
ssS'photosensitization'
p1676
(dp1677
g3
g4
((lp1678
tp1679
Rp1680
sg8
I00
sg9
g1676
ssS'methylprednisolone'
p1681
(dp1682
g3
g4
((lp1683
tp1684
Rp1685
sg8
I00
sg9
g1681
ssS'bacteriorhodopsins'
p1686
(dp1687
g3
g4
((lp1688
tp1689
Rp1690
sg8
I00
sg9
g1686
ssS'electrooculography'
p1691
(dp1692
g3
g4
((lp1693
tp1694
Rp1695
sg8
I00
sg9
g1691
ssS'determinablenesses'
p1696
(dp1697
g3
g4
((lp1698
tp1699
Rp1700
sg8
I00
sg9
g1696
ssS'noncommutativities'
p1701
(dp1702
g3
g4
((lp1703
tp1704
Rp1705
sg8
I00
sg9
g1701
ssS'videoconferencings'
p1706
(dp1707
g3
g4
((lp1708
tp1709
Rp1710
sg8
I00
sg9
g1706
ssS'valetudinarianisms'
p1711
(dp1712
g3
g4
((lp1713
tp1714
Rp1715
sg8
I00
sg9
g1711
ssS'obstreperousnesses'
p1716
(dp1717
g3
g4
((lp1718
tp1719
Rp1720
sg8
I00
sg9
g1716
ssS'predestinarianisms'
p1721
(dp1722
g3
g4
((lp1723
tp1724
Rp1725
sg8
I00
sg9
g1721
ssS'meretriciousnesses'
p1726
(dp1727
g3
g4
((lp1728
tp1729
Rp1730
sg8
I00
sg9
g1726
ssS'incorruptibilities'
p1731
(dp1732
g3
g4
((lp1733
tp1734
Rp1735
sg8
I00
sg9
g1731
ssS'anticommercialisms'
p1736
(dp1737
g3
g4
((lp1738
tp1739
Rp1740
sg8
I00
sg9
g1736
ssS'inhospitablenesses'
p1741
(dp1742
g3
g4
((lp1743
tp1744
Rp1745
sg8
I00
sg9
g1741
ssS'manipulativenesses'
p1746
(dp1747
g3
g4
((lp1748
tp1749
Rp1750
sg8
I00
sg9
g1746
ssS'intersubstitutable'
p1751
(dp1752
g3
g4
((lp1753
tp1754
Rp1755
sg8
I00
sg9
g1751
ssS'electrochemistries'
p1756
(dp1757
g3
g4
((lp1758
tp1759
Rp1760
sg8
I00
sg9
g1756
ssS'semiconservatively'
p1761
(dp1762
g3
g4
((lp1763
tp1764
Rp1765
sg8
I00
sg9
g1761
ssS'establishmentarian'
p1766
(dp1767
g3
g4
((lp1768
tp1769
Rp1770
sg8
I00
sg9
g1766
ssS'anagrammatizations'
p1771
(dp1772
g3
g4
((lp1773
tp1774
Rp1775
sg8
I00
sg9
g1771
ssS'absentmindednesses'
p1776
(dp1777
g3
g4
((lp1778
tp1779
Rp1780
sg8
I00
sg9
g1776
ssS'quattuordecillions'
p1781
(dp1782
g3
g4
((lp1783
tp1784
Rp1785
sg8
I00
sg9
g1781
ssS'immunohematologist'
p1786
(dp1787
g3
g4
((lp1788
tp1789
Rp1790
sg8
I00
sg9
g1786
ssS'noncomparabilities'
p1791
(dp1792
g3
g4
((lp1793
tp1794
Rp1795
sg8
I00
sg9
g1791
ssS'psychophysiologist'
p1796
(dp1797
g3
g4
((lp1798
tp1799
Rp1800
sg8
I00
sg9
g1796
ssS'disproportionately'
p1801
(dp1802
g3
g4
((lp1803
tp1804
Rp1805
sg8
I00
sg9
g1801
ssS'ultranationalistic'
p1806
(dp1807
g3
g4
((lp1808
tp1809
Rp1810
sg8
I00
sg9
g1806
ssS'intransitivenesses'
p1811
(dp1812
g3
g4
((lp1813
tp1814
Rp1815
sg8
I00
sg9
g1811
ssS'supercivilizations'
p1816
(dp1817
g3
g4
((lp1818
tp1819
Rp1820
sg8
I00
sg9
g1816
ssS'imperturbabilities'
p1821
(dp1822
g3
g4
((lp1823
tp1824
Rp1825
sg8
I00
sg9
g1821
ssS'generalizabilities'
p1826
(dp1827
g3
g4
((lp1828
tp1829
Rp1830
sg8
I00
sg9
g1826
ssS'lepidopterologists'
p1831
(dp1832
g3
g4
((lp1833
tp1834
Rp1835
sg8
I00
sg9
g1831
ssS'electrocardiograph'
p1836
(dp1837
g3
g4
((lp1838
tp1839
Rp1840
sg8
I00
sg9
g1836
ssS'hypophysectomizing'
p1841
(dp1842
g3
g4
((lp1843
tp1844
Rp1845
sg8
I00
sg9
g1841
ssS'contemptuousnesses'
p1846
(dp1847
g3
g4
((lp1848
tp1849
Rp1850
sg8
I00
sg9
g1846
ssS'echocardiographers'
p1851
(dp1852
g3
g4
((lp1853
tp1854
Rp1855
sg8
I00
sg9
g1851
ssS'counterrevolutions'
p1856
(dp1857
g3
g4
((lp1858
tp1859
Rp1860
sg8
I00
sg9
g1856
ssS'semiquantitatively'
p1861
(dp1862
g3
g4
((lp1863
tp1864
Rp1865
sg8
I00
sg9
g1861
ssS'accumulativenesses'
p1866
(dp1867
g3
g4
((lp1868
tp1869
Rp1870
sg8
I00
sg9
g1866
ssS'psychophysiologies'
p1871
(dp1872
g3
g4
((lp1873
tp1874
Rp1875
sg8
I00
sg9
g1871
ssS'territorialization'
p1876
(dp1877
g3
g4
((lp1878
tp1879
Rp1880
sg8
I00
sg9
g1876
ssS'telecommunications'
p1881
(dp1882
g3
g4
((lp1883
tp1884
Rp1885
sg8
I00
sg9
g1881
ssS'diethylcarbamazine'
p1886
(dp1887
g3
g4
((lp1888
tp1889
Rp1890
sg8
I00
sg9
g1886
ssS'multicellularities'
p1891
(dp1892
g3
g4
((lp1893
tp1894
Rp1895
sg8
I00
sg9
g1891
ssS'companionabilities'
p1896
(dp1897
g3
g4
((lp1898
tp1899
Rp1900
sg8
I00
sg9
g1896
ssS'electrocorticogram'
p1901
(dp1902
g3
g4
((lp1903
tp1904
Rp1905
sg8
I00
sg9
g1901
ssS'inconceivabilities'
p1906
(dp1907
g3
g4
((lp1908
tp1909
Rp1910
sg8
I00
sg9
g1906
ssS'intelligiblenesses'
p1911
(dp1912
g3
g4
((lp1913
tp1914
Rp1915
sg8
I00
sg9
g1911
ssS'photoreactivations'
p1916
(dp1917
g3
g4
((lp1918
tp1919
Rp1920
sg8
I00
sg9
g1916
ssS'renationalizations'
p1921
(dp1922
g3
g4
((lp1923
S'denationalizations'
p1924
atp1925
Rp1926
sg8
I00
sg9
g1921
ssS'indiscriminateness'
p1927
(dp1928
g3
g4
((lp1929
tp1930
Rp1931
sg8
I00
sg9
g1927
ssS'echocardiographies'
p1932
(dp1933
g3
g4
((lp1934
tp1935
Rp1936
sg8
I00
sg9
g1932
ssS'oscillographically'
p1937
(dp1938
g3
g4
((lp1939
tp1940
Rp1941
sg8
I00
sg9
g1937
ssS'sociopsychological'
p1942
(dp1943
g3
g4
((lp1944
tp1945
Rp1946
sg8
I00
sg9
g1942
ssS'transportabilities'
p1947
(dp1948
g3
g4
((lp1949
tp1950
Rp1951
sg8
I00
sg9
g1947
ssS'counterstrategists'
p1952
(dp1953
g3
g4
((lp1954
tp1955
Rp1956
sg8
I00
sg9
g1952
ssS'hydrometeorologies'
p1957
(dp1958
g3
g4
((lp1959
tp1960
Rp1961
sg8
I00
sg9
g1957
ssS'collectivistically'
p1962
(dp1963
g3
g4
((lp1964
tp1965
Rp1966
sg8
I00
sg9
g1962
ssS'chlorofluorocarbon'
p1967
(dp1968
g3
g4
((lp1969
tp1970
Rp1971
sg8
I00
sg9
g1967
ssS'overextrapolations'
p1972
(dp1973
g3
g4
((lp1974
tp1975
Rp1976
sg8
I00
sg9
g1972
ssS'perpendicularities'
p1977
(dp1978
g3
g4
((lp1979
tp1980
Rp1981
sg8
I00
sg9
g1977
ssS'australopithecines'
p1982
(dp1983
g3
g4
((lp1984
tp1985
Rp1986
sg8
I00
sg9
g1982
ssS'somnambulistically'
p1987
(dp1988
g3
g4
((lp1989
tp1990
Rp1991
sg8
I00
sg9
g1987
ssS'glomerulonephritis'
p1992
(dp1993
g3
g4
((lp1994
tp1995
Rp1996
sg8
I00
sg9
g1992
ssS'ultrarevolutionary'
p1997
(dp1998
g3
g4
((lp1999
tp2000
Rp2001
sg8
I00
sg9
g1997
ssS'propagandistically'
p2002
(dp2003
g3
g4
((lp2004
tp2005
Rp2006
sg8
I00
sg9
g2002
ssS'irresponsivenesses'
p2007
(dp2008
g3
g4
((lp2009
tp2010
Rp2011
sg8
I00
sg9
g2007
ssS'interoperabilities'
p2012
(dp2013
g3
g4
((lp2014
tp2015
Rp2016
sg8
I00
sg9
g2012
ssS'spectrofluorometry'
p2017
(dp2018
g3
g4
((lp2019
tp2020
Rp2021
sg8
I00
sg9
g2017
ssS'uniformitarianisms'
p2022
(dp2023
g3
g4
((lp2024
tp2025
Rp2026
sg8
I00
sg9
g2022
ssS'stereophotographic'
p2027
(dp2028
g3
g4
((lp2029
tp2030
Rp2031
sg8
I00
sg9
g2027
ssS'microcrystallinity'
p2032
(dp2033
g3
g4
((lp2034
tp2035
Rp2036
sg8
I00
sg9
g2032
ssg1104
(dp2037
g3
g4
((lp2038
g68
atp2039
Rp2040
sg8
I00
sg9
g1104
ssS'intercolumniations'
p2041
(dp2042
g3
g4
((lp2043
tp2044
Rp2045
sg8
I00
sg9
g2041
ssS'anthropomorphizing'
p2046
(dp2047
g3
g4
((lp2048
tp2049
Rp2050
sg8
I00
sg9
g2046
ssg381
(dp2051
g3
g4
((lp2052
g378
atp2053
Rp2054
sg8
I00
sg9
g381
ssS'biotransformations'
p2055
(dp2056
g3
g4
((lp2057
tp2058
Rp2059
sg8
I00
sg9
g2055
ssS'propertylessnesses'
p2060
(dp2061
g3
g4
((lp2062
tp2063
Rp2064
sg8
I00
sg9
g2060
ssS'hypoparathyroidism'
p2065
(dp2066
g3
g4
((lp2067
tp2068
Rp2069
sg8
I00
sg9
g2065
ssS'gastroenterologist'
p2070
(dp2071
g3
g4
((lp2072
tp2073
Rp2074
sg8
I00
sg9
g2070
ssS'immunocytochemical'
p2075
(dp2076
g3
g4
((lp2077
tp2078
Rp2079
sg8
I00
sg9
g2075
ssS'microdensitometers'
p2080
(dp2081
g3
g4
((lp2082
tp2083
Rp2084
sg8
I00
sg9
g2080
ssS'astrophotographies'
p2085
(dp2086
g3
g4
((lp2087
tp2088
Rp2089
sg8
I00
sg9
g2085
ssS'tachistoscopically'
p2090
(dp2091
g3
g4
((lp2092
tp2093
Rp2094
sg8
I00
sg9
g2090
ssS'weatherproofnesses'
p2095
(dp2096
g3
g4
((lp2097
tp2098
Rp2099
sg8
I00
sg9
g2095
ssS'diastereoisomerism'
p2100
(dp2101
g3
g4
((lp2102
tp2103
Rp2104
sg8
I00
sg9
g2100
ssS'anticounterfeiting'
p2105
(dp2106
g3
g4
((lp2107
tp2108
Rp2109
sg8
I00
sg9
g2105
ssS'hydrometeorologist'
p2110
(dp2111
g3
g4
((lp2112
tp2113
Rp2114
sg8
I00
sg9
g2110
ssS'semipermeabilities'
p2115
(dp2116
g3
g4
((lp2117
tp2118
Rp2119
sg8
I00
sg9
g2115
ssS'interrelatednesses'
p2120
(dp2121
g3
g4
((lp2122
tp2123
Rp2124
sg8
I00
sg9
g2120
ssS'hypersensitiveness'
p2125
(dp2126
g3
g4
((lp2127
tp2128
Rp2129
sg8
I00
sg9
g2125
ssg387
(dp2130
g3
g4
((lp2131
g384
atp2132
Rp2133
sg8
I00
sg9
g387
ssS'supersophisticated'
p2134
(dp2135
g3
g4
((lp2136
tp2137
Rp2138
sg8
I00
sg9
g2134
ssS'biodegradabilities'
p2139
(dp2140
g3
g4
((lp2141
tp2142
Rp2143
sg8
I00
sg9
g2139
ssS'immunofluorescence'
p2144
(dp2145
g3
g4
((lp2146
tp2147
Rp2148
sg8
I00
sg9
g2144
ssS'ultrasophisticated'
p2149
(dp2150
g3
g4
((lp2151
tp2152
Rp2153
sg8
I00
sg9
g2149
ssS'paleoclimatologist'
p2154
(dp2155
g3
g4
((lp2156
tp2157
Rp2158
sg8
I00
sg9
g2154
ssS'disproportionating'
p2159
(dp2160
g3
g4
((lp2161
tp2162
Rp2163
sg8
I00
sg9
g2159
ssS'counterquestioning'
p2164
(dp2165
g3
g4
((lp2166
tp2167
Rp2168
sg8
I00
sg9
g2164
ssS'subclassifications'
p2169
(dp2170
g3
g4
((lp2171
tp2172
Rp2173
sg8
I00
sg9
g2169
ssS'theatricalizations'
p2174
(dp2175
g3
g4
((lp2176
tp2177
Rp2178
sg8
I00
sg9
g2174
ssg1039
(dp2179
g3
g4
((lp2180
g1036
atp2181
Rp2182
sg8
I00
sg9
g1039
ssS'particularizations'
p2183
(dp2184
g3
g4
((lp2185
tp2186
Rp2187
sg8
I00
sg9
g2183
ssS'counterinfluencing'
p2188
(dp2189
g3
g4
((lp2190
tp2191
Rp2192
sg8
I00
sg9
g2188
ssS'constitutionalizes'
p2193
(dp2194
g3
g4
((lp2195
S'constitutionalized'
p2196
atp2197
Rp2198
sg8
I00
sg9
g2193
ssS'extemporaneousness'
p2199
(dp2200
g3
g4
((lp2201
tp2202
Rp2203
sg8
I00
sg9
g2199
ssS'semidomestications'
p2204
(dp2205
g3
g4
((lp2206
tp2207
Rp2208
sg8
I00
sg9
g2204
ssS'discourteousnesses'
p2209
(dp2210
g3
g4
((lp2211
tp2212
Rp2213
sg8
I00
sg9
g2209
ssS'transformationally'
p2214
(dp2215
g3
g4
((lp2216
tp2217
Rp2218
sg8
I00
sg9
g2214
ssS'faintheartednesses'
p2219
(dp2220
g3
g4
((lp2221
tp2222
Rp2223
sg8
I00
sg9
g2219
ssS'electroluminescent'
p2224
(dp2225
g3
g4
((lp2226
tp2227
Rp2228
sg8
I00
sg9
g2224
ssg2196
(dp2229
g3
g4
((lp2230
g2193
atp2231
Rp2232
sg8
I00
sg9
g2196
ssS'nonanthropologists'
p2233
(dp2234
g3
g4
((lp2235
tp2236
Rp2237
sg8
I00
sg9
g2233
ssS'bureaucratizations'
p2238
(dp2239
g3
g4
((lp2240
tp2241
Rp2242
sg8
I00
sg9
g2238
ssS'spectrophotometric'
p2243
(dp2244
g3
g4
((lp2245
tp2246
Rp2247
sg8
I00
sg9
g2243
ssS'ethnomethodologist'
p2248
(dp2249
g3
g4
((lp2250
tp2251
Rp2252
sg8
I00
sg9
g2248
ssS'unassailablenesses'
p2253
(dp2254
g3
g4
((lp2255
tp2256
Rp2257
sg8
I00
sg9
g2253
ssg817
(dp2258
g3
g4
((lp2259
g814
atp2260
Rp2261
sg8
I00
sg9
g817
ssS'counterconventions'
p2262
(dp2263
g3
g4
((lp2264
tp2265
Rp2266
sg8
I00
sg9
g2262
ssS'depersonalizations'
p2267
(dp2268
g3
g4
((lp2269
tp2270
Rp2271
sg8
I00
sg9
g2267
ssS'puzzleheadednesses'
p2272
(dp2273
g3
g4
((lp2274
tp2275
Rp2276
sg8
I00
sg9
g2272
ssS'hyperconsciousness'
p2277
(dp2278
g3
g4
((lp2279
tp2280
Rp2281
sg8
I00
sg9
g2277
ssS'ultraconservatisms'
p2282
(dp2283
g3
g4
((lp2284
tp2285
Rp2286
sg8
I00
sg9
g2282
ssS'transmissibilities'
p2287
(dp2288
g3
g4
((lp2289
tp2290
Rp2291
sg8
I00
sg9
g2287
ssS'characteristically'
p2292
(dp2293
g3
g4
((lp2294
tp2295
Rp2296
sg8
I00
sg9
g2292
ssS'exceptionabilities'
p2297
(dp2298
g3
g4
((lp2299
tp2300
Rp2301
sg8
I00
sg9
g2297
ssS'antidiscrimination'
p2302
(dp2303
g3
g4
((lp2304
tp2305
Rp2306
sg8
I00
sg9
g2302
ssS'overembellishments'
p2307
(dp2308
g3
g4
((lp2309
tp2310
Rp2311
sg8
I00
sg9
g2307
ssS'industrializations'
p2312
(dp2313
g3
g4
((lp2314
tp2315
Rp2316
sg8
I00
sg9
g2312
ssS'overfertilizations'
p2317
(dp2318
g3
g4
((lp2319
tp2320
Rp2321
sg8
I00
sg9
g2317
ssS'consubstantiations'
p2322
(dp2323
g3
g4
((lp2324
tp2325
Rp2326
sg8
I00
sg9
g2322
ssS'hypersensitivities'
p2327
(dp2328
g3
g4
((lp2329
tp2330
Rp2331
sg8
I00
sg9
g2327
ssS'incommensurability'
p2332
(dp2333
g3
g4
((lp2334
tp2335
Rp2336
sg8
I00
sg9
g2332
ssS'nonanthropological'
p2337
(dp2338
g3
g4
((lp2339
tp2340
Rp2341
sg8
I00
sg9
g2337
ssS'commensurabilities'
p2342
(dp2343
g3
g4
((lp2344
tp2345
Rp2346
sg8
I00
sg9
g2342
ssS'irrepressibilities'
p2347
(dp2348
g3
g4
((lp2349
tp2350
Rp2351
sg8
I00
sg9
g2347
ssS'pheochromocytomata'
p2352
(dp2353
g3
g4
((lp2354
tp2355
Rp2356
sg8
I00
sg9
g2352
ssS'largeheartednesses'
p2357
(dp2358
g3
g4
((lp2359
tp2360
Rp2361
sg8
I00
sg9
g2357
ssS'indefatigabilities'
p2362
(dp2363
g3
g4
((lp2364
tp2365
Rp2366
sg8
I00
sg9
g2362
ssS'comprehensibleness'
p2367
(dp2368
g3
g4
((lp2369
tp2370
Rp2371
sg8
I00
sg9
g2367
ssS'supranationalities'
p2372
(dp2373
g3
g4
((lp2374
tp2375
Rp2376
sg8
I00
sg9
g2372
ssS'impracticabilities'
p2377
(dp2378
g3
g4
((lp2379
tp2380
Rp2381
sg8
I00
sg9
g2377
ssS'rechromatographies'
p2382
(dp2383
g3
g4
((lp2384
tp2385
Rp2386
sg8
I00
sg9
g2382
ssS'opinionativenesses'
p2387
(dp2388
g3
g4
((lp2389
tp2390
Rp2391
sg8
I00
sg9
g2387
ssS'psychopathologists'
p2392
(dp2393
g3
g4
((lp2394
tp2395
Rp2396
sg8
I00
sg9
g2392
ssS'inauspiciousnesses'
p2397
(dp2398
g3
g4
((lp2399
tp2400
Rp2401
sg8
I00
sg9
g2397
ssS'inconsolablenesses'
p2402
(dp2403
g3
g4
((lp2404
tp2405
Rp2406
sg8
I00
sg9
g2402
ssS'irreproachableness'
p2407
(dp2408
g3
g4
((lp2409
tp2410
Rp2411
sg8
I00
sg9
g2407
ssS'mechanochemistries'
p2412
(dp2413
g3
g4
((lp2414
tp2415
Rp2416
sg8
I00
sg9
g2412
ssS'polyribonucleotide'
p2417
(dp2418
g3
g4
((lp2419
tp2420
Rp2421
sg8
I00
sg9
g2417
ssS'hypercoagulability'
p2422
(dp2423
g3
g4
((lp2424
tp2425
Rp2426
sg8
I00
sg9
g2422
ssg947
(dp2427
g3
g4
((lp2428
g944
atp2429
Rp2430
sg8
I00
sg9
g947
ssS'representativeness'
p2431
(dp2432
g3
g4
((lp2433
tp2434
Rp2435
sg8
I00
sg9
g2431
ssS'expressionlessness'
p2436
(dp2437
g3
g4
((lp2438
tp2439
Rp2440
sg8
I00
sg9
g2436
ssS'micromorphological'
p2441
(dp2442
g3
g4
((lp2443
tp2444
Rp2445
sg8
I00
sg9
g2441
ssS'microencapsulation'
p2446
(dp2447
g3
g4
((lp2448
tp2449
Rp2450
sg8
I00
sg9
g2446
ssS'thermoluminescence'
p2451
(dp2452
g3
g4
((lp2453
tp2454
Rp2455
sg8
I00
sg9
g2451
ssS'forethoughtfulness'
p2456
(dp2457
g3
g4
((lp2458
tp2459
Rp2460
sg8
I00
sg9
g2456
ssS'diphenylhydantoins'
p2461
(dp2462
g3
g4
((lp2463
tp2464
Rp2465
sg8
I00
sg9
g2461
ssS'unattractivenesses'
p2466
(dp2467
g3
g4
((lp2468
tp2469
Rp2470
sg8
I00
sg9
g2466
ssg1198
(dp2471
g3
g4
((lp2472
g1195
atp2473
Rp2474
sg8
I00
sg9
g1198
ssS'overprotectiveness'
p2475
(dp2476
g3
g4
((lp2477
tp2478
Rp2479
sg8
I00
sg9
g2475
ssS'angiocardiographic'
p2480
(dp2481
g3
g4
((lp2482
tp2483
Rp2484
sg8
I00
sg9
g2480
ssS'overindebtednesses'
p2485
(dp2486
g3
g4
((lp2487
tp2488
Rp2489
sg8
I00
sg9
g2485
ssS'counterreformation'
p2490
(dp2491
g3
g4
((lp2492
tp2493
Rp2494
sg8
I00
sg9
g2490
ssS'countereducational'
p2495
(dp2496
g3
g4
((lp2497
tp2498
Rp2499
sg8
I00
sg9
g2495
ssS'orthopsychiatrists'
p2500
(dp2501
g3
g4
((lp2502
tp2503
Rp2504
sg8
I00
sg9
g2500
ssS'phosphodiesterases'
p2505
(dp2506
g3
g4
((lp2507
tp2508
Rp2509
sg8
I00
sg9
g2505
ssS'preposterousnesses'
p2510
(dp2511
g3
g4
((lp2512
tp2513
Rp2514
sg8
I00
sg9
g2510
ssS'trichloroethylenes'
p2515
(dp2516
g3
g4
((lp2517
tp2518
Rp2519
sg8
I00
sg9
g2515
ssS'inarticulatenesses'
p2520
(dp2521
g3
g4
((lp2522
tp2523
Rp2524
sg8
I00
sg9
g2520
ssS'supersensitivities'
p2525
(dp2526
g3
g4
((lp2527
tp2528
Rp2529
sg8
I00
sg9
g2525
ssS'immunoprecipitated'
p2530
(dp2531
g3
g4
((lp2532
S'immunoprecipitates'
p2533
atp2534
Rp2535
sg8
I00
sg9
g2530
ssS'communicablenesses'
p2536
(dp2537
g3
g4
((lp2538
tp2539
Rp2540
sg8
I00
sg9
g2536
ssg1924
(dp2541
g3
g4
((lp2542
g1921
atp2543
Rp2544
sg8
I00
sg9
g1924
ssS'myeloproliferative'
p2545
(dp2546
g3
g4
((lp2547
tp2548
Rp2549
sg8
I00
sg9
g2545
ssS'unconscionableness'
p2550
(dp2551
g3
g4
((lp2552
tp2553
Rp2554
sg8
I00
sg9
g2550
ssS'dephosphorylations'
p2555
(dp2556
g3
g4
((lp2557
tp2558
Rp2559
sg8
I00
sg9
g2555
ssS'irreconcilableness'
p2560
(dp2561
g3
g4
((lp2562
tp2563
Rp2564
sg8
I00
sg9
g2560
ssS'ribonucleoproteins'
p2565
(dp2566
g3
g4
((lp2567
tp2568
Rp2569
sg8
I00
sg9
g2565
ssS'unpredictabilities'
p2570
(dp2571
g3
g4
((lp2572
tp2573
Rp2574
sg8
I00
sg9
g2570
ssS'uncharitablenesses'
p2575
(dp2576
g3
g4
((lp2577
tp2578
Rp2579
sg8
I00
sg9
g2575
ssg2533
(dp2580
g3
g4
((lp2581
g2530
atp2582
Rp2583
sg8
I00
sg9
g2533
ssS'dimethyltryptamine'
p2584
(dp2585
g3
g4
((lp2586
tp2587
Rp2588
sg8
I00
sg9
g2584
ssS'microphotographers'
p2589
(dp2590
g3
g4
((lp2591
tp2592
Rp2593
sg8
I00
sg9
g2589
ssS'indisputablenesses'
p2594
(dp2595
g3
g4
((lp2596
tp2597
Rp2598
sg8
I00
sg9
g2594
ssS'stereoregularities'
p2599
(dp2600
g3
g4
((lp2601
tp2602
Rp2603
sg8
I00
sg9
g2599
ssS'spectroheliographs'
p2604
(dp2605
g3
g4
((lp2606
S'spectroheliography'
p2607
atp2608
Rp2609
sg8
I00
sg9
g2604
ssS'deliberativenesses'
p2610
(dp2611
g3
g4
((lp2612
tp2613
Rp2614
sg8
I00
sg9
g2610
ssg2607
(dp2615
g3
g4
((lp2616
g2604
atp2617
Rp2618
sg8
I00
sg9
g2607
ssS'misadministrations'
p2619
(dp2620
g3
g4
((lp2621
tp2622
Rp2623
sg8
I00
sg9
g2619
ssS'hypernationalistic'
p2624
(dp2625
g3
g4
((lp2626
tp2627
Rp2628
sg8
I00
sg9
g2624
ssS'congregationalisms'
p2629
(dp2630
g3
g4
((lp2631
S'congregationalists'
p2632
atp2633
Rp2634
sg8
I00
sg9
g2629
ssS'overidentification'
p2635
(dp2636
g3
g4
((lp2637
tp2638
Rp2639
sg8
I00
sg9
g2635
ssS'counterpropagandas'
p2640
(dp2641
g3
g4
((lp2642
tp2643
Rp2644
sg8
I00
sg9
g2640
ssg731
(dp2645
g3
g4
((lp2646
g728
atp2647
Rp2648
sg8
I00
sg9
g731
ssS'hydroelectricities'
p2649
(dp2650
g3
g4
((lp2651
tp2652
Rp2653
sg8
I00
sg9
g2649
ssS'transistorizations'
p2654
(dp2655
g3
g4
((lp2656
tp2657
Rp2658
sg8
I00
sg9
g2654
ssS'chromolithographic'
p2659
(dp2660
g3
g4
((lp2661
tp2662
Rp2663
sg8
I00
sg9
g2659
ssS'intermediatenesses'
p2664
(dp2665
g3
g4
((lp2666
tp2667
Rp2668
sg8
I00
sg9
g2664
ssS'unintelligibleness'
p2669
(dp2670
g3
g4
((lp2671
tp2672
Rp2673
sg8
I00
sg9
g2669
ssS'apprehensivenesses'
p2674
(dp2675
g3
g4
((lp2676
tp2677
Rp2678
sg8
I00
sg9
g2674
ssS'magnetostrictively'
p2679
(dp2680
g3
g4
((lp2681
tp2682
Rp2683
sg8
I00
sg9
g2679
ssS'neuropharmacologic'
p2684
(dp2685
g3
g4
((lp2686
tp2687
Rp2688
sg8
I00
sg9
g2684
ssS'paleoclimatologies'
p2689
(dp2690
g3
g4
((lp2691
tp2692
Rp2693
sg8
I00
sg9
g2689
ssS'imperceptivenesses'
p2694
(dp2695
g3
g4
((lp2696
tp2697
Rp2698
sg8
I00
sg9
g2694
ssS'praiseworthinesses'
p2699
(dp2700
g3
g4
((lp2701
tp2702
Rp2703
sg8
I00
sg9
g2699
ssS'impersonalizations'
p2704
(dp2705
g3
g4
((lp2706
tp2707
Rp2708
sg8
I00
sg9
g2704
ssS'psychopharmacology'
p2709
(dp2710
g3
g4
((lp2711
tp2712
Rp2713
sg8
I00
sg9
g2709
ssS'invulnerablenesses'
p2714
(dp2715
g3
g4
((lp2716
tp2717
Rp2718
sg8
I00
sg9
g2714
ssS'simultaneousnesses'
p2719
(dp2720
g3
g4
((lp2721
tp2722
Rp2723
sg8
I00
sg9
g2719
ssg301
(dp2724
g3
g4
((lp2725
g298
atp2726
Rp2727
sg8
I00
sg9
g301
ssS'neuropsychologists'
p2728
(dp2729
g3
g4
((lp2730
tp2731
Rp2732
sg8
I00
sg9
g2728
ssS'hypercorrectnesses'
p2733
(dp2734
g3
g4
((lp2735
tp2736
Rp2737
sg8
I00
sg9
g2733
ssS'roentgenologically'
p2738
(dp2739
g3
g4
((lp2740
tp2741
Rp2742
sg8
I00
sg9
g2738
ssS'methemoglobinemias'
p2743
(dp2744
g3
g4
((lp2745
tp2746
Rp2747
sg8
I00
sg9
g2743
ssS'antiadministration'
p2748
(dp2749
g3
g4
((lp2750
tp2751
Rp2752
sg8
I00
sg9
g2748
ssS'ultracentrifugally'
p2753
(dp2754
g3
g4
((lp2755
tp2756
Rp2757
sg8
I00
sg9
g2753
ssS'distinguishability'
p2758
(dp2759
g3
g4
((lp2760
tp2761
Rp2762
sg8
I00
sg9
g2758
ssS'neuropsychiatrists'
p2763
(dp2764
g3
g4
((lp2765
tp2766
Rp2767
sg8
I00
sg9
g2763
ssS'neurophysiological'
p2768
(dp2769
g3
g4
((lp2770
tp2771
Rp2772
sg8
I00
sg9
g2768
ssS'thermoplasticities'
p2773
(dp2774
g3
g4
((lp2775
tp2776
Rp2777
sg8
I00
sg9
g2773
ssS'countersuggestions'
p2778
(dp2779
g3
g4
((lp2780
tp2781
Rp2782
sg8
I00
sg9
g2778
ssS'perchloroethylenes'
p2783
(dp2784
g3
g4
((lp2785
tp2786
Rp2787
sg8
I00
sg9
g2783
ssS'gastroenterologies'
p2788
(dp2789
g3
g4
((lp2790
tp2791
Rp2792
sg8
I00
sg9
g2788
ssS'hyperimmunizations'
p2793
(dp2794
g3
g4
((lp2795
tp2796
Rp2797
sg8
I00
sg9
g2793
ssS'intellectualnesses'
p2798
(dp2799
g3
g4
((lp2800
tp2801
Rp2802
sg8
I00
sg9
g2798
ssS'irretrievabilities'
p2803
(dp2804
g3
g4
((lp2805
tp2806
Rp2807
sg8
I00
sg9
g2803
ssS'revascularizations'
p2808
(dp2809
g3
g4
((lp2810
tp2811
Rp2812
sg8
I00
sg9
g2808
ssS'inexpugnablenesses'
p2813
(dp2814
g3
g4
((lp2815
tp2816
Rp2817
sg8
I00
sg9
g2813
ssS'nonarbitrarinesses'
p2818
(dp2819
g3
g4
((lp2820
tp2821
Rp2822
sg8
I00
sg9
g2818
ssS'inexpressivenesses'
p2823
(dp2824
g3
g4
((lp2825
tp2826
Rp2827
sg8
I00
sg9
g2823
ssS'greatheartednesses'
p2828
(dp2829
g3
g4
((lp2830
tp2831
Rp2832
sg8
I00
sg9
g2828
ssS'oversimplification'
p2833
(dp2834
g3
g4
((lp2835
tp2836
Rp2837
sg8
I00
sg9
g2833
ssS'disproportionation'
p2838
(dp2839
g3
g4
((lp2840
tp2841
Rp2842
sg8
I00
sg9
g2838
ssS'noninterchangeable'
p2843
(dp2844
g3
g4
((lp2845
tp2846
Rp2847
sg8
I00
sg9
g2843
ssS'indispensabilities'
p2848
(dp2849
g3
g4
((lp2850
tp2851
Rp2852
sg8
I00
sg9
g2848
ssS'polymorphonuclears'
p2853
(dp2854
g3
g4
((lp2855
tp2856
Rp2857
sg8
I00
sg9
g2853
ssS'overcentralization'
p2858
(dp2859
g3
g4
((lp2860
tp2861
Rp2862
sg8
I00
sg9
g2858
ssS'glycosaminoglycans'
p2863
(dp2864
g3
g4
((lp2865
tp2866
Rp2867
sg8
I00
sg9
g2863
ssS'stereospecifically'
p2868
(dp2869
g3
g4
((lp2870
tp2871
Rp2872
sg8
I00
sg9
g2868
ssS'nondeductibilities'
p2873
(dp2874
g3
g4
((lp2875
tp2876
Rp2877
sg8
I00
sg9
g2873
ssS'lymphangiographies'
p2878
(dp2879
g3
g4
((lp2880
tp2881
Rp2882
sg8
I00
sg9
g2878
ssS'ovolactovegetarian'
p2883
(dp2884
g3
g4
((lp2885
tp2886
Rp2887
sg8
I00
sg9
g2883
ssS'overcapitalization'
p2888
(dp2889
g3
g4
((lp2890
tp2891
Rp2892
sg8
I00
sg9
g2888
ssS'nonfraternizations'
p2893
(dp2894
g3
g4
((lp2895
tp2896
Rp2897
sg8
I00
sg9
g2893
ssg993
(dp2898
g3
g4
((lp2899
g990
atp2900
Rp2901
sg8
I00
sg9
g993
ssS'lepidopterological'
p2902
(dp2903
g3
g4
((lp2904
tp2905
Rp2906
sg8
I00
sg9
g2902
ssS'electrodepositions'
p2907
(dp2908
g3
g4
((lp2909
tp2910
Rp2911
sg8
I00
sg9
g2907
ssS'counterdemonstrate'
p2912
(dp2913
g3
g4
((lp2914
tp2915
Rp2916
sg8
I00
sg9
g2912
ssS'immunopathologists'
p2917
(dp2918
g3
g4
((lp2919
tp2920
Rp2921
sg8
I00
sg9
g2917
ssS'dematerializations'
p2922
(dp2923
g3
g4
((lp2924
tp2925
Rp2926
sg8
I00
sg9
g2922
ssS'unconstitutionally'
p2927
(dp2928
g3
g4
((lp2929
tp2930
Rp2931
sg8
I00
sg9
g2927
ssS'neurotransmissions'
p2932
(dp2933
g3
g4
((lp2934
tp2935
Rp2936
sg8
I00
sg9
g2932
ssS'gedankenexperiment'
p2937
(dp2938
g3
g4
((lp2939
tp2940
Rp2941
sg8
I00
sg9
g2937
ssS'dendrochronologist'
p2942
(dp2943
g3
g4
((lp2944
tp2945
Rp2946
sg8
I00
sg9
g2942
ssg2632
(dp2947
g3
g4
((lp2948
g2629
atp2949
Rp2950
sg8
I00
sg9
g2632
ssS'hyperrationalities'
p2951
(dp2952
g3
g4
((lp2953
tp2954
Rp2955
sg8
I00
sg9
g2951
ssS'remunerativenesses'
p2956
(dp2957
g3
g4
((lp2958
tp2959
Rp2960
sg8
I00
sg9
g2956
ssg1364
(dp2961
g3
g4
((lp2962
g1361
atp2963
Rp2964
sg8
I00
sg9
g1364
ssS'counteradaptations'
p2965
(dp2966
g3
g4
((lp2967
tp2968
Rp2969
sg8
I00
sg9
g2965
ssS'hemidemisemiquaver'
p2970
(dp2971
g3
g4
((lp2972
tp2973
Rp2974
sg8
I00
sg9
g2970
ss.