(dp0
S'oversensitivenesses'
p1
(dp2
S'neighbors'
p3
c__builtin__
set
p4
((lp5
tp6
Rp7
sS'visited'
p8
I00
sS'word'
p9
g1
ssS'interstratification'
p10
(dp11
g3
g4
((lp12
tp13
Rp14
sg8
I00
sg9
g10
ssS'undemonstrativeness'
p15
(dp16
g3
g4
((lp17
tp18
Rp19
sg8
I00
sg9
g15
ssS'counterdemonstrator'
p20
(dp21
g3
g4
((lp22
tp23
Rp24
sg8
I00
sg9
g20
ssS'counterinstitutions'
p25
(dp26
g3
g4
((lp27
tp28
Rp29
sg8
I00
sg9
g25
ssS'microelectronically'
p30
(dp31
g3
g4
((lp32
tp33
Rp34
sg8
I00
sg9
g30
ssS'comprehensibilities'
p35
(dp36
g3
g4
((lp37
tp38
Rp39
sg8
I00
sg9
g35
ssS'irreproducibilities'
p40
(dp41
g3
g4
((lp42
tp43
Rp44
sg8
I00
sg9
g40
ssS'ultrasegregationist'
p45
(dp46
g3
g4
((lp47
tp48
Rp49
sg8
I00
sg9
g45
ssS'interchangeableness'
p50
(dp51
g3
g4
((lp52
tp53
Rp54
sg8
I00
sg9
g50
ssS'irrecoverablenesses'
p55
(dp56
g3
g4
((lp57
tp58
Rp59
sg8
I00
sg9
g55
ssS'counterinsurgencies'
p60
(dp61
g3
g4
((lp62
tp63
Rp64
sg8
I00
sg9
g60
ssS'radiopharmaceutical'
p65
(dp66
g3
g4
((lp67
tp68
Rp69
sg8
I00
sg9
g65
ssS'unceremoniousnesses'
p70
(dp71
g3
g4
((lp72
tp73
Rp74
sg8
I00
sg9
g70
ssS'posttranscriptional'
p75
(dp76
g3
g4
((lp77
tp78
Rp79
sg8
I00
sg9
g75
ssS'electrodynamometers'
p80
(dp81
g3
g4
((lp82
tp83
Rp84
sg8
I00
sg9
g80
ssS'extralinguistically'
p85
(dp86
g3
g4
((lp87
tp88
Rp89
sg8
I00
sg9
g85
ssS'anticonservationist'
p90
(dp91
g3
g4
((lp92
tp93
Rp94
sg8
I00
sg9
g90
ssS'sentimentalizations'
p95
(dp96
g3
g4
((lp97
tp98
Rp99
sg8
I00
sg9
g95
ssS'nonrepresentational'
p100
(dp101
g3
g4
((lp102
tp103
Rp104
sg8
I00
sg9
g100
ssS'representationalist'
p105
(dp106
g3
g4
((lp107
S'representationalism'
p108
atp109
Rp110
sg8
I00
sg9
g105
ssS'micropaleontologies'
p111
(dp112
g3
g4
((lp113
tp114
Rp115
sg8
I00
sg9
g111
ssS'gedankenexperiments'
p116
(dp117
g3
g4
((lp118
tp119
Rp120
sg8
I00
sg9
g116
ssS'polychromatophilias'
p121
(dp122
g3
g4
((lp123
tp124
Rp125
sg8
I00
sg9
g121
ssS'deinstitutionalized'
p126
(dp127
g3
g4
((lp128
S'reinstitutionalized'
p129
aS'deinstitutionalizes'
p130
atp131
Rp132
sg8
I00
sg9
g126
ssS'sanctimoniousnesses'
p133
(dp134
g3
g4
((lp135
tp136
Rp137
sg8
I00
sg9
g133
ssS'counteradvertisings'
p138
(dp139
g3
g4
((lp140
tp141
Rp142
sg8
I00
sg9
g138
ssS'spectrofluorimeters'
p143
(dp144
g3
g4
((lp145
S'spectrofluorometers'
p146
atp147
Rp148
sg8
I00
sg9
g143
ssS'ovolactovegetarians'
p149
(dp150
g3
g4
((lp151
tp152
Rp153
sg8
I00
sg9
g149
ssS'photodecompositions'
p154
(dp155
g3
g4
((lp156
tp157
Rp158
sg8
I00
sg9
g154
ssS'overidentifications'
p159
(dp160
g3
g4
((lp161
tp162
Rp163
sg8
I00
sg9
g159
ssS'photosensitizations'
p164
(dp165
g3
g4
((lp166
tp167
Rp168
sg8
I00
sg9
g164
ssS'overambitiousnesses'
p169
(dp170
g3
g4
((lp171
tp172
Rp173
sg8
I00
sg9
g169
ssS'otorhinolaryngology'
p174
(dp175
g3
g4
((lp176
tp177
Rp178
sg8
I00
sg9
g174
ssS'tridimensionalities'
p179
(dp180
g3
g4
((lp181
tp182
Rp183
sg8
I00
sg9
g179
ssS'photoreconnaissance'
p184
(dp185
g3
g4
((lp186
tp187
Rp188
sg8
I00
sg9
g184
ssg130
(dp189
g3
g4
((lp190
g126
aS'reinstitutionalizes'
p191
atp192
Rp193
sg8
I00
sg9
g130
ssg191
(dp194
g3
g4
((lp195
g129
ag130
atp196
Rp197
sg8
I00
sg9
g191
ssS'unintelligibilities'
p198
(dp199
g3
g4
((lp200
tp201
Rp202
sg8
I00
sg9
g198
ssS'antifluoridationist'
p203
(dp204
g3
g4
((lp205
tp206
Rp207
sg8
I00
sg9
g203
ssS'diethylstilbestrols'
p208
(dp209
g3
g4
((lp210
tp211
Rp212
sg8
I00
sg9
g208
ssS'proletarianizations'
p213
(dp214
g3
g4
((lp215
tp216
Rp217
sg8
I00
sg9
g213
ssS'authoritativenesses'
p218
(dp219
g3
g4
((lp220
tp221
Rp222
sg8
I00
sg9
g218
ssS'uncontrollabilities'
p223
(dp224
g3
g4
((lp225
tp226
Rp227
sg8
I00
sg9
g223
ssS'unapproachabilities'
p228
(dp229
g3
g4
((lp230
tp231
Rp232
sg8
I00
sg9
g228
ssS'untranslatabilities'
p233
(dp234
g3
g4
((lp235
tp236
Rp237
sg8
I00
sg9
g233
ssg129
(dp238
g3
g4
((lp239
g126
ag191
atp240
Rp241
sg8
I00
sg9
g129
ssS'constitutionalizing'
p242
(dp243
g3
g4
((lp244
tp245
Rp246
sg8
I00
sg9
g242
ssS'adventuresomenesses'
p247
(dp248
g3
g4
((lp249
tp250
Rp251
sg8
I00
sg9
g247
ssS'hyperparathyroidism'
p252
(dp253
g3
g4
((lp254
tp255
Rp256
sg8
I00
sg9
g252
ssS'anthropocentrically'
p257
(dp258
g3
g4
((lp259
tp260
Rp261
sg8
I00
sg9
g257
ssS'pseudosophisticated'
p262
(dp263
g3
g4
((lp264
tp265
Rp266
sg8
I00
sg9
g262
ssS'professionalization'
p267
(dp268
g3
g4
((lp269
tp270
Rp271
sg8
I00
sg9
g267
ssS'conventionalization'
p272
(dp273
g3
g4
((lp274
tp275
Rp276
sg8
I00
sg9
g272
ssS'intellectualization'
p277
(dp278
g3
g4
((lp279
tp280
Rp281
sg8
I00
sg9
g277
ssS'inconspicuousnesses'
p282
(dp283
g3
g4
((lp284
tp285
Rp286
sg8
I00
sg9
g282
ssS'electrophoretically'
p287
(dp288
g3
g4
((lp289
tp290
Rp291
sg8
I00
sg9
g287
ssS'dendrochronological'
p292
(dp293
g3
g4
((lp294
tp295
Rp296
sg8
I00
sg9
g292
ssS'spectrofluorometric'
p297
(dp298
g3
g4
((lp299
tp300
Rp301
sg8
I00
sg9
g297
ssS'establishmentarians'
p302
(dp303
g3
g4
((lp304
tp305
Rp306
sg8
I00
sg9
g302
ssS'antiferromagnetisms'
p307
(dp308
g3
g4
((lp309
tp310
Rp311
sg8
I00
sg9
g307
ssS'impressionabilities'
p312
(dp313
g3
g4
((lp314
tp315
Rp316
sg8
I00
sg9
g312
ssS'inconceivablenesses'
p317
(dp318
g3
g4
((lp319
tp320
Rp321
sg8
I00
sg9
g317
ssS'countersurveillance'
p322
(dp323
g3
g4
((lp324
tp325
Rp326
sg8
I00
sg9
g322
ssS'micropaleontologist'
p327
(dp328
g3
g4
((lp329
tp330
Rp331
sg8
I00
sg9
g327
ssS'paleogeographically'
p332
(dp333
g3
g4
((lp334
tp335
Rp336
sg8
I00
sg9
g332
ssS'counterculturalisms'
p337
(dp338
g3
g4
((lp339
tp340
Rp341
sg8
I00
sg9
g337
ssS'parthenogenetically'
p342
(dp343
g3
g4
((lp344
tp345
Rp346
sg8
I00
sg9
g342
ssS'cinematographically'
p347
(dp348
g3
g4
((lp349
tp350
Rp351
sg8
I00
sg9
g347
ssS'phosphoglucomutases'
p352
(dp353
g3
g4
((lp354
tp355
Rp356
sg8
I00
sg9
g352
ssS'bacteriochlorophyll'
p357
(dp358
g3
g4
((lp359
tp360
Rp361
sg8
I00
sg9
g357
ssS'irreproachabilities'
p362
(dp363
g3
g4
((lp364
tp365
Rp366
sg8
I00
sg9
g362
ssS'exhibitionistically'
p367
(dp368
g3
g4
((lp369
tp370
Rp371
sg8
I00
sg9
g367
ssS'differentiabilities'
p372
(dp373
g3
g4
((lp374
tp375
Rp376
sg8
I00
sg9
g372
ssS'anthropomorphically'
p377
(dp378
g3
g4
((lp379
tp380
Rp381
sg8
I00
sg9
g377
ssS'hyperconcentrations'
p382
(dp383
g3
g4
((lp384
tp385
Rp386
sg8
I00
sg9
g382
ssS'comprehensivenesses'
p387
(dp388
g3
g4
((lp389
tp390
Rp391
sg8
I00
sg9
g387
ssS'interferometrically'
p392
(dp393
g3
g4
((lp394
tp395
Rp396
sg8
I00
sg9
g392
ssS'companionablenesses'
p397
(dp398
g3
g4
((lp399
tp400
Rp401
sg8
I00
sg9
g397
ssS'electrophysiologist'
p402
(dp403
g3
g4
((lp404
tp405
Rp406
sg8
I00
sg9
g402
ssS'paleoanthropologies'
p407
(dp408
g3
g4
((lp409
tp410
Rp411
sg8
I00
sg9
g407
ssS'accommodativenesses'
p412
(dp413
g3
g4
((lp414
tp415
Rp416
sg8
I00
sg9
g412
ssS'overintellectualize'
p417
(dp418
g3
g4
((lp419
tp420
Rp421
sg8
I00
sg9
g417
ssS'diastereoisomerisms'
p422
(dp423
g3
g4
((lp424
tp425
Rp426
sg8
I00
sg9
g422
ssS'inexpressiblenesses'
p427
(dp428
g3
g4
((lp429
tp430
Rp431
sg8
I00
sg9
g427
ssS'indeterminatenesses'
p432
(dp433
g3
g4
((lp434
tp435
Rp436
sg8
I00
sg9
g432
ssS'interconvertibility'
p437
(dp438
g3
g4
((lp439
tp440
Rp441
sg8
I00
sg9
g437
ssS'microencapsulations'
p442
(dp443
g3
g4
((lp444
tp445
Rp446
sg8
I00
sg9
g442
ssS'dehydrochlorination'
p447
(dp448
g3
g4
((lp449
tp450
Rp451
sg8
I00
sg9
g447
ssS'mucopolysaccharides'
p452
(dp453
g3
g4
((lp454
tp455
Rp456
sg8
I00
sg9
g452
ssS'psychopharmacologic'
p457
(dp458
g3
g4
((lp459
tp460
Rp461
sg8
I00
sg9
g457
ssS'angiocardiographies'
p462
(dp463
g3
g4
((lp464
tp465
Rp466
sg8
I00
sg9
g462
ssS'ultracontemporaries'
p467
(dp468
g3
g4
((lp469
tp470
Rp471
sg8
I00
sg9
g467
ssS'impressionistically'
p472
(dp473
g3
g4
((lp474
tp475
Rp476
sg8
I00
sg9
g472
ssS'crosslinguistically'
p477
(dp478
g3
g4
((lp479
tp480
Rp481
sg8
I00
sg9
g477
ssS'countermobilization'
p482
(dp483
g3
g4
((lp484
tp485
Rp486
sg8
I00
sg9
g482
ssS'hydrometeorological'
p487
(dp488
g3
g4
((lp489
tp490
Rp491
sg8
I00
sg9
g487
ssS'multidimensionality'
p492
(dp493
g3
g4
((lp494
tp495
Rp496
sg8
I00
sg9
g492
ssS'overproportionately'
p497
(dp498
g3
g4
((lp499
tp500
Rp501
sg8
I00
sg9
g497
ssS'revolutionarinesses'
p502
(dp503
g3
g4
((lp504
tp505
Rp506
sg8
I00
sg9
g502
ssS'contradistinctively'
p507
(dp508
g3
g4
((lp509
tp510
Rp511
sg8
I00
sg9
g507
ssS'radioallergosorbent'
p512
(dp513
g3
g4
((lp514
tp515
Rp516
sg8
I00
sg9
g512
ssS'electrophotographic'
p517
(dp518
g3
g4
((lp519
tp520
Rp521
sg8
I00
sg9
g517
ssS'adrenocorticotropic'
p522
(dp523
g3
g4
((lp524
S'adrenocorticotropin'
p525
atp526
Rp527
sg8
I00
sg9
g522
ssS'electrocardiography'
p528
(dp529
g3
g4
((lp530
S'electrocardiographs'
p531
atp532
Rp533
sg8
I00
sg9
g528
ssS'counterdemonstrated'
p534
(dp535
g3
g4
((lp536
S'counterdemonstrates'
p537
atp538
Rp539
sg8
I00
sg9
g534
ssS'antirevolutionaries'
p540
(dp541
g3
g4
((lp542
tp543
Rp544
sg8
I00
sg9
g540
ssS'constitutionalities'
p545
(dp546
g3
g4
((lp547
tp548
Rp549
sg8
I00
sg9
g545
ssg525
(dp550
g3
g4
((lp551
g522
atp552
Rp553
sg8
I00
sg9
g525
ssS'directionlessnesses'
p554
(dp555
g3
g4
((lp556
tp557
Rp558
sg8
I00
sg9
g554
ssS'photodisintegration'
p559
(dp560
g3
g4
((lp561
tp562
Rp563
sg8
I00
sg9
g559
ssS'hydrometeorologists'
p564
(dp565
g3
g4
((lp566
tp567
Rp568
sg8
I00
sg9
g564
ssg537
(dp569
g3
g4
((lp570
g534
atp571
Rp572
sg8
I00
sg9
g537
ssS'chromolithographers'
p573
(dp574
g3
g4
((lp575
tp576
Rp577
sg8
I00
sg9
g573
ssS'electrophysiologies'
p578
(dp579
g3
g4
((lp580
tp581
Rp582
sg8
I00
sg9
g578
ssS'knowledgeablenesses'
p583
(dp584
g3
g4
((lp585
tp586
Rp587
sg8
I00
sg9
g583
ssS'meningoencephalitis'
p588
(dp589
g3
g4
((lp590
S'meningoencephalitic'
p591
atp592
Rp593
sg8
I00
sg9
g588
ssS'paleoclimatologists'
p594
(dp595
g3
g4
((lp596
tp597
Rp598
sg8
I00
sg9
g594
ssS'thermoperiodicities'
p599
(dp600
g3
g4
((lp601
tp602
Rp603
sg8
I00
sg9
g599
ssS'psychophysiologists'
p604
(dp605
g3
g4
((lp606
tp607
Rp608
sg8
I00
sg9
g604
ssS'inappropriatenesses'
p609
(dp610
g3
g4
((lp611
tp612
Rp613
sg8
I00
sg9
g609
ssS'reprehensiblenesses'
p614
(dp615
g3
g4
((lp616
tp617
Rp618
sg8
I00
sg9
g614
ssS'nonproductivenesses'
p619
(dp620
g3
g4
((lp621
tp622
Rp623
sg8
I00
sg9
g619
ssS'parasympathomimetic'
p624
(dp625
g3
g4
((lp626
tp627
Rp628
sg8
I00
sg9
g624
ssS'overrepresentations'
p629
(dp630
g3
g4
((lp631
tp632
Rp633
sg8
I00
sg9
g629
ssS'hypersusceptibility'
p634
(dp635
g3
g4
((lp636
tp637
Rp638
sg8
I00
sg9
g634
ssS'stereophotographies'
p639
(dp640
g3
g4
((lp641
tp642
Rp643
sg8
I00
sg9
g639
ssS'reindustrialization'
p644
(dp645
g3
g4
((lp646
S'deindustrialization'
p647
atp648
Rp649
sg8
I00
sg9
g644
ssS'hypersensitizations'
p650
(dp651
g3
g4
((lp652
tp653
Rp654
sg8
I00
sg9
g650
ssS'indestructibilities'
p655
(dp656
g3
g4
((lp657
tp658
Rp659
sg8
I00
sg9
g655
ssS'deoxyribonucleotide'
p660
(dp661
g3
g4
((lp662
tp663
Rp664
sg8
I00
sg9
g660
ssS'dehydrochlorinating'
p665
(dp666
g3
g4
((lp667
tp668
Rp669
sg8
I00
sg9
g665
ssS'characterologically'
p670
(dp671
g3
g4
((lp672
tp673
Rp674
sg8
I00
sg9
g670
ssS'phenylpropanolamine'
p675
(dp676
g3
g4
((lp677
tp678
Rp679
sg8
I00
sg9
g675
ssS'psychotomimetically'
p680
(dp681
g3
g4
((lp682
tp683
Rp684
sg8
I00
sg9
g680
ssS'postmillenarianisms'
p685
(dp686
g3
g4
((lp687
tp688
Rp689
sg8
I00
sg9
g685
ssS'demonstrativenesses'
p690
(dp691
g3
g4
((lp692
tp693
Rp694
sg8
I00
sg9
g690
ssS'unconventionalities'
p695
(dp696
g3
g4
((lp697
tp698
Rp699
sg8
I00
sg9
g695
ssS'reticuloendothelial'
p700
(dp701
g3
g4
((lp702
tp703
Rp704
sg8
I00
sg9
g700
ssS'photodisintegrating'
p705
(dp706
g3
g4
((lp707
tp708
Rp709
sg8
I00
sg9
g705
ssS'interavailabilities'
p710
(dp711
g3
g4
((lp712
tp713
Rp714
sg8
I00
sg9
g710
ssS'miscellaneousnesses'
p715
(dp716
g3
g4
((lp717
tp718
Rp719
sg8
I00
sg9
g715
ssS'disrespectabilities'
p720
(dp721
g3
g4
((lp722
tp723
Rp724
sg8
I00
sg9
g720
ssS'phonocardiographies'
p725
(dp726
g3
g4
((lp727
tp728
Rp729
sg8
I00
sg9
g725
ssS'irresponsiblenesses'
p730
(dp731
g3
g4
((lp732
tp733
Rp734
sg8
I00
sg9
g730
ssg647
(dp735
g3
g4
((lp736
g644
atp737
Rp738
sg8
I00
sg9
g647
ssS'dimethylnitrosamine'
p739
(dp740
g3
g4
((lp741
tp742
Rp743
sg8
I00
sg9
g739
ssS'splendiferousnesses'
p744
(dp745
g3
g4
((lp746
tp747
Rp748
sg8
I00
sg9
g744
ssS'homotransplantation'
p749
(dp750
g3
g4
((lp751
tp752
Rp753
sg8
I00
sg9
g749
ssS'conceptualistically'
p754
(dp755
g3
g4
((lp756
tp757
Rp758
sg8
I00
sg9
g754
ssS'electroluminescence'
p759
(dp760
g3
g4
((lp761
tp762
Rp763
sg8
I00
sg9
g759
ssS'anticholinesterases'
p764
(dp765
g3
g4
((lp766
tp767
Rp768
sg8
I00
sg9
g764
ssS'phosphofructokinase'
p769
(dp770
g3
g4
((lp771
tp772
Rp773
sg8
I00
sg9
g769
ssS'chlorofluoromethane'
p774
(dp775
g3
g4
((lp776
tp777
Rp778
sg8
I00
sg9
g774
ssS'irreconcilabilities'
p779
(dp780
g3
g4
((lp781
tp782
Rp783
sg8
I00
sg9
g779
ssS'instantaneousnesses'
p784
(dp785
g3
g4
((lp786
tp787
Rp788
sg8
I00
sg9
g784
ssS'chromatographically'
p789
(dp790
g3
g4
((lp791
tp792
Rp793
sg8
I00
sg9
g789
ssS'prefigurativenesses'
p794
(dp795
g3
g4
((lp796
tp797
Rp798
sg8
I00
sg9
g794
ssS'glottochronological'
p799
(dp800
g3
g4
((lp801
tp802
Rp803
sg8
I00
sg9
g799
ssS'hyperirritabilities'
p804
(dp805
g3
g4
((lp806
tp807
Rp808
sg8
I00
sg9
g804
ssS'disrespectfulnesses'
p809
(dp810
g3
g4
((lp811
tp812
Rp813
sg8
I00
sg9
g809
ssS'underrepresentation'
p814
(dp815
g3
g4
((lp816
tp817
Rp818
sg8
I00
sg9
g814
ssS'neuropharmacologies'
p819
(dp820
g3
g4
((lp821
tp822
Rp823
sg8
I00
sg9
g819
ssS'counterconspiracies'
p824
(dp825
g3
g4
((lp826
tp827
Rp828
sg8
I00
sg9
g824
ssS'photointerpretation'
p829
(dp830
g3
g4
((lp831
tp832
Rp833
sg8
I00
sg9
g829
ssS'paleoanthropologist'
p834
(dp835
g3
g4
((lp836
tp837
Rp838
sg8
I00
sg9
g834
ssS'contemporaneousness'
p839
(dp840
g3
g4
((lp841
tp842
Rp843
sg8
I00
sg9
g839
ssS'interorganizational'
p844
(dp845
g3
g4
((lp846
tp847
Rp848
sg8
I00
sg9
g844
ssS'pharmacodynamically'
p849
(dp850
g3
g4
((lp851
tp852
Rp853
sg8
I00
sg9
g849
ssS'multitudinousnesses'
p854
(dp855
g3
g4
((lp856
tp857
Rp858
sg8
I00
sg9
g854
ssS'antidesertification'
p859
(dp860
g3
g4
((lp861
tp862
Rp863
sg8
I00
sg9
g859
ssS'evapotranspirations'
p864
(dp865
g3
g4
((lp866
tp867
Rp868
sg8
I00
sg9
g864
ssS'phosphatidylcholine'
p869
(dp870
g3
g4
((lp871
tp872
Rp873
sg8
I00
sg9
g869
ssS'objectionablenesses'
p874
(dp875
g3
g4
((lp876
tp877
Rp878
sg8
I00
sg9
g874
ssS'hyperemotionalities'
p879
(dp880
g3
g4
((lp881
tp882
Rp883
sg8
I00
sg9
g879
ssS'unfashionablenesses'
p884
(dp885
g3
g4
((lp886
tp887
Rp888
sg8
I00
sg9
g884
ssS'psychophysiological'
p889
(dp890
g3
g4
((lp891
tp892
Rp893
sg8
I00
sg9
g889
ssS'electromagnetically'
p894
(dp895
g3
g4
((lp896
tp897
Rp898
sg8
I00
sg9
g894
ssS'ultracentrifugation'
p899
(dp900
g3
g4
((lp901
tp902
Rp903
sg8
I00
sg9
g899
ssS'mischaracterization'
p904
(dp905
g3
g4
((lp906
tp907
Rp908
sg8
I00
sg9
g904
ssS'noninterventionists'
p909
(dp910
g3
g4
((lp911
tp912
Rp913
sg8
I00
sg9
g909
ssS'antivivisectionists'
p914
(dp915
g3
g4
((lp916
tp917
Rp918
sg8
I00
sg9
g914
ssS'overcommercializing'
p919
(dp920
g3
g4
((lp921
tp922
Rp923
sg8
I00
sg9
g919
ssS'electrometallurgies'
p924
(dp925
g3
g4
((lp926
tp927
Rp928
sg8
I00
sg9
g924
ssS'superconductivities'
p929
(dp930
g3
g4
((lp931
tp932
Rp933
sg8
I00
sg9
g929
ssS'polyribonucleotides'
p934
(dp935
g3
g4
((lp936
tp937
Rp938
sg8
I00
sg9
g934
ssS'lipopolysaccharides'
p939
(dp940
g3
g4
((lp941
tp942
Rp943
sg8
I00
sg9
g939
ssS'histopathologically'
p944
(dp945
g3
g4
((lp946
tp947
Rp948
sg8
I00
sg9
g944
ssS'unexceptionableness'
p949
(dp950
g3
g4
((lp951
tp952
Rp953
sg8
I00
sg9
g949
ssS'departmentalization'
p954
(dp955
g3
g4
((lp956
tp957
Rp958
sg8
I00
sg9
g954
ssS'contemplativenesses'
p959
(dp960
g3
g4
((lp961
tp962
Rp963
sg8
I00
sg9
g959
ssS'electrophoretograms'
p964
(dp965
g3
g4
((lp966
tp967
Rp968
sg8
I00
sg9
g964
ssS'chromolithographing'
p969
(dp970
g3
g4
((lp971
tp972
Rp973
sg8
I00
sg9
g969
ssS'oversimplifications'
p974
(dp975
g3
g4
((lp976
tp977
Rp978
sg8
I00
sg9
g974
ssg146
(dp979
g3
g4
((lp980
g143
atp981
Rp982
sg8
I00
sg9
g146
ssS'electroretinography'
p983
(dp984
g3
g4
((lp985
S'electroretinographs'
p986
atp987
Rp988
sg8
I00
sg9
g983
ssS'transubstantiations'
p989
(dp990
g3
g4
((lp991
tp992
Rp993
sg8
I00
sg9
g989
ssS'inefficaciousnesses'
p994
(dp995
g3
g4
((lp996
tp997
Rp998
sg8
I00
sg9
g994
ssg108
(dp999
g3
g4
((lp1000
g105
atp1001
Rp1002
sg8
I00
sg9
g108
ssS'indefatigablenesses'
p1003
(dp1004
g3
g4
((lp1005
tp1006
Rp1007
sg8
I00
sg9
g1003
ssS'neurofibromatosises'
p1008
(dp1009
g3
g4
((lp1010
tp1011
Rp1012
sg8
I00
sg9
g1008
ssS'unconstitutionality'
p1013
(dp1014
g3
g4
((lp1015
tp1016
Rp1017
sg8
I00
sg9
g1013
ssg986
(dp1018
g3
g4
((lp1019
g983
atp1020
Rp1021
sg8
I00
sg9
g986
ssS'territorializations'
p1022
(dp1023
g3
g4
((lp1024
tp1025
Rp1026
sg8
I00
sg9
g1022
ssS'immunoprecipitating'
p1027
(dp1028
g3
g4
((lp1029
tp1030
Rp1031
sg8
I00
sg9
g1027
ssS'ethnomethodologists'
p1032
(dp1033
g3
g4
((lp1034
tp1035
Rp1036
sg8
I00
sg9
g1032
ssS'counterconditioning'
p1037
(dp1038
g3
g4
((lp1039
tp1040
Rp1041
sg8
I00
sg9
g1037
ssS'disadvantagednesses'
p1042
(dp1043
g3
g4
((lp1044
tp1045
Rp1046
sg8
I00
sg9
g1042
ssS'counterreformations'
p1047
(dp1048
g3
g4
((lp1049
tp1050
Rp1051
sg8
I00
sg9
g1047
ssS'nonenforceabilities'
p1052
(dp1053
g3
g4
((lp1054
tp1055
Rp1056
sg8
I00
sg9
g1052
ssS'reconceptualization'
p1057
(dp1058
g3
g4
((lp1059
tp1060
Rp1061
sg8
I00
sg9
g1057
ssS'thermoluminescences'
p1062
(dp1063
g3
g4
((lp1064
tp1065
Rp1066
sg8
I00
sg9
g1062
ssS'immunofluorescences'
p1067
(dp1068
g3
g4
((lp1069
tp1070
Rp1071
sg8
I00
sg9
g1067
ssS'intersubjectivities'
p1072
(dp1073
g3
g4
((lp1074
tp1075
Rp1076
sg8
I00
sg9
g1072
ssS'consequentialnesses'
p1077
(dp1078
g3
g4
((lp1079
tp1080
Rp1081
sg8
I00
sg9
g1077
ssS'unidimensionalities'
p1082
(dp1083
g3
g4
((lp1084
tp1085
Rp1086
sg8
I00
sg9
g1082
ssS'cytodifferentiation'
p1087
(dp1088
g3
g4
((lp1089
tp1090
Rp1091
sg8
I00
sg9
g1087
ssS'phytohemagglutinins'
p1092
(dp1093
g3
g4
((lp1094
tp1095
Rp1096
sg8
I00
sg9
g1092
ssS'parathyroidectomies'
p1097
(dp1098
g3
g4
((lp1099
tp1100
Rp1101
sg8
I00
sg9
g1097
ssS'disinterestednesses'
p1102
(dp1103
g3
g4
((lp1104
tp1105
Rp1106
sg8
I00
sg9
g1102
ssS'counterintelligence'
p1107
(dp1108
g3
g4
((lp1109
tp1110
Rp1111
sg8
I00
sg9
g1107
ssS'heterogeneousnesses'
p1112
(dp1113
g3
g4
((lp1114
tp1115
Rp1116
sg8
I00
sg9
g1112
ssS'agammaglobulinemias'
p1117
(dp1118
g3
g4
((lp1119
tp1120
Rp1121
sg8
I00
sg9
g1117
ssS'overcapitalizations'
p1122
(dp1123
g3
g4
((lp1124
tp1125
Rp1126
sg8
I00
sg9
g1122
ssS'overclassifications'
p1127
(dp1128
g3
g4
((lp1129
tp1130
Rp1131
sg8
I00
sg9
g1127
ssS'unconscionabilities'
p1132
(dp1133
g3
g4
((lp1134
tp1135
Rp1136
sg8
I00
sg9
g1132
ssS'dispassionatenesses'
p1137
(dp1138
g3
g4
((lp1139
tp1140
Rp1141
sg8
I00
sg9
g1137
ssS'gastroenterological'
p1142
(dp1143
g3
g4
((lp1144
tp1145
Rp1146
sg8
I00
sg9
g1142
ssS'understandabilities'
p1147
(dp1148
g3
g4
((lp1149
tp1150
Rp1151
sg8
I00
sg9
g1147
ssS'immunohematological'
p1152
(dp1153
g3
g4
((lp1154
tp1155
Rp1156
sg8
I00
sg9
g1152
ssS'inconsideratenesses'
p1157
(dp1158
g3
g4
((lp1159
tp1160
Rp1161
sg8
I00
sg9
g1157
ssS'thermoelectricities'
p1162
(dp1163
g3
g4
((lp1164
tp1165
Rp1166
sg8
I00
sg9
g1162
ssS'complementarinesses'
p1167
(dp1168
g3
g4
((lp1169
tp1170
Rp1171
sg8
I00
sg9
g1167
ssS'micrometeorological'
p1172
(dp1173
g3
g4
((lp1174
tp1175
Rp1176
sg8
I00
sg9
g1172
ssS'counterinflationary'
p1177
(dp1178
g3
g4
((lp1179
tp1180
Rp1181
sg8
I00
sg9
g1177
ssS'phenomenalistically'
p1182
(dp1183
g3
g4
((lp1184
tp1185
Rp1186
sg8
I00
sg9
g1182
ssS'incommunicabilities'
p1187
(dp1188
g3
g4
((lp1189
tp1190
Rp1191
sg8
I00
sg9
g1187
ssS'hydrochlorothiazide'
p1192
(dp1193
g3
g4
((lp1194
tp1195
Rp1196
sg8
I00
sg9
g1192
ssS'countertransference'
p1197
(dp1198
g3
g4
((lp1199
tp1200
Rp1201
sg8
I00
sg9
g1197
ssg591
(dp1202
g3
g4
((lp1203
g588
atp1204
Rp1205
sg8
I00
sg9
g591
ssg531
(dp1206
g3
g4
((lp1207
g528
atp1208
Rp1209
sg8
I00
sg9
g531
ssS'disproportionations'
p1210
(dp1211
g3
g4
((lp1212
tp1213
Rp1214
sg8
I00
sg9
g1210
ssS'symptomatologically'
p1215
(dp1216
g3
g4
((lp1217
tp1218
Rp1219
sg8
I00
sg9
g1215
ssS'counterretaliations'
p1220
(dp1221
g3
g4
((lp1222
tp1223
Rp1224
sg8
I00
sg9
g1220
ssS'paradichlorobenzene'
p1225
(dp1226
g3
g4
((lp1227
tp1228
Rp1229
sg8
I00
sg9
g1225
ssS'neuropharmacologist'
p1230
(dp1231
g3
g4
((lp1232
tp1233
Rp1234
sg8
I00
sg9
g1230
ssS'individualistically'
p1235
(dp1236
g3
g4
((lp1237
tp1238
Rp1239
sg8
I00
sg9
g1235
ssS'expressionistically'
p1240
(dp1241
g3
g4
((lp1242
tp1243
Rp1244
sg8
I00
sg9
g1240
ssS'unpretentiousnesses'
p1245
(dp1246
g3
g4
((lp1247
tp1248
Rp1249
sg8
I00
sg9
g1245
ssS'preternaturalnesses'
p1250
(dp1251
g3
g4
((lp1252
tp1253
Rp1254
sg8
I00
sg9
g1250
ssS'phytogeographically'
p1255
(dp1256
g3
g4
((lp1257
tp1258
Rp1259
sg8
I00
sg9
g1255
ssS'introspectivenesses'
p1260
(dp1261
g3
g4
((lp1262
tp1263
Rp1264
sg8
I00
sg9
g1260
ssS'overinterpretations'
p1265
(dp1266
g3
g4
((lp1267
tp1268
Rp1269
sg8
I00
sg9
g1265
ssS'phenylthiocarbamide'
p1270
(dp1271
g3
g4
((lp1272
tp1273
Rp1274
sg8
I00
sg9
g1270
ssS'inexhaustiblenesses'
p1275
(dp1276
g3
g4
((lp1277
tp1278
Rp1279
sg8
I00
sg9
g1275
ssS'irreplaceablenesses'
p1280
(dp1281
g3
g4
((lp1282
tp1283
Rp1284
sg8
I00
sg9
g1280
ssS'contradistinguished'
p1285
(dp1286
g3
g4
((lp1287
S'contradistinguishes'
p1288
atp1289
Rp1290
sg8
I00
sg9
g1285
ssS'electromechanically'
p1291
(dp1292
g3
g4
((lp1293
tp1294
Rp1295
sg8
I00
sg9
g1291
ssS'disadvantageousness'
p1296
(dp1297
g3
g4
((lp1298
tp1299
Rp1300
sg8
I00
sg9
g1296
ssS'immunoprecipitation'
p1301
(dp1302
g3
g4
((lp1303
tp1304
Rp1305
sg8
I00
sg9
g1301
ssS'overdifferentiation'
p1306
(dp1307
g3
g4
((lp1308
tp1309
Rp1310
sg8
I00
sg9
g1306
ssS'methylprednisolones'
p1311
(dp1312
g3
g4
((lp1313
tp1314
Rp1315
sg8
I00
sg9
g1311
ssS'ovoviviparousnesses'
p1316
(dp1317
g3
g4
((lp1318
tp1319
Rp1320
sg8
I00
sg9
g1316
ssS'interdepartmentally'
p1321
(dp1322
g3
g4
((lp1323
tp1324
Rp1325
sg8
I00
sg9
g1321
ssg1288
(dp1326
g3
g4
((lp1327
g1285
atp1328
Rp1329
sg8
I00
sg9
g1288
ssS'overgeneralizations'
p1330
(dp1331
g3
g4
((lp1332
tp1333
Rp1334
sg8
I00
sg9
g1330
ssS'dendrochronologists'
p1335
(dp1336
g3
g4
((lp1337
tp1338
Rp1339
sg8
I00
sg9
g1335
ssS'structurelessnesses'
p1340
(dp1341
g3
g4
((lp1342
tp1343
Rp1344
sg8
I00
sg9
g1340
ssS'interdenominational'
p1345
(dp1346
g3
g4
((lp1347
tp1348
Rp1349
sg8
I00
sg9
g1345
ssS'phosphomonoesterase'
p1350
(dp1351
g3
g4
((lp1352
tp1353
Rp1354
sg8
I00
sg9
g1350
ssS'clinicopathological'
p1355
(dp1356
g3
g4
((lp1357
tp1358
Rp1359
sg8
I00
sg9
g1355
ssS'entrepreneurialisms'
p1360
(dp1361
g3
g4
((lp1362
tp1363
Rp1364
sg8
I00
sg9
g1360
ssS'encephalomyelitides'
p1365
(dp1366
g3
g4
((lp1367
tp1368
Rp1369
sg8
I00
sg9
g1365
ssS'cytopathogenicities'
p1370
(dp1371
g3
g4
((lp1372
tp1373
Rp1374
sg8
I00
sg9
g1370
ssS'phosphoenolpyruvate'
p1375
(dp1376
g3
g4
((lp1377
tp1378
Rp1379
sg8
I00
sg9
g1375
ssS'overspecializations'
p1380
(dp1381
g3
g4
((lp1382
tp1383
Rp1384
sg8
I00
sg9
g1380
ssS'semiconsciousnesses'
p1385
(dp1386
g3
g4
((lp1387
tp1388
Rp1389
sg8
I00
sg9
g1385
ssS'photoconductivities'
p1390
(dp1391
g3
g4
((lp1392
tp1393
Rp1394
sg8
I00
sg9
g1390
ssS'extraordinarinesses'
p1395
(dp1396
g3
g4
((lp1397
tp1398
Rp1399
sg8
I00
sg9
g1395
ssS'immunohematologists'
p1400
(dp1401
g3
g4
((lp1402
tp1403
Rp1404
sg8
I00
sg9
g1400
ssS'tenderheartednesses'
p1405
(dp1406
g3
g4
((lp1407
tp1408
Rp1409
sg8
I00
sg9
g1405
ssS'electronegativities'
p1410
(dp1411
g3
g4
((lp1412
tp1413
Rp1414
sg8
I00
sg9
g1410
ssS'conscientiousnesses'
p1415
(dp1416
g3
g4
((lp1417
tp1418
Rp1419
sg8
I00
sg9
g1415
ssS'transformationalist'
p1420
(dp1421
g3
g4
((lp1422
tp1423
Rp1424
sg8
I00
sg9
g1420
ssS'interjurisdictional'
p1425
(dp1426
g3
g4
((lp1427
tp1428
Rp1429
sg8
I00
sg9
g1425
ssS'circumstantialities'
p1430
(dp1431
g3
g4
((lp1432
tp1433
Rp1434
sg8
I00
sg9
g1430
ssS'communicativenesses'
p1435
(dp1436
g3
g4
((lp1437
tp1438
Rp1439
sg8
I00
sg9
g1435
ssS'chlorofluorocarbons'
p1440
(dp1441
g3
g4
((lp1442
tp1443
Rp1444
sg8
I00
sg9
g1440
ssS'disenfranchisements'
p1445
(dp1446
g3
g4
((lp1447
tp1448
Rp1449
sg8
I00
sg9
g1445
ssS'hyperexcitabilities'
p1450
(dp1451
g3
g4
((lp1452
tp1453
Rp1454
sg8
I00
sg9
g1450
ssS'nonrelativistically'
p1455
(dp1456
g3
g4
((lp1457
tp1458
Rp1459
sg8
I00
sg9
g1455
ssS'hypoparathyroidisms'
p1460
(dp1461
g3
g4
((lp1462
tp1463
Rp1464
sg8
I00
sg9
g1460
ssS'overindustrializing'
p1465
(dp1466
g3
g4
((lp1467
tp1468
Rp1469
sg8
I00
sg9
g1465
ssS'electrodesiccations'
p1470
(dp1471
g3
g4
((lp1472
tp1473
Rp1474
sg8
I00
sg9
g1470
ssS'dimethyltryptamines'
p1475
(dp1476
g3
g4
((lp1477
tp1478
Rp1479
sg8
I00
sg9
g1475
ssS'superadministrators'
p1480
(dp1481
g3
g4
((lp1482
tp1483
Rp1484
sg8
I00
sg9
g1480
ssS'overcentralizations'
p1485
(dp1486
g3
g4
((lp1487
tp1488
Rp1489
sg8
I00
sg9
g1485
ssS'photofluorographies'
p1490
(dp1491
g3
g4
((lp1492
tp1493
Rp1494
sg8
I00
sg9
g1490
ssS'superspecialization'
p1495
(dp1496
g3
g4
((lp1497
tp1498
Rp1499
sg8
I00
sg9
g1495
ssS'counterprogrammings'
p1500
(dp1501
g3
g4
((lp1502
tp1503
Rp1504
sg8
I00
sg9
g1500
ssS'immunocytochemistry'
p1505
(dp1506
g3
g4
((lp1507
tp1508
Rp1509
sg8
I00
sg9
g1505
ssS'transmogrifications'
p1510
(dp1511
g3
g4
((lp1512
tp1513
Rp1514
sg8
I00
sg9
g1510
ssS'electrocorticograms'
p1515
(dp1516
g3
g4
((lp1517
tp1518
Rp1519
sg8
I00
sg9
g1515
ssS'immunohistochemical'
p1520
(dp1521
g3
g4
((lp1522
tp1523
Rp1524
sg8
I00
sg9
g1520
ssS'hemidemisemiquavers'
p1525
(dp1526
g3
g4
((lp1527
tp1528
Rp1529
sg8
I00
sg9
g1525
ssS'incomprehensibility'
p1530
(dp1531
g3
g4
((lp1532
tp1533
Rp1534
sg8
I00
sg9
g1530
ssS'bourgeoisifications'
p1535
(dp1536
g3
g4
((lp1537
tp1538
Rp1539
sg8
I00
sg9
g1535
ssS'gastroenterologists'
p1540
(dp1541
g3
g4
((lp1542
tp1543
Rp1544
sg8
I00
sg9
g1540
ssS'polyesterifications'
p1545
(dp1546
g3
g4
((lp1547
tp1548
Rp1549
sg8
I00
sg9
g1545
ssS'magnetohydrodynamic'
p1550
(dp1551
g3
g4
((lp1552
tp1553
Rp1554
sg8
I00
sg9
g1550
ssS'historiographically'
p1555
(dp1556
g3
g4
((lp1557
tp1558
Rp1559
sg8
I00
sg9
g1555
ssS'uncompetitivenesses'
p1560
(dp1561
g3
g4
((lp1562
tp1563
Rp1564
sg8
I00
sg9
g1560
ssS'chromolithographies'
p1565
(dp1566
g3
g4
((lp1567
tp1568
Rp1569
sg8
I00
sg9
g1565
ssS'methylcholanthrenes'
p1570
(dp1571
g3
g4
((lp1572
tp1573
Rp1574
sg8
I00
sg9
g1570
ssS'micrometeorologists'
p1575
(dp1576
g3
g4
((lp1577
tp1578
Rp1579
sg8
I00
sg9
g1575
ssS'perspicaciousnesses'
p1580
(dp1581
g3
g4
((lp1582
tp1583
Rp1584
sg8
I00
sg9
g1580
ssS'spectrophotometries'
p1585
(dp1586
g3
g4
((lp1587
tp1588
Rp1589
sg8
I00
sg9
g1585
ssS'stereospecificities'
p1590
(dp1591
g3
g4
((lp1592
tp1593
Rp1594
sg8
I00
sg9
g1590
ssS'diethylcarbamazines'
p1595
(dp1596
g3
g4
((lp1597
tp1598
Rp1599
sg8
I00
sg9
g1595
ssS'intercommunications'
p1600
(dp1601
g3
g4
((lp1602
tp1603
Rp1604
sg8
I00
sg9
g1600
ssS'compassionatenesses'
p1605
(dp1606
g3
g4
((lp1607
tp1608
Rp1609
sg8
I00
sg9
g1605
ssS'gentlemanlikenesses'
p1610
(dp1611
g3
g4
((lp1612
tp1613
Rp1614
sg8
I00
sg9
g1610
ssS'straightforwardness'
p1615
(dp1616
g3
g4
((lp1617
tp1618
Rp1619
sg8
I00
sg9
g1615
ssS'microdensitometries'
p1620
(dp1621
g3
g4
((lp1622
tp1623
Rp1624
sg8
I00
sg9
g1620
ssS'transplantabilities'
p1625
(dp1626
g3
g4
((lp1627
tp1628
Rp1629
sg8
I00
sg9
g1625
ssS'extraterritoriality'
p1630
(dp1631
g3
g4
((lp1632
tp1633
Rp1634
sg8
I00
sg9
g1630
ssS'contradictorinesses'
p1635
(dp1636
g3
g4
((lp1637
tp1638
Rp1639
sg8
I00
sg9
g1635
ssS'indispensablenesses'
p1640
(dp1641
g3
g4
((lp1642
tp1643
Rp1644
sg8
I00
sg9
g1640
ssS'indescribablenesses'
p1645
(dp1646
g3
g4
((lp1647
tp1648
Rp1649
sg8
I00
sg9
g1645
ss.