(dp0
S'inappropriatenesses'
p1
(dp2
S'neighbors'
p3
c__builtin__
set
p4
((lp5
tp6
Rp7
sS'visited'
p8
I00
sS'word'
p9
g1
ssS'miscellaneousnesses'
p10
(dp11
g3
g4
((lp12
tp13
Rp14
sg8
I00
sg9
g10
ssS'counterdemonstrator'
p15
(dp16
g3
g4
((lp17
tp18
Rp19
sg8
I00
sg9
g15
ssS'hyperaggressiveness'
p20
(dp21
g3
g4
((lp22
tp23
Rp24
sg8
I00
sg9
g20
ssS'extraconstitutional'
p25
(dp26
g3
g4
((lp27
tp28
Rp29
sg8
I00
sg9
g25
ssS'inconsideratenesses'
p30
(dp31
g3
g4
((lp32
tp33
Rp34
sg8
I00
sg9
g30
ssS'interdenominational'
p35
(dp36
g3
g4
((lp37
tp38
Rp39
sg8
I00
sg9
g35
ssS'counterpropagations'
p40
(dp41
g3
g4
((lp42
tp43
Rp44
sg8
I00
sg9
g40
ssS'counterinflationary'
p45
(dp46
g3
g4
((lp47
tp48
Rp49
sg8
I00
sg9
g45
ssS'comprehensivenesses'
p50
(dp51
g3
g4
((lp52
tp53
Rp54
sg8
I00
sg9
g50
ssS'disinterestednesses'
p55
(dp56
g3
g4
((lp57
tp58
Rp59
sg8
I00
sg9
g55
ssS'anticonservationist'
p60
(dp61
g3
g4
((lp62
tp63
Rp64
sg8
I00
sg9
g60
ssS'irreconcilabilities'
p65
(dp66
g3
g4
((lp67
tp68
Rp69
sg8
I00
sg9
g65
ssS'multidenominational'
p70
(dp71
g3
g4
((lp72
tp73
Rp74
sg8
I00
sg9
g70
ssS'electrocardiographs'
p75
(dp76
g3
g4
((lp77
tp78
Rp79
sg8
I00
sg9
g75
ssS'counterretaliations'
p80
(dp81
g3
g4
((lp82
tp83
Rp84
sg8
I00
sg9
g80
ss.