(dp0
S'aa'
p1
(dp2
S'neighbors'
p3
c__builtin__
set
p4
((lp5
S'ae'
p6
aS'ad'
p7
aS'ai'
p8
aS'ah'
p9
aS'am'
p10
aS'an'
p11
aS'as'
p12
aS'ar'
p13
aS'at'
p14
aS'aw'
p15
aS'ay'
p16
aS'la'
p17
aS'na'
p18
aS'pa'
p19
aS'ta'
p20
aS'ba'
p21
aS'ya'
p22
aS'da'
p23
aS'fa'
p24
aS'ha'
p25
aS'ka'
p26
aS'ma'
p27
atp28
Rp29
sS'visited'
p30
I00
sS'word'
p31
g1
ssS'el'
p32
(dp33
g3
g4
((lp34
S'em'
p35
aS'en'
p36
aS'eh'
p37
aS'ef'
p38
aS'ex'
p39
aS'et'
p40
aS'es'
p41
aS'er'
p42
atp43
Rp44
sg30
I00
sg31
g32
ssg36
(dp45
g3
g4
((lp46
g35
ag32
ag37
aS'on'
p47
ag38
ag11
aS'un'
p48
ag39
aS'in'
p49
ag40
ag41
ag42
atp50
Rp51
sg30
I00
sg31
g36
ssg6
(dp52
g3
g4
((lp53
g1
aS'be'
p54
aS'we'
p55
ag7
aS're'
p56
ag8
ag9
aS'oe'
p57
aS'de'
p58
ag10
aS'ye'
p59
ag11
aS'me'
p60
ag12
ag13
ag14
ag15
aS'pe'
p61
ag16
aS'he'
p62
atp63
Rp64
sg30
I00
sg31
g6
ssg7
(dp65
g3
g4
((lp66
g1
ag6
ag8
ag9
aS'od'
p67
ag10
ag11
ag12
ag13
ag14
ag15
ag16
aS'id'
p68
atp69
Rp70
sg30
I00
sg31
g7
ssS'do'
p71
(dp72
g3
g4
((lp73
S'bo'
p74
aS'no'
p75
aS'wo'
p76
aS'lo'
p77
ag58
ag23
aS'to'
p78
aS'jo'
p79
aS'so'
p80
aS'ho'
p81
aS'go'
p82
atp83
Rp84
sg30
I00
sg31
g71
ssg8
(dp85
g3
g4
((lp86
g1
aS'pi'
p87
ag6
ag7
ag9
ag10
aS'bi'
p88
ag11
aS'xi'
p89
aS'si'
p90
ag12
ag13
ag14
ag15
aS'ti'
p91
ag16
aS'mi'
p92
aS'hi'
p93
aS'li'
p94
atp95
Rp96
sg30
I00
sg31
g8
ssg9
(dp97
g3
g4
((lp98
g1
ag6
ag7
aS'oh'
p99
ag8
ag10
aS'sh'
p100
ag11
ag12
ag13
ag14
ag15
ag16
ag37
atp101
Rp102
sg30
I00
sg31
g9
ssS'is'
p103
(dp104
g3
g4
((lp105
S'it'
p106
aS'us'
p107
ag12
ag49
aS'os'
p108
ag68
ag41
aS'if'
p109
atp110
Rp111
sg30
I00
sg31
g103
ssg38
(dp112
g3
g4
((lp113
g35
ag32
ag36
ag37
aS'of'
p114
ag39
ag40
ag109
ag41
ag42
atp115
Rp116
sg30
I00
sg31
g38
ssg10
(dp117
g3
g4
((lp118
g1
ag35
aS'om'
p119
ag6
ag7
ag8
ag9
ag11
ag12
ag13
ag14
ag15
ag16
atp120
Rp121
sg30
I00
sg31
g10
ssg106
(dp122
g3
g4
((lp123
S'ut'
p124
ag103
ag14
ag49
ag40
ag68
ag109
atp125
Rp126
sg30
I00
sg31
g106
ssg11
(dp127
g3
g4
((lp128
g1
ag47
ag36
ag6
ag7
ag8
ag9
ag10
ag12
ag13
ag14
ag15
ag49
ag16
ag48
atp129
Rp130
sg30
I00
sg31
g11
ssg82
(dp131
g3
g4
((lp132
g71
ag75
ag76
ag77
ag74
ag78
ag79
ag80
ag81
atp133
Rp134
sg30
I00
sg31
g82
ssg12
(dp135
g3
g4
((lp136
g1
ag6
ag7
ag8
ag9
ag103
ag10
ag107
ag11
ag13
ag14
ag15
ag16
ag108
ag41
atp137
Rp138
sg30
I00
sg31
g12
ssg13
(dp139
g3
g4
((lp140
g1
ag6
ag7
ag8
ag9
ag10
ag11
ag12
ag14
ag15
ag16
aS'or'
p141
ag42
atp142
Rp143
sg30
I00
sg31
g13
ssg14
(dp144
g3
g4
((lp145
g1
ag6
ag7
ag8
ag9
ag10
ag106
ag11
ag12
ag13
ag15
ag124
ag16
ag40
atp146
Rp147
sg30
I00
sg31
g14
ssg15
(dp148
g3
g4
((lp149
g1
ag6
ag7
ag8
ag9
ag10
ag11
aS'ow'
p150
ag12
ag13
ag14
ag16
atp151
Rp152
sg30
I00
sg31
g15
ssg49
(dp153
g3
g4
((lp154
g47
ag36
ag103
ag106
ag11
ag48
ag68
ag109
atp155
Rp156
sg30
I00
sg31
g49
ssg16
(dp157
g3
g4
((lp158
g1
ag6
ag7
ag8
ag9
ag10
ag11
aS'oy'
p159
ag12
ag13
ag14
ag15
aS'my'
p160
aS'by'
p161
atp162
Rp163
sg30
I00
sg31
g16
ssg40
(dp164
g3
g4
((lp165
g35
ag32
ag36
ag37
ag124
ag38
ag106
ag39
ag14
ag41
ag42
atp166
Rp167
sg30
I00
sg31
g40
ssg76
(dp168
g3
g4
((lp169
g71
ag55
ag75
ag77
ag74
ag78
ag79
ag80
ag81
ag82
atp170
Rp171
sg30
I00
sg31
g76
ssg68
(dp172
g3
g4
((lp173
g7
ag103
ag67
ag106
ag49
ag109
atp174
Rp175
sg30
I00
sg31
g68
ssg41
(dp176
g3
g4
((lp177
g35
ag32
ag36
ag37
ag103
ag38
ag107
ag12
ag39
ag40
ag108
ag42
atp178
Rp179
sg30
I00
sg31
g41
ssg37
(dp180
g3
g4
((lp181
g35
ag32
ag36
ag99
ag9
ag38
ag100
ag39
ag40
ag41
ag42
atp182
Rp183
sg30
I00
sg31
g37
ssg91
(dp184
g3
g4
((lp185
g89
ag8
ag92
ag88
ag94
ag78
ag90
ag93
ag87
ag20
atp186
Rp187
sg30
I00
sg31
g91
ssg100
(dp188
g3
g4
((lp189
g9
ag90
ag80
ag37
ag99
atp190
Rp191
sg30
I00
sg31
g100
ssg17
(dp192
g3
g4
((lp193
g1
ag26
ag27
ag21
ag22
ag77
ag23
ag24
ag19
ag18
ag94
ag25
ag20
atp194
Rp195
sg30
I00
sg31
g17
ssg77
(dp196
g3
g4
((lp197
g71
ag75
ag17
ag76
ag74
ag94
ag78
ag79
ag80
ag81
ag82
atp198
Rp199
sg30
I00
sg31
g77
ssg78
(dp200
g3
g4
((lp201
g71
ag75
ag76
ag77
ag74
ag79
ag80
ag81
ag91
ag82
ag20
atp202
Rp203
sg30
I00
sg31
g78
ssg94
(dp204
g3
g4
((lp205
g89
ag17
ag8
ag77
ag92
ag88
ag90
ag93
ag91
ag87
atp206
Rp207
sg30
I00
sg31
g94
ssS'up'
p208
(dp209
g3
g4
((lp210
g124
ag48
ag107
aS'op'
p211
atp212
Rp213
sg30
I00
sg31
g208
ssg56
(dp214
g3
g4
((lp215
g60
ag54
ag55
ag6
ag57
ag58
ag59
ag61
ag62
atp216
Rp217
sg30
I00
sg31
g56
ssg108
(dp218
g3
g4
((lp219
g47
ag119
ag99
ag114
ag103
ag67
ag107
ag141
ag12
ag159
aS'ox'
p220
ag150
ag57
ag41
ag211
atp221
Rp222
sg30
I00
sg31
g108
ssg61
(dp223
g3
g4
((lp224
g60
ag54
ag55
ag6
ag57
ag58
ag59
ag56
ag19
ag87
ag62
atp225
Rp226
sg30
I00
sg31
g61
ssg89
(dp227
g3
g4
((lp228
g8
ag92
ag88
ag94
ag90
ag93
ag91
ag87
aS'xu'
p229
atp230
Rp231
sg30
I00
sg31
g89
ssg42
(dp232
g3
g4
((lp233
g35
ag32
ag36
ag37
ag38
ag13
ag39
ag40
ag141
ag41
atp234
Rp235
sg30
I00
sg31
g42
ssS'nu'
p236
(dp237
g3
g4
((lp238
S'mu'
p239
ag18
ag229
ag75
atp240
Rp241
sg30
I00
sg31
g236
ssg20
(dp242
g3
g4
((lp243
g1
ag26
ag27
ag21
ag17
ag22
ag18
ag23
ag24
ag19
ag91
ag25
ag78
atp244
Rp245
sg30
I00
sg31
g20
ssg54
(dp246
g3
g4
((lp247
g60
ag55
ag58
ag6
ag21
ag57
ag74
ag59
ag88
ag56
ag61
ag161
ag62
atp248
Rp249
sg30
I00
sg31
g54
ssg55
(dp250
g3
g4
((lp251
g60
ag54
ag6
ag76
ag57
ag58
ag59
ag56
ag61
ag62
atp252
Rp253
sg30
I00
sg31
g55
ssg74
(dp254
g3
g4
((lp255
g54
ag21
ag71
ag76
ag77
ag75
ag88
ag78
ag79
ag80
ag81
ag82
ag161
atp256
Rp257
sg30
I00
sg31
g74
ssg21
(dp258
g3
g4
((lp259
g1
ag54
ag26
ag27
ag17
ag22
ag18
ag74
ag88
ag23
ag24
ag19
ag25
ag161
ag20
atp260
Rp261
sg30
I00
sg31
g21
ssg124
(dp262
g3
g4
((lp263
g208
ag107
ag106
ag48
ag14
ag40
atp264
Rp265
sg30
I00
sg31
g124
ssg58
(dp266
g3
g4
((lp267
g60
ag54
ag55
ag6
ag71
ag57
ag59
ag23
ag56
ag61
ag62
atp268
Rp269
sg30
I00
sg31
g58
ssg59
(dp270
g3
g4
((lp271
g60
ag54
ag55
ag6
ag22
ag57
ag58
ag56
ag61
ag62
atp272
Rp273
sg30
I00
sg31
g59
ssg88
(dp274
g3
g4
((lp275
g54
ag89
ag21
ag8
ag74
ag92
ag94
ag90
ag93
ag91
ag87
ag161
atp276
Rp277
sg30
I00
sg31
g88
ssg19
(dp278
g3
g4
((lp279
g1
ag26
ag87
ag27
ag21
ag17
ag22
ag18
ag23
ag24
ag61
ag25
ag20
atp280
Rp281
sg30
I00
sg31
g19
ssg23
(dp282
g3
g4
((lp283
g1
ag71
ag26
ag27
ag21
ag17
ag22
ag18
ag58
ag24
ag19
ag25
ag20
atp284
Rp285
sg30
I00
sg31
g23
ssg24
(dp286
g3
g4
((lp287
g1
ag26
ag27
ag21
ag17
ag22
ag18
ag23
ag19
ag25
ag20
atp288
Rp289
sg30
I00
sg31
g24
ssg93
(dp290
g3
g4
((lp291
g87
ag8
ag92
ag88
ag94
ag90
ag89
ag81
ag91
ag25
ag62
atp292
Rp293
sg30
I00
sg31
g93
ssg109
(dp294
g3
g4
((lp295
g114
ag103
ag38
ag106
ag49
ag68
atp296
Rp297
sg30
I00
sg31
g109
ssg81
(dp298
g3
g4
((lp299
g71
ag79
ag75
ag76
ag77
ag74
ag78
ag93
ag80
ag82
ag25
ag62
atp300
Rp301
sg30
I00
sg31
g81
ssg229
(dp302
g3
g4
((lp303
g239
ag89
ag236
atp304
Rp305
sg30
I00
sg31
g229
ssg35
(dp306
g3
g4
((lp307
g32
ag119
ag36
ag37
ag38
ag10
ag39
ag40
ag41
ag42
atp308
Rp309
sg30
I00
sg31
g35
ssg25
(dp310
g3
g4
((lp311
g1
ag26
ag27
ag21
ag17
ag22
ag18
ag19
ag23
ag24
ag93
ag81
ag20
ag62
atp312
Rp313
sg30
I00
sg31
g25
ssg161
(dp314
g3
g4
((lp315
g54
ag21
ag74
ag88
ag159
ag16
ag160
atp316
Rp317
sg30
I00
sg31
g161
ssg62
(dp318
g3
g4
((lp319
g60
ag54
ag55
ag6
ag57
ag58
ag59
ag56
ag93
ag81
ag61
ag25
atp320
Rp321
sg30
I00
sg31
g62
ssg60
(dp322
g3
g4
((lp323
g54
ag55
ag6
ag59
ag57
ag58
ag92
ag239
ag56
ag61
ag27
ag160
ag62
atp324
Rp325
sg30
I00
sg31
g60
ssg47
(dp326
g3
g4
((lp327
g119
ag36
ag99
ag114
ag57
ag67
ag220
ag11
ag48
ag159
ag49
ag150
ag108
ag141
ag211
atp328
Rp329
sg30
I00
sg31
g47
ssg26
(dp330
g3
g4
((lp331
g1
ag27
ag21
ag17
ag22
ag18
ag23
ag24
ag19
ag25
ag20
atp332
Rp333
sg30
I00
sg31
g26
ssg87
(dp334
g3
g4
((lp335
g89
ag8
ag91
ag92
ag88
ag94
ag90
ag19
ag61
ag93
atp336
Rp337
sg30
I00
sg31
g87
ssg27
(dp338
g3
g4
((lp339
g1
ag60
ag26
ag21
ag17
ag22
ag18
ag92
ag23
ag239
ag24
ag19
ag25
ag160
ag20
atp340
Rp341
sg30
I00
sg31
g27
ssg67
(dp342
g3
g4
((lp343
g47
ag119
ag7
ag99
ag114
ag57
ag141
ag159
ag220
ag150
ag108
ag68
ag211
atp344
Rp345
sg30
I00
sg31
g67
ssg99
(dp346
g3
g4
((lp347
g47
ag119
ag37
ag9
ag57
ag67
ag220
ag100
ag159
ag114
ag150
ag108
ag141
ag211
atp348
Rp349
sg30
I00
sg31
g99
ssg114
(dp350
g3
g4
((lp351
g47
ag119
ag67
ag99
ag57
ag38
ag159
ag220
ag150
ag211
ag108
ag141
ag109
atp352
Rp353
sg30
I00
sg31
g114
ssg57
(dp354
g3
g4
((lp355
g60
ag54
ag119
ag67
ag6
ag99
ag114
ag58
ag59
ag55
ag220
ag56
ag61
ag159
ag211
ag150
ag47
ag108
ag141
ag62
atp356
Rp357
sg30
I00
sg31
g57
ssg75
(dp358
g3
g4
((lp359
g71
ag76
ag77
ag74
ag78
ag79
ag80
ag81
ag18
ag82
ag236
atp360
Rp361
sg30
I00
sg31
g75
ssg92
(dp362
g3
g4
((lp363
g60
ag89
ag27
ag8
ag88
ag94
ag239
ag90
ag93
ag91
ag87
ag160
atp364
Rp365
sg30
I00
sg31
g92
ssg48
(dp366
g3
g4
((lp367
g47
ag36
ag124
ag208
ag107
ag11
ag49
atp368
Rp369
sg30
I00
sg31
g48
ssg107
(dp370
g3
g4
((lp371
g124
ag103
ag208
ag12
ag48
ag108
ag41
atp372
Rp373
sg30
I00
sg31
g107
ssg220
(dp374
g3
g4
((lp375
g47
ag119
ag99
ag114
ag57
ag67
ag39
ag159
ag150
ag108
ag141
ag211
atp376
Rp377
sg30
I00
sg31
g220
ssg239
(dp378
g3
g4
((lp379
g60
ag27
ag92
ag160
ag236
ag229
atp380
Rp381
sg30
I00
sg31
g239
ssg90
(dp382
g3
g4
((lp383
g89
ag8
ag92
ag88
ag100
ag93
ag80
ag91
ag94
ag87
atp384
Rp385
sg30
I00
sg31
g90
ssg79
(dp386
g3
g4
((lp387
g71
ag75
ag76
ag77
ag74
ag78
ag80
ag81
ag82
atp388
Rp389
sg30
I00
sg31
g79
ssg80
(dp390
g3
g4
((lp391
g71
ag79
ag75
ag76
ag77
ag74
ag78
ag90
ag100
ag81
ag82
atp392
Rp393
sg30
I00
sg31
g80
ssg22
(dp394
g3
g4
((lp395
g1
ag26
ag27
ag21
ag17
ag18
ag59
ag23
ag24
ag19
ag25
ag20
atp396
Rp397
sg30
I00
sg31
g22
ssg159
(dp398
g3
g4
((lp399
g47
ag119
ag99
ag114
ag57
ag67
ag141
ag150
ag220
ag16
ag160
ag108
ag161
ag211
atp400
Rp401
sg30
I00
sg31
g159
ssg18
(dp402
g3
g4
((lp403
g1
ag26
ag27
ag21
ag17
ag22
ag75
ag23
ag24
ag19
ag25
ag236
ag20
atp404
Rp405
sg30
I00
sg31
g18
ssg150
(dp406
g3
g4
((lp407
g47
ag119
ag159
ag99
ag114
ag57
ag67
ag15
ag220
ag108
ag141
ag211
atp408
Rp409
sg30
I00
sg31
g150
ssg119
(dp410
g3
g4
((lp411
g35
ag47
ag99
ag114
ag57
ag67
ag10
ag159
ag220
ag150
ag108
ag141
ag211
atp412
Rp413
sg30
I00
sg31
g119
ssg211
(dp414
g3
g4
((lp415
g47
ag119
ag99
ag114
ag57
ag67
ag208
ag159
ag220
ag150
ag108
ag141
atp416
Rp417
sg30
I00
sg31
g211
ssg160
(dp418
g3
g4
((lp419
g60
ag27
ag92
ag239
ag159
ag16
ag161
atp420
Rp421
sg30
I00
sg31
g160
ssg141
(dp422
g3
g4
((lp423
g47
ag119
ag99
ag114
ag57
ag67
ag13
ag159
ag220
ag150
ag211
ag108
ag42
atp424
Rp425
sg30
I00
sg31
g141
ssg39
(dp426
g3
g4
((lp427
g35
ag32
ag36
ag37
ag38
ag220
ag40
ag41
ag42
atp428
Rp429
sg30
I00
sg31
g39
ss.