(dp0
S'go'
p1
(dp2
S'neighbors'
p3
c__builtin__
set
p4
((lp5
S'do'
p6
aS'yo'
p7
aS'no'
p8
aS'wo'
p9
aS'lo'
p10
aS'mo'
p11
aS'bo'
p12
aS'to'
p13
aS'jo'
p14
aS'so'
p15
aS'ho'
p16
atp17
Rp18
sS'visited'
p19
I00
sS'word'
p20
g1
ssS'la'
p21
(dp22
g3
g4
((lp23
S'aa'
p24
aS'ka'
p25
aS'ma'
p26
aS'ba'
p27
aS'ya'
p28
ag10
aS'li'
p29
aS'fa'
p30
aS'pa'
p31
aS'na'
p32
aS'ha'
p33
aS'ta'
p34
atp35
Rp36
sg19
I00
sg20
g21
ssg10
(dp37
g3
g4
((lp38
g6
ag8
ag7
ag21
ag9
ag11
ag12
ag29
ag13
ag14
ag15
ag16
ag1
atp39
Rp40
sg19
I00
sg20
g10
ssg29
(dp41
g3
g4
((lp42
S'xi'
p43
ag21
aS'ai'
p44
ag10
aS'mi'
p45
aS'bi'
p46
aS'si'
p47
aS'hi'
p48
aS'ti'
p49
aS'pi'
p50
atp51
Rp52
sg19
I00
sg20
g29
ssg13
(dp53
g3
g4
((lp54
g6
ag7
ag8
ag9
ag10
ag11
ag12
ag14
ag15
ag16
ag49
ag1
ag34
atp55
Rp56
sg19
I00
sg20
g13
ssg49
(dp57
g3
g4
((lp58
g43
ag44
ag45
ag46
ag29
ag13
ag47
ag48
ag50
ag34
atp59
Rp60
sg19
I00
sg20
g49
ssg34
(dp61
g3
g4
((lp62
g24
ag25
ag26
ag27
ag21
ag28
ag32
ag30
ag31
ag49
ag33
ag13
atp63
Rp64
sg19
I00
sg20
g34
ssg6
(dp65
g3
g4
((lp66
g12
ag7
ag8
ag9
ag10
ag11
aS'de'
p67
ag13
ag14
ag15
ag16
ag1
atp68
Rp69
sg19
I00
sg20
g6
ssg7
(dp70
g3
g4
((lp71
g6
ag8
ag28
ag10
ag11
ag12
aS'ye'
p72
ag13
ag14
ag15
ag16
ag1
ag9
atp73
Rp74
sg19
I00
sg20
g7
ssg28
(dp75
g3
g4
((lp76
g24
ag25
ag26
ag27
ag7
ag21
ag32
ag72
ag30
ag31
ag33
ag34
atp77
Rp78
sg19
I00
sg20
g28
ssg67
(dp79
g3
g4
((lp80
S'me'
p81
aS'be'
p82
aS'we'
p83
aS'ae'
p84
ag6
aS'oe'
p85
ag72
aS'ne'
p86
aS're'
p87
aS'pe'
p88
aS'he'
p89
atp90
Rp91
sg19
I00
sg20
g67
ssg72
(dp92
g3
g4
((lp93
g81
ag82
ag83
ag84
ag7
ag28
ag85
ag67
ag86
ag87
ag88
ag89
atp94
Rp95
sg19
I00
sg20
g72
ssS'em'
p96
(dp97
g3
g4
((lp98
S'el'
p99
aS'om'
p100
aS'en'
p101
aS'eh'
p102
aS'mm'
p103
aS'ef'
p104
aS'am'
p105
aS'um'
p106
aS'ex'
p107
aS'hm'
p108
aS'et'
p109
aS'es'
p110
aS'er'
p111
atp112
Rp113
sg19
I00
sg20
g96
ssg99
(dp114
g3
g4
((lp115
g96
ag101
ag102
ag104
aS'al'
p116
ag107
ag109
ag110
ag111
atp117
Rp118
sg19
I00
sg20
g99
ssg101
(dp119
g3
g4
((lp120
g96
ag99
ag102
aS'on'
p121
ag104
aS'an'
p122
aS'un'
p123
ag107
aS'in'
p124
ag109
ag110
ag111
atp125
Rp126
sg19
I00
sg20
g101
ssg102
(dp127
g3
g4
((lp128
g96
ag99
ag101
aS'oh'
p129
aS'ah'
p130
ag104
aS'sh'
p131
ag107
aS'uh'
p132
ag109
ag110
ag111
atp133
Rp134
sg19
I00
sg20
g102
ssg104
(dp135
g3
g4
((lp136
g96
ag99
ag101
ag102
aS'of'
p137
ag107
ag109
aS'if'
p138
ag110
ag111
atp139
Rp140
sg19
I00
sg20
g104
ssg107
(dp141
g3
g4
((lp142
g96
ag99
ag101
ag102
ag104
aS'ox'
p143
ag109
aS'ax'
p144
ag110
ag111
atp145
Rp146
sg19
I00
sg20
g107
ssg109
(dp147
g3
g4
((lp148
g96
ag99
ag101
ag102
aS'ut'
p149
ag104
aS'it'
p150
ag107
aS'at'
p151
ag110
ag111
atp152
Rp153
sg19
I00
sg20
g109
ssg110
(dp154
g3
g4
((lp155
g96
ag99
ag101
ag102
aS'is'
p156
ag104
aS'us'
p157
aS'as'
p158
ag107
ag109
aS'os'
p159
ag111
atp160
Rp161
sg19
I00
sg20
g110
ssg111
(dp162
g3
g4
((lp163
g96
ag99
ag101
ag102
ag104
aS'ar'
p164
ag107
ag109
aS'or'
p165
ag110
atp166
Rp167
sg19
I00
sg20
g111
ssS'mu'
p168
(dp169
g3
g4
((lp170
g81
ag26
ag103
ag11
ag45
aS'my'
p171
aS'nu'
p172
aS'xu'
p173
atp174
Rp175
sg19
I00
sg20
g168
ssg87
(dp176
g3
g4
((lp177
g81
ag82
ag83
ag84
ag85
ag67
ag72
ag86
ag88
ag89
atp178
Rp179
sg19
I00
sg20
g87
ssg82
(dp180
g3
g4
((lp181
g81
ag83
ag67
ag84
ag27
ag85
ag12
ag72
ag46
ag86
ag87
ag88
aS'by'
p182
ag89
atp183
Rp184
sg19
I00
sg20
g82
ssg83
(dp185
g3
g4
((lp186
g81
ag82
ag84
ag9
ag85
ag67
ag72
ag86
ag87
ag88
ag89
atp187
Rp188
sg19
I00
sg20
g83
ssg27
(dp189
g3
g4
((lp190
g24
ag82
ag25
ag26
ag21
ag28
ag32
ag12
ag46
ag30
ag31
ag33
ag182
ag34
atp191
Rp192
sg19
I00
sg20
g27
ssg9
(dp193
g3
g4
((lp194
g6
ag83
ag7
ag8
ag10
ag11
ag12
ag13
ag14
ag15
ag16
ag1
atp195
Rp196
sg19
I00
sg20
g9
ssg12
(dp197
g3
g4
((lp198
g82
ag27
ag7
ag6
ag9
ag10
ag11
ag8
ag46
ag13
ag14
ag15
ag16
ag1
ag182
atp199
Rp200
sg19
I00
sg20
g12
ssg46
(dp201
g3
g4
((lp202
g82
ag43
ag27
ag44
ag12
ag45
ag29
ag47
ag48
ag49
ag50
ag182
atp203
Rp204
sg19
I00
sg20
g46
ssg14
(dp205
g3
g4
((lp206
g6
ag7
ag8
ag9
ag10
ag11
ag12
ag13
ag15
ag16
ag1
atp207
Rp208
sg19
I00
sg20
g14
ssg182
(dp209
g3
g4
((lp210
g82
ag27
ag12
ag46
aS'oy'
p211
aS'ay'
p212
ag171
atp213
Rp214
sg19
I00
sg20
g182
ssg121
(dp215
g3
g4
((lp216
g100
ag101
ag129
ag137
ag85
aS'od'
p217
ag143
ag122
ag123
ag211
ag124
aS'ow'
p218
ag159
ag165
aS'op'
p219
atp220
Rp221
sg19
I00
sg20
g121
ssg100
(dp222
g3
g4
((lp223
g96
ag121
ag129
ag103
ag137
ag85
ag217
ag105
ag143
ag106
ag211
ag108
ag218
ag159
ag165
ag219
atp224
Rp225
sg19
I00
sg20
g100
ssg129
(dp226
g3
g4
((lp227
g121
ag100
ag102
ag130
ag85
ag217
ag143
ag131
ag132
ag211
ag137
ag218
ag159
ag165
ag219
atp228
Rp229
sg19
I00
sg20
g129
ssg137
(dp230
g3
g4
((lp231
g121
ag100
ag217
ag129
ag85
ag104
ag211
ag143
ag218
ag219
ag159
ag165
ag138
atp232
Rp233
sg19
I00
sg20
g137
ssg85
(dp234
g3
g4
((lp235
g81
ag82
ag100
ag217
ag84
ag129
ag83
ag137
ag67
ag72
ag86
ag143
ag87
ag88
ag211
ag219
ag218
ag121
ag159
ag165
ag89
atp236
Rp237
sg19
I00
sg20
g85
ssg217
(dp238
g3
g4
((lp239
g121
ag100
aS'ad'
p240
ag129
ag137
ag85
ag211
ag143
ag218
ag159
ag165
ag219
atp241
Rp242
sg19
I00
sg20
g217
ssg211
(dp243
g3
g4
((lp244
g121
ag100
ag129
ag137
ag85
ag217
ag165
ag218
ag143
ag212
ag171
ag159
ag182
ag219
atp245
Rp246
sg19
I00
sg20
g211
ssg143
(dp247
g3
g4
((lp248
g121
ag100
ag129
ag137
ag85
ag217
ag107
ag211
ag218
ag144
ag159
ag165
ag219
atp249
Rp250
sg19
I00
sg20
g143
ssg218
(dp251
g3
g4
((lp252
g121
ag100
ag211
ag129
ag137
ag85
ag217
aS'aw'
p253
ag143
ag159
ag165
ag219
atp254
Rp255
sg19
I00
sg20
g218
ssg159
(dp256
g3
g4
((lp257
g121
ag100
ag129
ag137
ag156
ag217
ag157
ag143
ag158
ag211
ag85
ag218
ag165
ag110
ag219
atp258
Rp259
sg19
I00
sg20
g159
ssg165
(dp260
g3
g4
((lp261
g121
ag100
ag129
ag137
ag85
ag217
ag164
ag211
ag143
ag218
ag219
ag159
ag111
atp262
Rp263
sg19
I00
sg20
g165
ssg219
(dp264
g3
g4
((lp265
g121
ag100
ag129
ag137
ag85
ag217
aS'up'
p266
ag211
ag143
ag218
ag159
ag165
atp267
Rp268
sg19
I00
sg20
g219
ssg43
(dp269
g3
g4
((lp270
g44
ag45
ag46
ag29
ag47
ag48
ag49
ag50
ag173
atp271
Rp272
sg19
I00
sg20
g43
ssg173
(dp273
g3
g4
((lp274
g168
ag43
ag172
atp275
Rp276
sg19
I00
sg20
g173
ssg31
(dp277
g3
g4
((lp278
g24
ag25
ag50
ag26
ag27
ag21
ag28
ag32
ag30
ag88
ag33
ag34
atp279
Rp280
sg19
I00
sg20
g31
ssg88
(dp281
g3
g4
((lp282
g81
ag82
ag83
ag84
ag85
ag67
ag72
ag86
ag87
ag31
ag50
ag89
atp283
Rp284
sg19
I00
sg20
g88
ssg50
(dp285
g3
g4
((lp286
g43
ag44
ag31
ag49
ag45
ag46
ag29
ag47
ag48
ag88
atp287
Rp288
sg19
I00
sg20
g50
ssg150
(dp289
g3
g4
((lp290
g149
ag156
ag151
ag124
ag109
ag138
atp291
Rp292
sg19
I00
sg20
g150
ssg48
(dp293
g3
g4
((lp294
g50
ag44
ag49
ag45
ag46
ag29
ag47
ag43
ag16
ag108
ag33
ag89
atp295
Rp296
sg19
I00
sg20
g48
ssg16
(dp297
g3
g4
((lp298
g6
ag7
ag14
ag8
ag9
ag10
ag11
ag12
ag13
ag48
ag15
ag108
ag1
ag33
ag89
atp299
Rp300
sg19
I00
sg20
g16
ssg108
(dp301
g3
g4
((lp302
g96
ag100
ag103
ag105
ag106
ag48
ag16
ag33
ag89
atp303
Rp304
sg19
I00
sg20
g108
ssg33
(dp305
g3
g4
((lp306
g24
ag25
ag26
ag27
ag21
ag28
ag32
ag31
ag30
ag48
ag16
ag108
ag34
ag89
atp307
Rp308
sg19
I00
sg20
g33
ssg89
(dp309
g3
g4
((lp310
g81
ag82
ag83
ag88
ag84
ag85
ag67
ag72
ag86
ag87
ag48
ag16
ag108
ag33
atp311
Rp312
sg19
I00
sg20
g89
ssg81
(dp313
g3
g4
((lp314
g82
ag83
ag84
ag103
ag72
ag11
ag67
ag45
ag86
ag168
ag87
ag88
ag26
ag171
ag85
ag89
atp315
Rp316
sg19
I00
sg20
g81
ssg26
(dp317
g3
g4
((lp318
g24
ag81
ag25
ag27
ag21
ag103
ag32
ag11
ag45
ag168
ag30
ag31
ag28
ag33
ag171
ag34
atp319
Rp320
sg19
I00
sg20
g26
ssg103
(dp321
g3
g4
((lp322
g96
ag81
ag100
ag26
ag105
ag11
ag106
ag45
ag168
ag108
ag171
atp323
Rp324
sg19
I00
sg20
g103
ssg149
(dp325
g3
g4
((lp326
g150
ag157
ag266
ag106
ag123
ag132
ag109
ag151
atp327
Rp328
sg19
I00
sg20
g149
ssg11
(dp329
g3
g4
((lp330
g81
ag6
ag26
ag7
ag8
ag103
ag10
ag12
ag45
ag168
ag13
ag14
ag15
ag16
ag9
ag1
ag171
atp331
Rp332
sg19
I00
sg20
g11
ssg45
(dp333
g3
g4
((lp334
g81
ag43
ag26
ag44
ag11
ag46
ag29
ag168
ag103
ag47
ag48
ag49
ag50
ag171
atp335
Rp336
sg19
I00
sg20
g45
ssg266
(dp337
g3
g4
((lp338
g149
ag157
ag106
ag123
ag132
ag219
atp339
Rp340
sg19
I00
sg20
g266
ssg157
(dp341
g3
g4
((lp342
g149
ag156
ag266
ag106
ag158
ag123
ag132
ag159
ag110
atp343
Rp344
sg19
I00
sg20
g157
ssg106
(dp345
g3
g4
((lp346
g96
ag100
ag103
ag149
ag105
ag266
ag157
ag123
ag132
ag108
atp347
Rp348
sg19
I00
sg20
g106
ssg123
(dp349
g3
g4
((lp350
g121
ag101
ag149
ag266
ag157
ag122
ag106
ag132
ag124
atp351
Rp352
sg19
I00
sg20
g123
ssg132
(dp353
g3
g4
((lp354
g102
ag129
ag130
ag266
ag157
ag106
ag131
ag149
ag123
atp355
Rp356
sg19
I00
sg20
g132
ssg171
(dp357
g3
g4
((lp358
g81
ag26
ag103
ag11
ag45
ag168
ag211
ag212
ag182
atp359
Rp360
sg19
I00
sg20
g171
ssg24
(dp361
g3
g4
((lp362
S'ab'
p363
ag84
ag240
aS'ag'
p364
ag44
ag130
ag105
ag116
ag122
ag158
ag164
ag151
ag253
ag212
ag144
ag21
ag32
ag31
ag34
ag27
ag28
ag30
ag33
ag25
ag26
atp365
Rp366
sg19
I00
sg20
g24
ssg363
(dp367
g3
g4
((lp368
g24
ag84
ag240
ag364
ag44
ag130
ag105
ag116
ag122
ag158
ag164
ag151
ag253
ag212
ag144
atp369
Rp370
sg19
I00
sg20
g363
ssg84
(dp371
g3
g4
((lp372
g24
ag363
ag240
ag364
ag44
ag130
ag105
ag116
ag122
ag158
ag164
ag151
ag253
ag212
ag144
ag86
ag87
ag88
ag82
ag83
ag67
ag72
ag89
ag81
ag85
atp373
Rp374
sg19
I00
sg20
g84
ssg240
(dp375
g3
g4
((lp376
g24
ag363
ag84
ag364
ag44
ag130
ag217
ag105
ag116
ag122
ag158
ag164
ag151
ag253
ag212
ag144
atp377
Rp378
sg19
I00
sg20
g240
ssg364
(dp379
g3
g4
((lp380
g24
ag363
ag84
ag240
ag44
ag130
ag105
ag116
ag122
ag158
ag164
ag151
ag253
ag212
ag144
atp381
Rp382
sg19
I00
sg20
g364
ssg44
(dp383
g3
g4
((lp384
g24
ag363
ag84
ag240
ag364
ag130
ag105
ag116
ag122
ag158
ag164
ag151
ag253
ag212
ag144
ag29
ag49
ag43
ag50
ag46
ag48
ag45
ag47
atp385
Rp386
sg19
I00
sg20
g44
ssg130
(dp387
g3
g4
((lp388
g24
ag363
ag84
ag240
ag364
ag129
ag44
ag105
ag116
ag131
ag122
ag158
ag164
ag151
ag253
ag132
ag212
ag144
ag102
atp389
Rp390
sg19
I00
sg20
g130
ssg156
(dp391
g3
g4
((lp392
g150
ag157
ag158
ag124
ag159
ag110
ag138
atp393
Rp394
sg19
I00
sg20
g156
ssg105
(dp395
g3
g4
((lp396
g24
ag96
ag100
ag363
ag84
ag240
ag364
ag44
ag130
ag116
ag122
ag106
ag103
ag158
ag164
ag151
ag253
ag108
ag212
ag144
atp397
Rp398
sg19
I00
sg20
g105
ssg116
(dp399
g3
g4
((lp400
g24
ag99
ag363
ag84
ag240
ag364
ag44
ag130
ag105
ag122
ag158
ag164
ag151
ag253
ag212
ag144
atp401
Rp402
sg19
I00
sg20
g116
ssg122
(dp403
g3
g4
((lp404
g24
ag121
ag363
ag84
ag240
ag364
ag44
ag130
ag105
ag116
ag158
ag164
ag101
ag151
ag253
ag124
ag212
ag144
ag123
atp405
Rp406
sg19
I00
sg20
g122
ssg158
(dp407
g3
g4
((lp408
g24
ag363
ag84
ag240
ag364
ag44
ag130
ag156
ag105
ag116
ag157
ag122
ag164
ag151
ag253
ag212
ag144
ag159
ag110
atp409
Rp410
sg19
I00
sg20
g158
ssg164
(dp411
g3
g4
((lp412
g24
ag363
ag84
ag240
ag364
ag44
ag130
ag105
ag116
ag122
ag158
ag151
ag253
ag212
ag144
ag165
ag111
atp413
Rp414
sg19
I00
sg20
g164
ssg151
(dp415
g3
g4
((lp416
g24
ag363
ag84
ag240
ag364
ag44
ag130
ag150
ag105
ag116
ag122
ag149
ag158
ag164
ag253
ag109
ag212
ag144
atp417
Rp418
sg19
I00
sg20
g151
ssg253
(dp419
g3
g4
((lp420
g24
ag363
ag84
ag240
ag364
ag44
ag130
ag105
ag116
ag122
ag218
ag158
ag164
ag151
ag212
ag144
atp421
Rp422
sg19
I00
sg20
g253
ssg124
(dp423
g3
g4
((lp424
g121
ag101
ag156
ag150
ag122
ag123
ag138
atp425
Rp426
sg19
I00
sg20
g124
ssg212
(dp427
g3
g4
((lp428
g24
ag363
ag84
ag240
ag364
ag44
ag130
ag105
ag116
ag122
ag211
ag158
ag164
ag151
ag253
ag144
ag171
ag182
atp429
Rp430
sg19
I00
sg20
g212
ssg144
(dp431
g3
g4
((lp432
g24
ag363
ag84
ag240
ag364
ag44
ag130
ag105
ag116
ag122
ag158
ag164
ag151
ag253
ag143
ag212
ag107
atp433
Rp434
sg19
I00
sg20
g144
ssg138
(dp435
g3
g4
((lp436
g137
ag156
ag104
ag150
ag124
atp437
Rp438
sg19
I00
sg20
g138
ssg8
(dp439
g3
g4
((lp440
g6
ag7
ag9
ag10
ag11
ag12
ag86
ag13
ag14
ag15
ag16
ag32
ag1
ag172
atp441
Rp442
sg19
I00
sg20
g8
ssg32
(dp443
g3
g4
((lp444
g24
ag25
ag26
ag27
ag21
ag28
ag8
ag86
ag30
ag31
ag33
ag172
ag34
atp445
Rp446
sg19
I00
sg20
g32
ssg86
(dp447
g3
g4
((lp448
g81
ag82
ag83
ag84
ag8
ag32
ag85
ag67
ag72
ag87
ag88
ag172
ag89
atp449
Rp450
sg19
I00
sg20
g86
ssg172
(dp451
g3
g4
((lp452
g168
ag32
ag173
ag86
ag8
atp453
Rp454
sg19
I00
sg20
g172
ssg30
(dp455
g3
g4
((lp456
g24
ag25
ag26
ag27
ag21
ag28
ag32
ag31
ag33
ag34
atp457
Rp458
sg19
I00
sg20
g30
ssg25
(dp459
g3
g4
((lp460
g24
ag26
ag27
ag21
ag28
ag32
ag30
ag31
ag33
ag34
atp461
Rp462
sg19
I00
sg20
g25
ssg47
(dp463
g3
g4
((lp464
g43
ag44
ag45
ag46
ag131
ag48
ag15
ag49
ag29
ag50
atp465
Rp466
sg19
I00
sg20
g47
ssg131
(dp467
g3
g4
((lp468
g102
ag129
ag130
ag47
ag15
ag132
atp469
Rp470
sg19
I00
sg20
g131
ssg15
(dp471
g3
g4
((lp472
g6
ag7
ag14
ag8
ag9
ag10
ag11
ag12
ag13
ag47
ag131
ag16
ag1
atp473
Rp474
sg19
I00
sg20
g15
ss.