(dp0
S'underrepresentations'
p1
(dp2
S'neighbors'
p3
c__builtin__
set
p4
((lp5
tp6
Rp7
sS'visited'
p8
I00
sS'word'
p9
g1
ssS'ultramicroscopically'
p10
(dp11
g3
g4
((lp12
tp13
Rp14
sg8
I00
sg9
g10
ssS'hypercholesterolemic'
p15
(dp16
g3
g4
((lp17
S'hypercholesterolemia'
p18
atp19
Rp20
sg8
I00
sg9
g15
ssg18
(dp21
g3
g4
((lp22
g15
atp23
Rp24
sg8
I00
sg9
g18
ssS'phosphomonoesterases'
p25
(dp26
g3
g4
((lp27
tp28
Rp29
sg8
I00
sg9
g25
ssS'reconceptualizations'
p30
(dp31
g3
g4
((lp32
tp33
Rp34
sg8
I00
sg9
g30
ssS'phosphoenolpyruvates'
p35
(dp36
g3
g4
((lp37
tp38
Rp39
sg8
I00
sg9
g35
ssS'philoprogenitiveness'
p40
(dp41
g3
g4
((lp42
tp43
Rp44
sg8
I00
sg9
g40
ssS'departmentalizations'
p45
(dp46
g3
g4
((lp47
tp48
Rp49
sg8
I00
sg9
g45
ssS'internationalization'
p50
(dp51
g3
g4
((lp52
tp53
Rp54
sg8
I00
sg9
g50
ssS'overdifferentiations'
p55
(dp56
g3
g4
((lp57
tp58
Rp59
sg8
I00
sg9
g55
ssS'existentialistically'
p60
(dp61
g3
g4
((lp62
tp63
Rp64
sg8
I00
sg9
g60
ssS'cytodifferentiations'
p65
(dp66
g3
g4
((lp67
tp68
Rp69
sg8
I00
sg9
g65
ssS'bacteriochlorophylls'
p70
(dp71
g3
g4
((lp72
tp73
Rp74
sg8
I00
sg9
g70
ssS'histocompatibilities'
p75
(dp76
g3
g4
((lp77
tp78
Rp79
sg8
I00
sg9
g75
ssS'adrenocorticotropins'
p80
(dp81
g3
g4
((lp82
tp83
Rp84
sg8
I00
sg9
g80
ssS'interchangeabilities'
p85
(dp86
g3
g4
((lp87
tp88
Rp89
sg8
I00
sg9
g85
ssS'adrenocorticosteroid'
p90
(dp91
g3
g4
((lp92
tp93
Rp94
sg8
I00
sg9
g90
ssS'conventionalizations'
p95
(dp96
g3
g4
((lp97
tp98
Rp99
sg8
I00
sg9
g95
ssS'semiautobiographical'
p100
(dp101
g3
g4
((lp102
tp103
Rp104
sg8
I00
sg9
g100
ssS'roentgenographically'
p105
(dp106
g3
g4
((lp107
tp108
Rp109
sg8
I00
sg9
g105
ssS'anticonservationists'
p110
(dp111
g3
g4
((lp112
tp113
Rp114
sg8
I00
sg9
g110
ssS'neuroendocrinologies'
p115
(dp116
g3
g4
((lp117
tp118
Rp119
sg8
I00
sg9
g115
ssS'microminiaturization'
p120
(dp121
g3
g4
((lp122
tp123
Rp124
sg8
I00
sg9
g120
ssS'nondenominationalism'
p125
(dp126
g3
g4
((lp127
tp128
Rp129
sg8
I00
sg9
g125
ssS'counterdemonstrating'
p130
(dp131
g3
g4
((lp132
tp133
Rp134
sg8
I00
sg9
g130
ssS'inappreciativenesses'
p135
(dp136
g3
g4
((lp137
tp138
Rp139
sg8
I00
sg9
g135
ssS'interstratifications'
p140
(dp141
g3
g4
((lp142
tp143
Rp144
sg8
I00
sg9
g140
ssS'spectrophotometrical'
p145
(dp146
g3
g4
((lp147
tp148
Rp149
sg8
I00
sg9
g145
ssS'electrooculographies'
p150
(dp151
g3
g4
((lp152
tp153
Rp154
sg8
I00
sg9
g150
ssS'ultracentrifugations'
p155
(dp156
g3
g4
((lp157
tp158
Rp159
sg8
I00
sg9
g155
ssS'acetylcholinesterase'
p160
(dp161
g3
g4
((lp162
tp163
Rp164
sg8
I00
sg9
g160
ssS'photophosphorylation'
p165
(dp166
g3
g4
((lp167
tp168
Rp169
sg8
I00
sg9
g165
ssS'hyperparathyroidisms'
p170
(dp171
g3
g4
((lp172
tp173
Rp174
sg8
I00
sg9
g170
ssS'counterrevolutionary'
p175
(dp176
g3
g4
((lp177
tp178
Rp179
sg8
I00
sg9
g175
ssS'pseudosophistication'
p180
(dp181
g3
g4
((lp182
tp183
Rp184
sg8
I00
sg9
g180
ssS'homotransplantations'
p185
(dp186
g3
g4
((lp187
tp188
Rp189
sg8
I00
sg9
g185
ssS'electrophotographies'
p190
(dp191
g3
g4
((lp192
tp193
Rp194
sg8
I00
sg9
g190
ssS'psychopharmacologist'
p195
(dp196
g3
g4
((lp197
tp198
Rp199
sg8
I00
sg9
g195
ssS'counterintelligences'
p200
(dp201
g3
g4
((lp202
tp203
Rp204
sg8
I00
sg9
g200
ssS'spectroheliographies'
p205
(dp206
g3
g4
((lp207
tp208
Rp209
sg8
I00
sg9
g205
ssS'micropaleontologists'
p210
(dp211
g3
g4
((lp212
tp213
Rp214
sg8
I00
sg9
g210
ssS'nondestructivenesses'
p215
(dp216
g3
g4
((lp217
tp218
Rp219
sg8
I00
sg9
g215
ssS'chlorofluoromethanes'
p220
(dp221
g3
g4
((lp222
tp223
Rp224
sg8
I00
sg9
g220
ssS'electroencephalogram'
p225
(dp226
g3
g4
((lp227
tp228
Rp229
sg8
I00
sg9
g225
ssS'adrenocorticotrophin'
p230
(dp231
g3
g4
((lp232
S'adrenocorticotrophic'
p233
atp234
Rp235
sg8
I00
sg9
g230
ssS'dehydrochlorinations'
p236
(dp237
g3
g4
((lp238
tp239
Rp240
sg8
I00
sg9
g236
ssg233
(dp241
g3
g4
((lp242
g230
atp243
Rp244
sg8
I00
sg9
g233
ssS'indestructiblenesses'
p245
(dp246
g3
g4
((lp247
tp248
Rp249
sg8
I00
sg9
g245
ssS'neurophysiologically'
p250
(dp251
g3
g4
((lp252
tp253
Rp254
sg8
I00
sg9
g250
ssS'expressionlessnesses'
p255
(dp256
g3
g4
((lp257
tp258
Rp259
sg8
I00
sg9
g255
ssS'phenylpropanolamines'
p260
(dp261
g3
g4
((lp262
tp263
Rp264
sg8
I00
sg9
g260
ssS'spectrofluorometries'
p265
(dp266
g3
g4
((lp267
tp268
Rp269
sg8
I00
sg9
g265
ssS'deoxyribonucleotides'
p270
(dp271
g3
g4
((lp272
tp273
Rp274
sg8
I00
sg9
g270
ssS'polyphiloprogenitive'
p275
(dp276
g3
g4
((lp277
tp278
Rp279
sg8
I00
sg9
g275
ssS'microelectrophoreses'
p280
(dp281
g3
g4
((lp282
S'microelectrophoresis'
p283
atp284
Rp285
sg8
I00
sg9
g280
ssS'photointerpretations'
p286
(dp287
g3
g4
((lp288
tp289
Rp290
sg8
I00
sg9
g286
ssS'phosphatidylcholines'
p291
(dp292
g3
g4
((lp293
tp294
Rp295
sg8
I00
sg9
g291
ssS'immunohistochemistry'
p296
(dp297
g3
g4
((lp298
tp299
Rp300
sg8
I00
sg9
g296
ssS'transformationalists'
p301
(dp302
g3
g4
((lp303
tp304
Rp305
sg8
I00
sg9
g301
ssS'photoautotrophically'
p306
(dp307
g3
g4
((lp308
tp309
Rp310
sg8
I00
sg9
g306
ssS'inconsequentialities'
p311
(dp312
g3
g4
((lp313
tp314
Rp315
sg8
I00
sg9
g311
ssS'crystallographically'
p316
(dp317
g3
g4
((lp318
tp319
Rp320
sg8
I00
sg9
g316
ssS'extemporaneousnesses'
p321
(dp322
g3
g4
((lp323
tp324
Rp325
sg8
I00
sg9
g321
ssS'compartmentalization'
p326
(dp327
g3
g4
((lp328
tp329
Rp330
sg8
I00
sg9
g326
ssS'tetrahydrocannabinol'
p331
(dp332
g3
g4
((lp333
tp334
Rp335
sg8
I00
sg9
g331
ssS'irreproachablenesses'
p336
(dp337
g3
g4
((lp338
tp339
Rp340
sg8
I00
sg9
g336
ssS'neuropsychiatrically'
p341
(dp342
g3
g4
((lp343
tp344
Rp345
sg8
I00
sg9
g341
ssS'uncharacteristically'
p346
(dp347
g3
g4
((lp348
tp349
Rp350
sg8
I00
sg9
g346
ssS'overintellectualized'
p351
(dp352
g3
g4
((lp353
S'overintellectualizes'
p354
atp355
Rp356
sg8
I00
sg9
g351
ssS'magnetofluiddynamics'
p357
(dp358
g3
g4
((lp359
tp360
Rp361
sg8
I00
sg9
g357
ssS'phenylthiocarbamides'
p362
(dp363
g3
g4
((lp364
tp365
Rp366
sg8
I00
sg9
g362
ssS'lymphogranulomatosis'
p367
(dp368
g3
g4
((lp369
S'lymphogranulomatoses'
p370
atp371
Rp372
sg8
I00
sg9
g367
ssS'noninstitutionalized'
p373
(dp374
g3
g4
((lp375
tp376
Rp377
sg8
I00
sg9
g373
ssS'mischaracterizations'
p378
(dp379
g3
g4
((lp380
tp381
Rp382
sg8
I00
sg9
g378
ssS'anthropocentricities'
p383
(dp384
g3
g4
((lp385
tp386
Rp387
sg8
I00
sg9
g383
ssS'deindustrializations'
p388
(dp389
g3
g4
((lp390
S'reindustrializations'
p391
atp392
Rp393
sg8
I00
sg9
g388
ssS'incomprehensibleness'
p394
(dp395
g3
g4
((lp396
tp397
Rp398
sg8
I00
sg9
g394
ssS'hydrochlorothiazides'
p399
(dp400
g3
g4
((lp401
tp402
Rp403
sg8
I00
sg9
g399
ssS'radiopharmaceuticals'
p404
(dp405
g3
g4
((lp406
tp407
Rp408
sg8
I00
sg9
g404
ssS'ultrarevolutionaries'
p409
(dp410
g3
g4
((lp411
tp412
Rp413
sg8
I00
sg9
g409
ssS'pseudoparenchymatous'
p414
(dp415
g3
g4
((lp416
tp417
Rp418
sg8
I00
sg9
g414
ssS'inconsiderablenesses'
p419
(dp420
g3
g4
((lp421
tp422
Rp423
sg8
I00
sg9
g419
ssS'representationalisms'
p424
(dp425
g3
g4
((lp426
S'representationalists'
p427
atp428
Rp429
sg8
I00
sg9
g424
ssS'intellectualizations'
p430
(dp431
g3
g4
((lp432
tp433
Rp434
sg8
I00
sg9
g430
ssS'paradichlorobenzenes'
p435
(dp436
g3
g4
((lp437
tp438
Rp439
sg8
I00
sg9
g435
ssS'indiscriminatenesses'
p440
(dp441
g3
g4
((lp442
tp443
Rp444
sg8
I00
sg9
g440
ssS'counterdemonstration'
p445
(dp446
g3
g4
((lp447
tp448
Rp449
sg8
I00
sg9
g445
ssS'photoreconnaissances'
p450
(dp451
g3
g4
((lp452
tp453
Rp454
sg8
I00
sg9
g450
ssS'encephalomyocarditis'
p455
(dp456
g3
g4
((lp457
tp458
Rp459
sg8
I00
sg9
g455
ssS'countermobilizations'
p460
(dp461
g3
g4
((lp462
tp463
Rp464
sg8
I00
sg9
g460
ssS'irreconcilablenesses'
p465
(dp466
g3
g4
((lp467
tp468
Rp469
sg8
I00
sg9
g465
ssS'overprotectivenesses'
p470
(dp471
g3
g4
((lp472
tp473
Rp474
sg8
I00
sg9
g470
ssS'electrophysiological'
p475
(dp476
g3
g4
((lp477
tp478
Rp479
sg8
I00
sg9
g475
ssS'countersurveillances'
p480
(dp481
g3
g4
((lp482
tp483
Rp484
sg8
I00
sg9
g480
ssg427
(dp485
g3
g4
((lp486
g424
atp487
Rp488
sg8
I00
sg9
g427
ssS'microelectrophoretic'
p489
(dp490
g3
g4
((lp491
tp492
Rp493
sg8
I00
sg9
g489
ssS'countertransferences'
p494
(dp495
g3
g4
((lp496
tp497
Rp498
sg8
I00
sg9
g494
ssS'phosphofructokinases'
p499
(dp500
g3
g4
((lp501
tp502
Rp503
sg8
I00
sg9
g499
ssS'microcrystallinities'
p504
(dp505
g3
g4
((lp506
tp507
Rp508
sg8
I00
sg9
g504
ssS'microphotometrically'
p509
(dp510
g3
g4
((lp511
tp512
Rp513
sg8
I00
sg9
g509
ssS'forethoughtfulnesses'
p514
(dp515
g3
g4
((lp516
tp517
Rp518
sg8
I00
sg9
g514
ssS'electroretinographic'
p519
(dp520
g3
g4
((lp521
tp522
Rp523
sg8
I00
sg9
g519
ssS'counterconditionings'
p524
(dp525
g3
g4
((lp526
tp527
Rp528
sg8
I00
sg9
g524
ssS'anthropomorphization'
p529
(dp530
g3
g4
((lp531
tp532
Rp533
sg8
I00
sg9
g529
ssS'overenthusiastically'
p534
(dp535
g3
g4
((lp536
tp537
Rp538
sg8
I00
sg9
g534
ssS'psychopathologically'
p539
(dp540
g3
g4
((lp541
tp542
Rp543
sg8
I00
sg9
g539
ssS'neuropharmacological'
p544
(dp545
g3
g4
((lp546
tp547
Rp548
sg8
I00
sg9
g544
ssS'distinguishabilities'
p549
(dp550
g3
g4
((lp551
tp552
Rp553
sg8
I00
sg9
g549
ssS'immunoprecipitations'
p554
(dp555
g3
g4
((lp556
tp557
Rp558
sg8
I00
sg9
g554
ssS'plethysmographically'
p559
(dp560
g3
g4
((lp561
tp562
Rp563
sg8
I00
sg9
g559
ssS'institutionalization'
p564
(dp565
g3
g4
((lp566
tp567
Rp568
sg8
I00
sg9
g564
ssS'reinstitutionalizing'
p569
(dp570
g3
g4
((lp571
S'deinstitutionalizing'
p572
atp573
Rp574
sg8
I00
sg9
g569
ssS'contradistinguishing'
p575
(dp576
g3
g4
((lp577
tp578
Rp579
sg8
I00
sg9
g575
ssS'syncategorematically'
p580
(dp581
g3
g4
((lp582
tp583
Rp584
sg8
I00
sg9
g580
ssS'incommensurabilities'
p585
(dp586
g3
g4
((lp587
tp588
Rp589
sg8
I00
sg9
g585
ssS'electrocardiographic'
p590
(dp591
g3
g4
((lp592
tp593
Rp594
sg8
I00
sg9
g590
ssg391
(dp595
g3
g4
((lp596
g388
atp597
Rp598
sg8
I00
sg9
g391
ssS'dimethylnitrosamines'
p599
(dp600
g3
g4
((lp601
tp602
Rp603
sg8
I00
sg9
g599
ssS'interconnectednesses'
p604
(dp605
g3
g4
((lp606
tp607
Rp608
sg8
I00
sg9
g604
ssS'pseudocholinesterase'
p609
(dp610
g3
g4
((lp611
tp612
Rp613
sg8
I00
sg9
g609
ssS'immunocytochemically'
p614
(dp615
g3
g4
((lp616
tp617
Rp618
sg8
I00
sg9
g614
ssS'keratoconjunctivitis'
p619
(dp620
g3
g4
((lp621
S'keratoconjunctivites'
p622
atp623
Rp624
sg8
I00
sg9
g619
ssS'uncompromisingnesses'
p625
(dp626
g3
g4
((lp627
tp628
Rp629
sg8
I00
sg9
g625
ssS'representativenesses'
p630
(dp631
g3
g4
((lp632
tp633
Rp634
sg8
I00
sg9
g630
ssS'antifluoridationists'
p635
(dp636
g3
g4
((lp637
tp638
Rp639
sg8
I00
sg9
g635
ssS'indistinguishability'
p640
(dp641
g3
g4
((lp642
tp643
Rp644
sg8
I00
sg9
g640
ssS'micropaleontological'
p645
(dp646
g3
g4
((lp647
tp648
Rp649
sg8
I00
sg9
g645
ssS'unrepresentativeness'
p650
(dp651
g3
g4
((lp652
tp653
Rp654
sg8
I00
sg9
g650
ssS'counterdemonstrators'
p655
(dp656
g3
g4
((lp657
tp658
Rp659
sg8
I00
sg9
g655
ssg622
(dp660
g3
g4
((lp661
g619
atp662
Rp663
sg8
I00
sg9
g622
ssS'professionalizations'
p664
(dp665
g3
g4
((lp666
tp667
Rp668
sg8
I00
sg9
g664
ssS'neuroendocrinologist'
p669
(dp670
g3
g4
((lp671
tp672
Rp673
sg8
I00
sg9
g669
ssS'parathyroidectomized'
p674
(dp675
g3
g4
((lp676
tp677
Rp678
sg8
I00
sg9
g674
ssS'radioimmunoassayable'
p679
(dp680
g3
g4
((lp681
tp682
Rp683
sg8
I00
sg9
g679
ssS'hyperconsciousnesses'
p684
(dp685
g3
g4
((lp686
tp687
Rp688
sg8
I00
sg9
g684
ssS'psychopharmacologies'
p689
(dp690
g3
g4
((lp691
tp692
Rp693
sg8
I00
sg9
g689
ssg354
(dp694
g3
g4
((lp695
g351
atp696
Rp697
sg8
I00
sg9
g354
ssS'ultrasegregationists'
p698
(dp699
g3
g4
((lp700
tp701
Rp702
sg8
I00
sg9
g698
ssS'comprehensiblenesses'
p703
(dp704
g3
g4
((lp705
tp706
Rp707
sg8
I00
sg9
g703
ssS'antiauthoritarianism'
p708
(dp709
g3
g4
((lp710
tp711
Rp712
sg8
I00
sg9
g708
ssS'unconscionablenesses'
p713
(dp714
g3
g4
((lp715
tp716
Rp717
sg8
I00
sg9
g713
ssS'buckminsterfullerene'
p718
(dp719
g3
g4
((lp720
tp721
Rp722
sg8
I00
sg9
g718
ssS'photodisintegrations'
p723
(dp724
g3
g4
((lp725
tp726
Rp727
sg8
I00
sg9
g723
ssS'hypersensitivenesses'
p728
(dp729
g3
g4
((lp730
tp731
Rp732
sg8
I00
sg9
g728
ssS'unintelligiblenesses'
p733
(dp734
g3
g4
((lp735
tp736
Rp737
sg8
I00
sg9
g733
ssS'paleoanthropologists'
p738
(dp739
g3
g4
((lp740
tp741
Rp742
sg8
I00
sg9
g738
ssS'electroluminescences'
p743
(dp744
g3
g4
((lp745
tp746
Rp747
sg8
I00
sg9
g743
ssg283
(dp748
g3
g4
((lp749
g280
atp750
Rp751
sg8
I00
sg9
g283
ssS'electrophysiologists'
p752
(dp753
g3
g4
((lp754
tp755
Rp756
sg8
I00
sg9
g752
ssS'paleoanthropological'
p757
(dp758
g3
g4
((lp759
tp760
Rp761
sg8
I00
sg9
g757
ssg370
(dp762
g3
g4
((lp763
g367
atp764
Rp765
sg8
I00
sg9
g370
ssS'magnetohydrodynamics'
p766
(dp767
g3
g4
((lp768
tp769
Rp770
sg8
I00
sg9
g766
ssS'chemotherapeutically'
p771
(dp772
g3
g4
((lp773
tp774
Rp775
sg8
I00
sg9
g771
ssS'unsatisfactorinesses'
p776
(dp777
g3
g4
((lp778
tp779
Rp780
sg8
I00
sg9
g776
ssS'neuropharmacologists'
p781
(dp782
g3
g4
((lp783
tp784
Rp785
sg8
I00
sg9
g781
ssg572
(dp786
g3
g4
((lp787
g569
atp788
Rp789
sg8
I00
sg9
g572
ssS'glomerulonephritides'
p790
(dp791
g3
g4
((lp792
tp793
Rp794
sg8
I00
sg9
g790
ssS'hypercoagulabilities'
p795
(dp796
g3
g4
((lp797
tp798
Rp799
sg8
I00
sg9
g795
ssS'superspecializations'
p800
(dp801
g3
g4
((lp802
tp803
Rp804
sg8
I00
sg9
g800
ss.