(dp0
S'intersubstitutability'
p1
(dp2
S'neighbors'
p3
c__builtin__
set
p4
((lp5
tp6
Rp7
sS'visited'
p8
I00
sS'word'
p9
g1
ssS'clinicopathologically'
p10
(dp11
g3
g4
((lp12
tp13
Rp14
sg8
I00
sg9
g10
ssS'adrenocorticosteroids'
p15
(dp16
g3
g4
((lp17
tp18
Rp19
sg8
I00
sg9
g15
ssS'psychopharmacological'
p20
(dp21
g3
g4
((lp22
tp23
Rp24
sg8
I00
sg9
g20
ssS'hypersusceptibilities'
p25
(dp26
g3
g4
((lp27
tp28
Rp29
sg8
I00
sg9
g25
ssS'photophosphorylations'
p30
(dp31
g3
g4
((lp32
tp33
Rp34
sg8
I00
sg9
g30
ssS'extraterritorialities'
p35
(dp36
g3
g4
((lp37
tp38
Rp39
sg8
I00
sg9
g35
ssS'pseudosophistications'
p40
(dp41
g3
g4
((lp42
tp43
Rp44
sg8
I00
sg9
g40
ssS'antiauthoritarianisms'
p45
(dp46
g3
g4
((lp47
tp48
Rp49
sg8
I00
sg9
g45
ssS'counterdemonstrations'
p50
(dp51
g3
g4
((lp52
tp53
Rp54
sg8
I00
sg9
g50
ssS'electrocardiographies'
p55
(dp56
g3
g4
((lp57
tp58
Rp59
sg8
I00
sg9
g55
ssS'photolithographically'
p60
(dp61
g3
g4
((lp62
tp63
Rp64
sg8
I00
sg9
g60
ssS'immunoelectrophoreses'
p65
(dp66
g3
g4
((lp67
S'immunoelectrophoresis'
p68
atp69
Rp70
sg8
I00
sg9
g65
ssS'incomprehensibilities'
p71
(dp72
g3
g4
((lp73
tp74
Rp75
sg8
I00
sg9
g71
ssS'constitutionalization'
p76
(dp77
g3
g4
((lp78
tp79
Rp80
sg8
I00
sg9
g76
ssS'psychophysiologically'
p81
(dp82
g3
g4
((lp83
tp84
Rp85
sg8
I00
sg9
g81
ssS'overintellectualizing'
p86
(dp87
g3
g4
((lp88
tp89
Rp90
sg8
I00
sg9
g86
ssS'contemporaneousnesses'
p91
(dp92
g3
g4
((lp93
tp94
Rp95
sg8
I00
sg9
g91
ssS'phosphoglyceraldehyde'
p96
(dp97
g3
g4
((lp98
tp99
Rp100
sg8
I00
sg9
g96
ssS'multidimensionalities'
p101
(dp102
g3
g4
((lp103
tp104
Rp105
sg8
I00
sg9
g101
ssS'unexceptionablenesses'
p106
(dp107
g3
g4
((lp108
tp109
Rp110
sg8
I00
sg9
g106
ssS'immunocytochemistries'
p111
(dp112
g3
g4
((lp113
tp114
Rp115
sg8
I00
sg9
g111
ssS'indistinguishableness'
p116
(dp117
g3
g4
((lp118
tp119
Rp120
sg8
I00
sg9
g116
ssS'buckminsterfullerenes'
p121
(dp122
g3
g4
((lp123
tp124
Rp125
sg8
I00
sg9
g121
ssS'counterinterpretation'
p126
(dp127
g3
g4
((lp128
tp129
Rp130
sg8
I00
sg9
g126
ssS'antiferromagnetically'
p131
(dp132
g3
g4
((lp133
tp134
Rp135
sg8
I00
sg9
g131
ssS'otorhinolaryngologist'
p136
(dp137
g3
g4
((lp138
tp139
Rp140
sg8
I00
sg9
g136
ssS'electromyographically'
p141
(dp142
g3
g4
((lp143
tp144
Rp145
sg8
I00
sg9
g141
ssS'meningoencephalitides'
p146
(dp147
g3
g4
((lp148
tp149
Rp150
sg8
I00
sg9
g146
ssS'anthropomorphizations'
p151
(dp152
g3
g4
((lp153
tp154
Rp155
sg8
I00
sg9
g151
ssS'internationalizations'
p156
(dp157
g3
g4
((lp158
tp159
Rp160
sg8
I00
sg9
g156
ssS'institutionalizations'
p161
(dp162
g3
g4
((lp163
tp164
Rp165
sg8
I00
sg9
g161
ssS'neuroendocrinological'
p166
(dp167
g3
g4
((lp168
tp169
Rp170
sg8
I00
sg9
g166
ssS'interconvertibilities'
p171
(dp172
g3
g4
((lp173
tp174
Rp175
sg8
I00
sg9
g171
ssS'undemonstrativenesses'
p176
(dp177
g3
g4
((lp178
tp179
Rp180
sg8
I00
sg9
g176
ssS'neuroendocrinologists'
p181
(dp182
g3
g4
((lp183
tp184
Rp185
sg8
I00
sg9
g181
ssS'stereomicroscopically'
p186
(dp187
g3
g4
((lp188
tp189
Rp190
sg8
I00
sg9
g186
ssS'establishmentarianism'
p191
(dp192
g3
g4
((lp193
tp194
Rp195
sg8
I00
sg9
g191
ssS'interchangeablenesses'
p196
(dp197
g3
g4
((lp198
tp199
Rp200
sg8
I00
sg9
g196
ssS'unconstitutionalities'
p201
(dp202
g3
g4
((lp203
tp204
Rp205
sg8
I00
sg9
g201
ssS'pseudocholinesterases'
p206
(dp207
g3
g4
((lp208
tp209
Rp210
sg8
I00
sg9
g206
ssS'otorhinolaryngologies'
p211
(dp212
g3
g4
((lp213
tp214
Rp215
sg8
I00
sg9
g211
ssS'psychotherapeutically'
p216
(dp217
g3
g4
((lp218
tp219
Rp220
sg8
I00
sg9
g216
ssS'overcommercialization'
p221
(dp222
g3
g4
((lp223
tp224
Rp225
sg8
I00
sg9
g221
ssS'acetylcholinesterases'
p226
(dp227
g3
g4
((lp228
tp229
Rp230
sg8
I00
sg9
g226
ssS'compartmentalizations'
p231
(dp232
g3
g4
((lp233
tp234
Rp235
sg8
I00
sg9
g231
ssS'disadvantageousnesses'
p236
(dp237
g3
g4
((lp238
tp239
Rp240
sg8
I00
sg9
g236
ssS'disestablishmentarian'
p241
(dp242
g3
g4
((lp243
tp244
Rp245
sg8
I00
sg9
g241
ssS'adrenocorticotrophins'
p246
(dp247
g3
g4
((lp248
tp249
Rp250
sg8
I00
sg9
g246
ssS'hypercholesterolemias'
p251
(dp252
g3
g4
((lp253
tp254
Rp255
sg8
I00
sg9
g251
ssS'electroencephalograms'
p256
(dp257
g3
g4
((lp258
tp259
Rp260
sg8
I00
sg9
g256
ssS'psychopharmacologists'
p261
(dp262
g3
g4
((lp263
tp264
Rp265
sg8
I00
sg9
g261
ssS'countercountermeasure'
p266
(dp267
g3
g4
((lp268
tp269
Rp270
sg8
I00
sg9
g266
ssS'tetrahydrocannabinols'
p271
(dp272
g3
g4
((lp273
tp274
Rp275
sg8
I00
sg9
g271
ssS'dendrochronologically'
p276
(dp277
g3
g4
((lp278
tp279
Rp280
sg8
I00
sg9
g276
ssg68
(dp281
g3
g4
((lp282
g65
atp283
Rp284
sg8
I00
sg9
g68
ssS'electroretinographies'
p285
(dp286
g3
g4
((lp287
tp288
Rp289
sg8
I00
sg9
g285
ssS'electroencephalograph'
p290
(dp291
g3
g4
((lp292
tp293
Rp294
sg8
I00
sg9
g290
ssS'microminiaturizations'
p295
(dp296
g3
g4
((lp297
tp298
Rp299
sg8
I00
sg9
g295
ssS'nondenominationalisms'
p300
(dp301
g3
g4
((lp302
tp303
Rp304
sg8
I00
sg9
g300
ssS'straightforwardnesses'
p305
(dp306
g3
g4
((lp307
tp308
Rp309
sg8
I00
sg9
g305
ssS'immunoelectrophoretic'
p310
(dp311
g3
g4
((lp312
tp313
Rp314
sg8
I00
sg9
g310
ss.