(dp0
S'counterdemonstrations'
p1
(dp2
S'neighbors'
p3
c__builtin__
set
p4
((lp5
tp6
Rp7
sS'visited'
p8
I00
sS'word'
p9
g1
ssS'hyperaggressivenesses'
p10
(dp11
g3
g4
((lp12
tp13
Rp14
sg8
I00
sg9
g10
ssS'microminiaturizations'
p15
(dp16
g3
g4
((lp17
tp18
Rp19
sg8
I00
sg9
g15
ss.