(dp0
S'all'
p1
(dp2
S'neighbors'
p3
c__builtin__
set
p4
((lp5
S'ell'
p6
aS'aal'
p7
aS'ill'
p8
aS'ale'
p9
aS'alb'
p10
aS'ala'
p11
aS'ail'
p12
aS'awl'
p13
aS'alt'
p14
aS'als'
p15
aS'alp'
p16
atp17
Rp18
sS'visited'
p19
I00
sS'word'
p20
g1
ssS'pew'
p21
(dp22
g3
g4
((lp23
S'sew'
p24
aS'pow'
p25
aS'yew'
p26
aS'tew'
p27
aS'hew'
p28
aS'jew'
p29
aS'paw'
p30
aS'pet'
p31
aS'pep'
p32
aS'per'
p33
aS'pes'
p34
aS'few'
p35
aS'pen'
p36
aS'peh'
p37
aS'ped'
p38
aS'pee'
p39
aS'peg'
p40
aS'pea'
p41
aS'pec'
p42
aS'mew'
p43
aS'new'
p44
aS'dew'
p45
atp46
Rp47
sg19
I00
sg20
g21
ssS'rom'
p48
(dp49
g3
g4
((lp50
S'nom'
p51
aS'yom'
p52
aS'roc'
p53
aS'dom'
p54
aS'rob'
p55
aS'ram'
p56
aS'rod'
p57
aS'roe'
p58
aS'rum'
p59
aS'tom'
p60
aS'pom'
p61
aS'mom'
p62
aS'rem'
p63
aS'rim'
p64
aS'rot'
p65
aS'row'
p66
atp67
Rp68
sg19
I00
sg20
g48
ssS'ore'
p69
(dp70
g3
g4
((lp71
S'orc'
p72
aS'ole'
p73
aS'ope'
p74
aS'owe'
p75
aS'ose'
p76
aS'ort'
p77
aS'obe'
p78
aS'ors'
p79
aS'one'
p80
aS'ere'
p81
aS'oke'
p82
aS'are'
p83
aS'ire'
p84
aS'orb'
p85
aS'ode'
p86
aS'ora'
p87
atp88
Rp89
sg19
I00
sg20
g69
ssg32
(dp90
g3
g4
((lp91
S'pap'
p92
aS'hep'
p93
aS'yep'
p94
ag42
ag31
aS'rep'
p95
ag21
ag33
ag34
aS'pip'
p96
ag36
ag37
aS'pop'
p97
aS'cep'
p98
ag38
ag39
ag40
aS'pup'
p99
ag41
aS'kep'
p100
atp101
Rp102
sg19
I00
sg20
g32
ssS'edh'
p103
(dp104
g3
g4
((lp105
S'eth'
p106
atp107
Rp108
sg19
I00
sg20
g103
ssg9
(dp109
g3
g4
((lp110
S'ane'
p111
ag1
aS'ate'
p112
ag73
aS'ace'
p113
aS'aye'
p114
aS'age'
p115
ag10
ag11
aS'awe'
p116
ag83
aS'axe'
p117
aS'ave'
p118
ag14
ag15
ag16
aS'ape'
p119
atp120
Rp121
sg19
I00
sg20
g9
ssg10
(dp122
g3
g4
((lp123
g1
ag9
ag11
aS'arb'
p124
ag14
ag15
ag16
atp125
Rp126
sg19
I00
sg20
g10
ssg58
(dp127
g3
g4
((lp128
S'toe'
p129
aS'hoe'
p130
ag48
aS'voe'
p131
ag55
ag53
ag57
aS'doe'
p132
aS'foe'
p133
aS'joe'
p134
aS'woe'
p135
ag66
ag65
aS'rye'
p136
aS'rue'
p137
aS'ree'
p138
atp139
Rp140
sg19
I00
sg20
g58
ssg11
(dp141
g3
g4
((lp142
S'aba'
p143
ag1
aS'aha'
p144
aS'ana'
p145
aS'ama'
p146
ag9
ag10
aS'aga'
p147
aS'ava'
p148
aS'awa'
p149
ag14
ag15
ag16
atp150
Rp151
sg19
I00
sg20
g11
ssg33
(dp152
g3
g4
((lp153
S'par'
p154
aS'ser'
p155
aS'her'
p156
ag31
ag21
ag32
ag34
ag36
aS'fer'
p157
ag39
ag38
ag37
ag40
ag41
aS'pur'
p158
ag42
atp159
Rp160
sg19
I00
sg20
g33
ssg14
(dp161
g3
g4
((lp162
g1
aS'art'
p163
aS'ait'
p164
ag9
ag10
aS'apt'
p165
ag11
aS'ant'
p166
aS'att'
p167
aS'act'
p168
aS'aft'
p169
ag15
ag16
atp170
Rp171
sg19
I00
sg20
g14
ssg76
(dp172
g3
g4
((lp173
S'use'
p174
ag73
ag75
ag78
ag80
ag74
ag82
ag69
ag86
atp175
Rp176
sg19
I00
sg20
g76
ssg15
(dp177
g3
g4
((lp178
S'ass'
p179
ag1
aS'ars'
p180
aS'ads'
p181
ag9
ag10
aS'ais'
p182
ag11
aS'abs'
p183
aS'ays'
p184
aS'aas'
p185
aS'els'
p186
ag14
ag16
atp187
Rp188
sg19
I00
sg20
g15
ssg16
(dp189
g3
g4
((lp190
g1
aS'asp'
p191
ag9
ag10
ag11
aS'amp'
p192
ag14
ag15
atp193
Rp194
sg19
I00
sg20
g16
ssg66
(dp195
g3
g4
((lp196
S'wow'
p197
ag53
ag48
aS'cow'
p198
aS'raw'
p199
ag57
ag55
aS'jow'
p200
aS'mow'
p201
ag58
aS'bow'
p202
aS'how'
p203
aS'tow'
p204
aS'vow'
p205
aS'low'
p206
aS'sow'
p207
ag25
aS'yow'
p208
aS'now'
p209
ag65
aS'dow'
p210
atp211
Rp212
sg19
I00
sg20
g66
ssS'vet'
p213
(dp214
g3
g4
((lp215
S'het'
p216
aS'set'
p217
aS'jet'
p218
aS'met'
p219
ag31
aS'get'
p220
aS'ret'
p221
aS'vex'
p222
aS'veg'
p223
aS'fet'
p224
aS'vee'
p225
aS'let'
p226
aS'vat'
p227
aS'wet'
p228
aS'net'
p229
aS'tet'
p230
aS'yet'
p231
aS'bet'
p232
atp233
Rp234
sg19
I00
sg20
g213
ssS'auk'
p235
(dp236
g3
g4
((lp237
S'ask'
p238
aS'yuk'
p239
aS'ark'
p240
atp241
Rp242
sg19
I00
sg20
g235
ssg36
(dp243
g3
g4
((lp244
S'pin'
p245
aS'yen'
p246
aS'sen'
p247
aS'ten'
p248
aS'fen'
p249
ag21
ag32
aS'wen'
p250
ag33
ag34
ag37
ag38
ag39
aS'hen'
p251
ag40
ag41
aS'pan'
p252
ag42
aS'ken'
p253
aS'pun'
p254
aS'men'
p255
aS'gen'
p256
aS'ben'
p257
ag31
aS'den'
p258
atp259
Rp260
sg19
I00
sg20
g36
ssg222
(dp261
g3
g4
((lp262
S'dex'
p263
ag213
aS'hex'
p264
aS'rex'
p265
aS'sex'
p266
ag223
ag225
aS'kex'
p267
aS'lex'
p268
aS'vox'
p269
atp270
Rp271
sg19
I00
sg20
g222
ssg223
(dp272
g3
g4
((lp273
S'vug'
p274
ag213
aS'vig'
p275
aS'leg'
p276
aS'keg'
p277
aS'beg'
p278
ag222
aS'teg'
p279
aS'seg'
p280
ag225
ag40
aS'reg'
p281
atp282
Rp283
sg19
I00
sg20
g223
ssg225
(dp284
g3
g4
((lp285
g213
ag131
aS'cee'
p286
aS'fee'
p287
aS'lee'
p288
aS'wee'
p289
aS'vie'
p290
aS'zee'
p291
aS'nee'
p292
aS'tee'
p293
ag222
aS'bee'
p294
ag223
aS'see'
p295
aS'gee'
p296
aS'jee'
p297
ag39
aS'dee'
p298
ag138
atp299
Rp300
sg19
I00
sg20
g225
ssS'goy'
p301
(dp302
g3
g4
((lp303
S'boy'
p304
aS'goo'
p305
aS'toy'
p306
aS'gay'
p307
aS'coy'
p308
aS'god'
p309
aS'gey'
p310
aS'goa'
p311
aS'foy'
p312
aS'gob'
p313
aS'gox'
p314
aS'joy'
p315
aS'soy'
p316
aS'got'
p317
aS'guy'
p318
aS'hoy'
p319
aS'gor'
p320
atp321
Rp322
sg19
I00
sg20
g301
ssg55
(dp323
g3
g4
((lp324
S'lob'
p325
aS'sob'
p326
ag53
aS'hob'
p327
ag48
aS'rub'
p328
ag65
aS'kob'
p329
ag57
ag58
aS'nob'
p330
ag313
aS'yob'
p331
aS'job'
p332
aS'cob'
p333
aS'fob'
p334
aS'reb'
p335
aS'mob'
p336
aS'bob'
p337
aS'rib'
p338
ag66
atp339
Rp340
sg19
I00
sg20
g55
ssS'fly'
p341
(dp342
g3
g4
((lp343
S'fay'
p344
aS'sly'
p345
aS'flu'
p346
ag312
aS'ply'
p347
aS'fry'
p348
aS'fey'
p349
atp350
Rp351
sg19
I00
sg20
g341
ssS'fax'
p352
(dp353
g3
g4
((lp354
g344
aS'far'
p355
aS'fas'
p356
aS'fix'
p357
aS'wax'
p358
aS'fox'
p359
aS'fat'
p360
aS'pax'
p361
aS'sax'
p362
aS'fan'
p363
aS'rax'
p364
aS'zax'
p365
aS'max'
p366
aS'lax'
p367
aS'tax'
p368
aS'fag'
p369
aS'fad'
p370
atp371
Rp372
sg19
I00
sg20
g352
ssg344
(dp373
g3
g4
((lp374
S'say'
p375
aS'ray'
p376
aS'yay'
p377
aS'jay'
p378
aS'pay'
p379
ag312
aS'day'
p380
ag355
aS'way'
p381
ag348
aS'nay'
p382
ag349
ag352
ag307
aS'may'
p383
ag356
ag360
ag363
aS'lay'
p384
aS'kay'
p385
ag369
ag370
ag341
aS'cay'
p386
aS'bay'
p387
aS'hay'
p388
atp389
Rp390
sg19
I00
sg20
g344
ssg355
(dp391
g3
g4
((lp392
S'tar'
p393
aS'mar'
p394
aS'fir'
p395
ag154
aS'for'
p396
aS'jar'
p397
aS'yar'
p398
ag157
ag370
aS'var'
p399
aS'war'
p400
aS'oar'
p401
ag352
ag344
ag356
aS'gar'
p402
ag360
ag363
aS'fur'
p403
aS'ear'
p404
ag369
aS'lar'
p405
aS'bar'
p406
aS'car'
p407
atp408
Rp409
sg19
I00
sg20
g355
ssg356
(dp410
g3
g4
((lp411
g352
ag344
aS'bas'
p412
aS'tas'
p413
ag355
aS'gas'
p414
aS'mas'
p415
ag360
aS'kas'
p416
aS'pas'
p417
ag363
aS'ras'
p418
ag185
aS'vas'
p419
aS'has'
p420
aS'was'
p421
ag369
ag370
aS'las'
p422
atp423
Rp424
sg19
I00
sg20
g356
ssg360
(dp425
g3
g4
((lp426
S'tat'
p427
aS'rat'
p428
aS'sat'
p429
aS'qat'
p430
aS'pat'
p431
aS'fit'
p432
aS'eat'
p433
ag224
aS'oat'
p434
aS'wat'
p435
aS'hat'
p436
ag227
ag352
ag344
aS'mat'
p437
ag355
ag356
aS'gat'
p438
ag363
aS'kat'
p439
aS'lat'
p440
ag369
ag370
aS'bat'
p441
aS'cat'
p442
atp443
Rp444
sg19
I00
sg20
g360
ssS'umm'
p445
(dp446
g3
g4
((lp447
S'hmm'
p448
aS'ump'
p449
atp450
Rp451
sg19
I00
sg20
g445
ssg363
(dp452
g3
g4
((lp453
S'fun'
p454
ag352
ag344
aS'van'
p455
aS'gan'
p456
ag355
ag356
aS'nan'
p457
ag360
ag249
aS'ran'
p458
aS'can'
p459
ag252
aS'ban'
p460
aS'tan'
p461
aS'fon'
p462
aS'wan'
p463
aS'fin'
p464
ag369
ag370
aS'man'
p465
atp466
Rp467
sg19
I00
sg20
g363
ssS'rec'
p468
(dp469
g3
g4
((lp470
g265
aS'res'
p471
ag95
ag53
aS'rev'
p472
ag221
aS'rei'
p473
aS'sec'
p474
ag63
ag335
ag42
aS'ref'
p475
ag281
aS'red'
p476
ag138
atp477
Rp478
sg19
I00
sg20
g468
ssg369
(dp479
g3
g4
((lp480
S'rag'
p481
aS'zag'
p482
aS'sag'
p483
ag344
aS'nag'
p484
aS'bag'
p485
aS'wag'
p486
aS'hag'
p487
aS'fog'
p488
aS'fig'
p489
aS'jag'
p490
ag352
aS'dag'
p491
ag355
ag356
aS'lag'
p492
ag360
ag363
aS'mag'
p493
aS'gag'
p494
ag370
aS'fug'
p495
aS'tag'
p496
atp497
Rp498
sg19
I00
sg20
g369
ssg370
(dp499
g3
g4
((lp500
S'rad'
p501
aS'sad'
p502
aS'tad'
p503
aS'fed'
p504
aS'wad'
p505
aS'had'
p506
aS'fud'
p507
aS'lad'
p508
aS'pad'
p509
aS'fid'
p510
aS'dad'
p511
ag352
ag344
ag355
ag356
ag360
ag363
aS'mad'
p512
aS'gad'
p513
ag369
aS'bad'
p514
aS'cad'
p515
atp516
Rp517
sg19
I00
sg20
g370
ssS'dim'
p518
(dp519
g3
g4
((lp520
S'din'
p521
aS'mim'
p522
aS'nim'
p523
ag54
aS'did'
p524
aS'die'
p525
aS'dig'
p526
aS'dib'
p527
aS'vim'
p528
aS'aim'
p529
ag64
aS'dam'
p530
aS'dit'
p531
aS'dip'
p532
aS'him'
p533
aS'sim'
p534
aS'dis'
p535
atp536
Rp537
sg19
I00
sg20
g518
ssg521
(dp538
g3
g4
((lp539
g245
aS'win'
p540
aS'rin'
p541
aS'dun'
p542
aS'jin'
p543
aS'lin'
p544
aS'yin'
p545
aS'tin'
p546
aS'zin'
p547
aS'gin'
p548
ag464
aS'sin'
p549
aS'bin'
p550
aS'kin'
p551
aS'hin'
p552
ag518
aS'don'
p553
ag524
ag525
ag526
ag527
aS'ain'
p554
ag258
ag531
ag532
ag535
atp555
Rp556
sg19
I00
sg20
g521
ssg524
(dp557
g3
g4
((lp558
g511
ag518
ag521
aS'lid'
p559
aS'yid'
p560
ag525
aS'bid'
p561
ag526
aS'dud'
p562
aS'mid'
p563
ag527
aS'gid'
p564
aS'hid'
p565
ag510
ag531
aS'aid'
p566
aS'rid'
p567
aS'kid'
p568
ag532
ag535
atp569
Rp570
sg19
I00
sg20
g524
ssg525
(dp571
g3
g4
((lp572
S'pie'
p573
ag518
ag521
ag290
aS'lie'
p574
ag524
ag526
aS'due'
p575
ag527
ag132
aS'tie'
p576
aS'gie'
p577
aS'hie'
p578
aS'fie'
p579
ag531
aS'dye'
p580
ag532
ag298
ag535
atp581
Rp582
sg19
I00
sg20
g525
ssg526
(dp583
g3
g4
((lp584
S'wig'
p585
ag518
ag521
ag491
ag275
aS'jig'
p586
ag524
aS'big'
p587
aS'dog'
p588
ag527
aS'dug'
p589
aS'gig'
p590
aS'zig'
p591
ag489
ag525
ag531
aS'rig'
p592
aS'mig'
p593
aS'pig'
p594
ag532
ag535
atp595
Rp596
sg19
I00
sg20
g526
ssS'eve'
p597
(dp598
g3
g4
((lp599
S'eme'
p600
aS'eye'
p601
aS'eke'
p602
aS'ewe'
p603
ag81
ag118
atp604
Rp605
sg19
I00
sg20
g597
ssg527
(dp606
g3
g4
((lp607
g338
ag518
ag521
aS'mib'
p608
aS'jib'
p609
aS'lib'
p610
aS'dab'
p611
aS'sib'
p612
ag524
ag525
aS'dub'
p613
ag526
aS'bib'
p614
aS'fib'
p615
aS'nib'
p616
aS'gib'
p617
ag531
aS'deb'
p618
ag532
ag535
atp619
Rp620
sg19
I00
sg20
g527
ssS'gul'
p621
(dp622
g3
g4
((lp623
S'pul'
p624
aS'gun'
p625
aS'gum'
p626
aS'gal'
p627
aS'guv'
p628
aS'gut'
p629
ag318
aS'gel'
p630
atp631
Rp632
sg19
I00
sg20
g621
ssS'hyp'
p633
(dp634
g3
g4
((lp635
S'hip'
p636
ag93
aS'hup'
p637
aS'hop'
p638
aS'gyp'
p639
aS'hap'
p640
atp641
Rp642
sg19
I00
sg20
g633
ssg628
(dp643
g3
g4
((lp644
S'luv'
p645
ag625
ag626
ag621
ag629
ag318
atp646
Rp647
sg19
I00
sg20
g628
ssg629
(dp648
g3
g4
((lp649
S'mut'
p650
aS'cut'
p651
ag220
aS'nut'
p652
ag438
aS'tut'
p653
ag625
aS'but'
p654
ag621
aS'hut'
p655
aS'git'
p656
ag626
aS'jut'
p657
aS'put'
p658
ag317
ag318
aS'out'
p659
aS'rut'
p660
ag628
atp661
Rp662
sg19
I00
sg20
g629
ssg531
(dp663
g3
g4
((lp664
S'wit'
p665
aS'pit'
p666
aS'zit'
p667
ag656
ag432
aS'sit'
p668
aS'tit'
p669
aS'lit'
p670
aS'hit'
p671
aS'kit'
p672
aS'bit'
p673
aS'nit'
p674
ag518
ag521
ag524
ag525
ag526
ag527
ag164
ag532
aS'dot'
p675
ag535
atp676
Rp677
sg19
I00
sg20
g531
ssg318
(dp678
g3
g4
((lp679
S'buy'
p680
ag307
ag310
ag625
ag626
ag621
ag301
ag628
ag629
atp681
Rp682
sg19
I00
sg20
g318
ssg138
(dp683
g3
g4
((lp684
g136
ag291
ag58
ag293
ag295
ag265
ag287
ag289
ag471
ag95
ag292
ag472
ag221
ag473
ag63
ag335
ag39
ag475
ag281
ag476
ag225
ag286
ag288
ag297
ag137
ag296
ag468
ag294
ag298
atp685
Rp686
sg19
I00
sg20
g138
ssg532
(dp687
g3
g4
((lp688
g636
ag518
ag521
aS'kip'
p689
aS'zip'
p690
aS'gip'
p691
ag524
ag525
ag526
aS'tip'
p692
ag527
aS'dup'
p693
ag96
aS'sip'
p694
aS'dap'
p695
aS'rip'
p696
ag531
aS'lip'
p697
aS'nip'
p698
aS'yip'
p699
ag535
atp700
Rp701
sg19
I00
sg20
g532
ssS'ups'
p702
(dp703
g3
g4
((lp704
S'upo'
p705
aS'uns'
p706
aS'uts'
p707
aS'ops'
p708
atp709
Rp710
sg19
I00
sg20
g702
ssg535
(dp711
g3
g4
((lp712
S'sis'
p713
ag518
ag521
aS'his'
p714
ag524
ag525
ag526
ag527
aS'tis'
p715
aS'cis'
p716
aS'vis'
p717
aS'xis'
p718
aS'wis'
p719
ag182
aS'lis'
p720
ag531
aS'dos'
p721
aS'mis'
p722
aS'pis'
p723
ag532
aS'bis'
p724
atp725
Rp726
sg19
I00
sg20
g535
ssg624
(dp727
g3
g4
((lp728
g254
aS'pud'
p729
ag99
aS'pug'
p730
aS'pub'
p731
ag621
aS'pol'
p732
ag658
aS'pal'
p733
ag158
aS'pus'
p734
atp735
Rp736
sg19
I00
sg20
g624
ssS'tel'
p737
(dp738
g3
g4
((lp739
g248
aS'bel'
p740
aS'mel'
p741
aS'cel'
p742
aS'ted'
p743
ag293
ag279
aS'til'
p744
aS'eel'
p745
aS'del'
p746
aS'tea'
p747
ag27
aS'sel'
p748
ag230
ag630
atp749
Rp750
sg19
I00
sg20
g737
ssS'wab'
p751
(dp752
g3
g4
((lp753
S'nab'
p754
aS'kab'
p755
ag381
ag611
ag463
ag486
aS'sab'
p756
aS'wae'
p757
ag505
ag421
aS'lab'
p758
ag400
aS'web'
p759
aS'tab'
p760
ag358
aS'waw'
p761
aS'cab'
p762
ag435
aS'jab'
p763
aS'gab'
p764
aS'wap'
p765
atp766
Rp767
sg19
I00
sg20
g751
ssg248
(dp768
g3
g4
((lp769
g737
ag246
ag747
ag743
ag293
ag279
ag247
ag461
ag230
ag546
ag249
ag250
ag36
aS'ton'
p770
ag251
ag27
ag253
ag255
aS'tun'
p771
ag256
ag257
ag258
atp772
Rp773
sg19
I00
sg20
g248
ssS'caw'
p774
(dp775
g3
g4
((lp776
S'taw'
p777
ag199
aS'saw'
p778
ag30
aS'jaw'
p779
aS'yaw'
p780
aS'naw'
p781
ag761
aS'vaw'
p782
aS'haw'
p783
aS'maw'
p784
aS'daw'
p785
aS'law'
p786
ag386
ag198
ag407
aS'cap'
p787
ag442
ag459
aS'cam'
p788
ag762
ag515
atp789
Rp790
sg19
I00
sg20
g774
ssS'ods'
p791
(dp792
g3
g4
((lp793
g181
ag708
aS'oes'
p794
aS'ids'
p795
ag79
aS'oms'
p796
aS'ons'
p797
aS'odd'
p798
ag86
aS'ohs'
p799
atp800
Rp801
sg19
I00
sg20
g791
ssg743
(dp802
g3
g4
((lp803
S'med'
p804
ag504
aS'led'
p805
aS'zed'
p806
ag248
aS'wed'
p807
ag747
ag293
aS'bed'
p808
ag279
ag503
aS'tod'
p809
aS'ged'
p810
ag38
ag737
ag230
ag476
ag27
atp811
Rp812
sg19
I00
sg20
g743
ssS'ham'
p813
(dp814
g3
g4
((lp815
g56
aS'tam'
p816
ag487
aS'hah'
p817
aS'haj'
p818
aS'hao'
p819
ag506
aS'hae'
p820
aS'nam'
p821
aS'yam'
p822
ag388
aS'jam'
p823
aS'hum'
p824
ag640
aS'hem'
p825
ag420
ag436
aS'pam'
p826
ag783
aS'lam'
p827
ag530
ag448
aS'gam'
p828
ag533
ag788
aS'bam'
p829
atp830
Rp831
sg19
I00
sg20
g813
ssS'tug'
p832
(dp833
g3
g4
((lp834
S'tux'
p835
ag274
aS'hug'
p836
aS'jug'
p837
ag495
aS'tup'
p838
aS'tui'
p839
ag730
ag653
aS'rug'
p840
aS'tog'
p841
ag589
aS'mug'
p842
ag496
ag771
aS'lug'
p843
aS'tub'
p844
ag279
aS'bug'
p845
atp846
Rp847
sg19
I00
sg20
g832
ssg279
(dp848
g3
g4
((lp849
g737
ag841
ag248
ag276
ag277
ag747
ag743
ag293
ag832
ag278
ag280
ag223
ag496
ag40
ag230
ag281
ag27
atp850
Rp851
sg19
I00
sg20
g279
ssg45
(dp852
g3
g4
((lp853
g263
aS'dey'
p854
ag28
ag29
ag24
ag21
aS'dev'
p855
ag210
ag35
ag43
ag785
ag746
ag258
ag44
ag618
ag298
ag26
ag27
atp856
Rp857
sg19
I00
sg20
g45
ssg798
(dp858
g3
g4
((lp859
S'add'
p860
ag791
aS'old'
p861
ag86
aS'oud'
p862
atp863
Rp864
sg19
I00
sg20
g798
ssg86
(dp865
g3
g4
((lp866
g791
ag73
ag75
ag76
ag78
ag80
ag74
ag82
ag69
ag798
atp867
Rp868
sg19
I00
sg20
g86
ssg27
(dp869
g3
g4
((lp870
g24
ag777
ag737
ag29
ag248
ag204
ag747
ag21
ag743
ag293
ag45
ag35
ag43
ag28
ag44
ag279
ag230
ag26
atp871
Rp872
sg19
I00
sg20
g27
ssg143
(dp873
g3
g4
((lp874
g144
ag145
ag146
ag147
ag11
ag183
aS'aby'
p875
aS'abo'
p876
ag148
ag149
atp877
Rp878
sg19
I00
sg20
g143
ssS'sue'
p879
(dp880
g3
g4
((lp881
S'hue'
p882
aS'sub'
p883
aS'sun'
p884
aS'sum'
p885
ag575
aS'sae'
p886
ag137
ag295
aS'cue'
p887
aS'she'
p888
aS'suq'
p889
aS'sup'
p890
aS'kue'
p891
atp892
Rp893
sg19
I00
sg20
g879
ssg883
(dp894
g3
g4
((lp895
g879
ag326
aS'hub'
p896
ag328
ag756
ag613
ag890
ag731
ag612
aS'fub'
p897
aS'cub'
p898
ag889
ag884
aS'bub'
p899
ag844
aS'nub'
p900
ag885
atp901
Rp902
sg19
I00
sg20
g883
ssg12
(dp903
g3
g4
((lp904
g744
ag1
aS'oil'
p905
aS'mil'
p906
aS'nil'
p907
ag7
ag182
aS'air'
p908
ag529
ag554
aS'fil'
p909
ag164
ag566
ag13
atp910
Rp911
sg19
I00
sg20
g12
ssg591
(dp912
g3
g4
((lp913
g585
ag586
ag667
ag275
ag690
ag482
ag526
ag593
ag594
ag590
ag489
ag587
ag547
ag592
atp914
Rp915
sg19
I00
sg20
g591
ssg65
(dp916
g3
g4
((lp917
g48
ag55
ag53
ag57
ag58
ag428
ag221
ag66
aS'wot'
p918
aS'tot'
p919
aS'hot'
p920
aS'lot'
p921
ag317
aS'pot'
p922
aS'jot'
p923
aS'mot'
p924
aS'oot'
p925
aS'not'
p926
ag660
aS'cot'
p927
aS'bot'
p928
ag675
aS'sot'
p929
atp930
Rp931
sg19
I00
sg20
g65
ssg778
(dp932
g3
g4
((lp933
g24
ag777
aS'sal'
p934
aS'sac'
p935
ag756
ag483
ag886
ag502
ag199
ag375
ag362
ag207
aS'sap'
p936
aS'sau'
p937
ag429
ag30
ag779
ag780
ag781
ag761
ag782
ag783
ag784
ag785
ag786
ag774
atp938
Rp939
sg19
I00
sg20
g778
ssg292
(dp940
g3
g4
((lp941
g286
ag287
ag288
ag289
aS'nae'
p942
ag39
ag291
aS'neb'
p943
ag293
ag294
ag295
ag225
ag296
ag297
ag44
ag229
ag298
ag138
atp944
Rp945
sg19
I00
sg20
g292
ssg943
(dp946
g3
g4
((lp947
g754
ag759
ag616
ag292
ag330
ag335
ag44
ag618
ag900
ag229
atp948
Rp949
sg19
I00
sg20
g943
ssg876
(dp950
g3
g4
((lp951
S'ago'
p952
ag143
aS'azo'
p953
aS'avo'
p954
ag183
ag875
aS'ado'
p955
atp956
Rp957
sg19
I00
sg20
g876
ssg328
(dp958
g3
g4
((lp959
S'run'
p960
ag883
ag896
ag59
ag338
ag55
ag840
ag731
ag137
ag899
ag897
ag898
ag335
ag844
ag900
ag613
ag660
atp961
Rp962
sg19
I00
sg20
g328
ssg183
(dp963
g3
g4
((lp964
g179
ag143
ag180
ag181
ag182
ag876
ag185
ag875
ag15
ag184
atp965
Rp966
sg19
I00
sg20
g183
ssg889
(dp967
g3
g4
((lp968
g885
ag884
ag879
ag883
ag890
atp969
Rp970
sg19
I00
sg20
g889
ssg890
(dp971
g3
g4
((lp972
g879
ag694
ag883
aS'cup'
p973
ag838
ag884
ag885
aS'sop'
p974
ag637
ag889
aS'yup'
p975
ag693
ag936
ag99
atp976
Rp977
sg19
I00
sg20
g890
ssg875
(dp978
g3
g4
((lp979
g143
ag183
aS'any'
p980
ag876
atp981
Rp982
sg19
I00
sg20
g875
ssg891
(dp983
g3
g4
((lp984
g882
ag879
aS'kae'
p985
ag575
ag137
ag887
atp986
Rp987
sg19
I00
sg20
g891
ssg459
(dp988
g3
g4
((lp989
g465
ag386
ag455
ag457
ag463
ag458
ag407
ag787
ag774
ag442
ag456
ag363
ag788
ag460
ag762
ag461
aS'con'
p990
ag252
ag515
atp991
Rp992
sg19
I00
sg20
g459
ssS'lea'
p993
(dp994
g3
g4
((lp995
g805
ag288
ag276
aS'yea'
p996
aS'lei'
p997
aS'lek'
p998
aS'kea'
p999
ag226
aS'leu'
p1000
aS'lev'
p1001
ag747
ag268
aS'ley'
p1002
aS'lez'
p1003
ag41
aS'sea'
p1004
atp1005
Rp1006
sg19
I00
sg20
g993
ssg805
(dp1007
g3
g4
((lp1008
g806
ag804
ag743
ag559
ag504
ag807
ag38
ag476
ag993
ag288
ag276
ag508
ag997
ag998
ag226
ag1000
ag1001
ag810
ag268
ag1002
ag1003
ag808
atp1009
Rp1010
sg19
I00
sg20
g805
ssg788
(dp1011
g3
g4
((lp1012
g816
ag827
ag386
ag56
ag813
ag821
ag407
ag787
ag774
ag442
ag822
ag828
ag823
aS'cwm'
p1013
ag459
ag530
ag762
aS'cum'
p1014
ag829
ag826
ag515
atp1015
Rp1016
sg19
I00
sg20
g788
ssg276
(dp1017
g3
g4
((lp1018
g993
ag998
ag805
ag288
ag277
ag997
ag492
ag278
ag279
ag280
ag223
ag226
ag1000
ag1001
ag843
ag268
ag1002
ag1003
ag40
ag281
aS'log'
p1019
atp1020
Rp1021
sg19
I00
sg20
g276
ssS'mem'
p1022
(dp1023
g3
g4
((lp1024
g804
ag255
ag522
ag741
aS'fem'
p1025
ag219
ag43
ag62
ag63
aS'mum'
p1026
ag825
aS'gem'
p1027
atp1028
Rp1029
sg19
I00
sg20
g1022
ssg819
(dp1030
g3
g4
((lp1031
g817
ag818
aS'tao'
p1032
ag813
ag506
ag820
ag487
ag388
ag640
ag420
ag436
ag783
atp1033
Rp1034
sg19
I00
sg20
g819
ssg998
(dp1035
g3
g4
((lp1036
g993
ag805
ag288
ag276
ag997
ag226
ag1000
ag1001
aS'zek'
p1037
ag268
ag1002
ag1003
atp1038
Rp1039
sg19
I00
sg20
g998
ssg219
(dp1040
g3
g4
((lp1041
g217
ag230
ag231
ag216
ag650
ag213
ag218
ag31
ag221
ag224
ag228
ag229
ag804
ag437
ag220
ag1022
ag741
ag255
ag924
ag43
ag226
ag232
atp1042
Rp1043
sg19
I00
sg20
g219
ssg43
(dp1044
g3
g4
((lp1045
g24
ag804
ag28
ag29
ag784
ag35
ag1022
ag741
ag255
ag201
ag45
ag219
ag44
ag21
ag26
ag27
atp1046
Rp1047
sg19
I00
sg20
g43
ssg226
(dp1048
g3
g4
((lp1049
g217
ag440
ag230
ag231
ag216
ag213
ag218
ag31
ag220
ag221
ag670
ag224
ag921
ag228
ag229
ag993
ag805
ag288
ag276
ag997
ag998
ag219
ag1000
ag1001
ag268
ag1002
ag1003
ag232
atp1050
Rp1051
sg19
I00
sg20
g226
ssg1000
(dp1052
g3
g4
((lp1053
g993
ag805
ag288
ag276
ag997
ag998
aS'jeu'
p1054
aS'feu'
p1055
ag226
ag1001
ag268
ag1002
ag1003
atp1056
Rp1057
sg19
I00
sg20
g1000
ssg1001
(dp1058
g3
g4
((lp1059
g993
ag805
ag288
ag645
ag276
ag997
ag998
ag472
ag855
ag226
ag1000
ag268
ag1002
aS'lav'
p1060
ag1003
atp1061
Rp1062
sg19
I00
sg20
g1001
ssg268
(dp1063
g3
g4
((lp1064
g263
ag993
ag265
aS'lox'
p1065
ag805
ag288
ag276
aS'lux'
p1066
ag997
ag998
ag264
ag222
ag266
ag226
ag1000
ag1001
ag267
ag367
ag1002
ag1003
atp1067
Rp1068
sg19
I00
sg20
g268
ssg1002
(dp1069
g3
g4
((lp1070
S'key'
p1071
ag993
ag805
ag288
ag276
ag997
ag384
ag998
aS'hey'
p1072
ag854
aS'bey'
p1073
ag226
ag1000
ag1001
ag268
ag1003
ag310
ag349
atp1074
Rp1075
sg19
I00
sg20
g1002
ssg1003
(dp1076
g3
g4
((lp1077
g993
ag805
ag288
ag276
ag997
ag998
ag226
ag1000
ag1001
ag268
ag1002
aS'fez'
p1078
atp1079
Rp1080
sg19
I00
sg20
g1003
ssg618
(dp1081
g3
g4
((lp1082
g263
ag854
ag611
ag759
ag613
ag943
ag855
ag45
ag746
ag527
ag258
ag335
ag298
atp1083
Rp1084
sg19
I00
sg20
g618
ssS'box'
p1085
(dp1086
g3
g4
((lp1087
g304
ag359
ag269
aS'pox'
p1088
aS'bop'
p1089
aS'cox'
p1090
aS'bos'
p1091
ag928
ag202
ag314
aS'boo'
p1092
aS'boa'
p1093
ag337
aS'bod'
p1094
ag1065
aS'sox'
p1095
aS'bog'
p1096
atp1097
Rp1098
sg19
I00
sg20
g1085
ssg304
(dp1099
g3
g4
((lp1100
g1085
ag680
ag1089
ag315
ag1091
ag928
ag312
ag202
ag308
ag1073
ag301
ag319
ag306
ag1092
ag316
ag1093
ag337
ag387
ag1094
ag1096
atp1101
Rp1102
sg19
I00
sg20
g304
ssg1089
(dp1103
g3
g4
((lp1104
g1085
ag304
aS'mop'
p1105
aS'fop'
p1106
aS'wop'
p1107
aS'bap'
p1108
aS'cop'
p1109
aS'top'
p1110
ag1091
ag928
aS'kop'
p1111
ag97
ag202
ag974
aS'lop'
p1112
ag638
ag1092
ag1093
ag337
ag1094
ag1096
atp1113
Rp1114
sg19
I00
sg20
g1089
ssg602
(dp1115
g3
g4
((lp1116
g600
ag601
ag597
ag603
ag81
ag82
aS'uke'
p1117
atp1118
Rp1119
sg19
I00
sg20
g602
ssg1091
(dp1120
g3
g4
((lp1121
g1085
ag304
aS'cos'
p1122
ag412
ag1089
aS'bus'
p1123
aS'kos'
p1124
ag928
aS'bys'
p1125
aS'wos'
p1126
ag202
aS'mos'
p1127
aS'sos'
p1128
ag721
ag1092
ag1093
ag337
aS'nos'
p1129
ag1094
ag724
ag1096
atp1130
Rp1131
sg19
I00
sg20
g1091
ssg928
(dp1132
g3
g4
((lp1133
g922
ag929
ag65
ag918
ag919
ag920
ag921
ag317
ag923
ag654
ag924
ag925
ag926
ag673
ag1085
ag304
ag441
ag927
ag1089
ag1091
ag202
ag232
ag1092
ag1093
ag337
ag1094
ag675
ag1096
atp1134
Rp1135
sg19
I00
sg20
g928
ssg202
(dp1136
g3
g4
((lp1137
g25
ag205
ag207
ag66
ag197
ag204
ag203
ag206
ag208
ag200
ag201
ag209
ag1085
ag304
ag198
ag1089
ag1091
ag928
ag1092
ag1093
ag337
ag1094
ag210
ag1096
atp1138
Rp1139
sg19
I00
sg20
g202
ssg1092
(dp1140
g3
g4
((lp1141
g1085
aS'bio'
p1142
ag305
aS'noo'
p1143
ag304
ag1089
ag1091
ag928
aS'loo'
p1144
ag202
aS'bro'
p1145
aS'woo'
p1146
aS'moo'
p1147
aS'too'
p1148
ag1093
ag337
aS'zoo'
p1149
ag1094
aS'coo'
p1150
ag1096
atp1151
Rp1152
sg19
I00
sg20
g1092
ssg1093
(dp1153
g3
g4
((lp1154
g1085
ag304
ag1091
aS'zoa'
p1155
ag1089
ag311
aS'baa'
p1156
ag928
ag202
aS'koa'
p1157
ag1092
ag337
ag1094
aS'moa'
p1158
aS'bra'
p1159
ag1096
atp1160
Rp1161
sg19
I00
sg20
g1093
ssg337
(dp1162
g3
g4
((lp1163
g326
ag55
ag325
ag327
ag329
ag331
ag313
ag334
ag614
ag330
ag332
ag899
ag336
ag1085
ag304
ag1089
ag1091
ag928
ag202
ag333
ag1092
ag1093
ag1094
ag1096
atp1164
Rp1165
sg19
I00
sg20
g337
ssg1094
(dp1166
g3
g4
((lp1167
S'sod'
p1168
ag57
aS'pod'
p1169
aS'hod'
p1170
ag309
aS'yod'
p1171
ag809
aS'nod'
p1172
ag561
aS'bud'
p1173
aS'mod'
p1174
ag1085
ag304
ag1089
ag1091
ag928
ag808
ag202
ag514
aS'cod'
p1175
ag1092
ag1093
ag337
ag1096
atp1176
Rp1177
sg19
I00
sg20
g1094
ssg1096
(dp1178
g3
g4
((lp1179
g278
aS'hog'
p1180
ag1019
ag488
aS'wog'
p1181
ag841
ag587
aS'nog'
p1182
aS'jog'
p1183
aS'mog'
p1184
ag845
ag1085
ag304
ag1089
ag1091
ag928
ag588
ag202
ag485
aS'cog'
p1185
ag1092
ag1093
ag337
ag1094
atp1186
Rp1187
sg19
I00
sg20
g1096
ssg585
(dp1188
g3
g4
((lp1189
g586
ag275
ag486
ag587
ag526
ag593
ag594
ag590
ag591
ag665
ag719
ag489
ag540
ag592
ag1181
aS'wiz'
p1190
atp1191
Rp1192
sg19
I00
sg20
g585
ssS'via'
p1193
(dp1194
g3
g4
((lp1195
g275
ag290
aS'pia'
p1196
ag528
ag717
aS'ria'
p1197
atp1198
Rp1199
sg19
I00
sg20
g1193
ssg295
(dp1200
g3
g4
((lp1201
g24
ag217
ag155
ag291
ag293
ag886
ag266
ag280
ag474
ag1004
ag247
ag748
aS'sei'
p1202
ag879
ag287
ag289
ag292
ag225
ag297
ag39
ag138
ag286
ag288
ag296
ag294
ag888
ag298
atp1203
Rp1204
sg19
I00
sg20
g295
ssg275
(dp1205
g3
g4
((lp1206
g585
ag586
ag1193
ag290
ag587
ag526
ag717
ag591
ag593
ag594
ag590
ag223
ag489
ag592
ag528
ag274
atp1207
Rp1208
sg19
I00
sg20
g275
ssS'tau'
p1209
(dp1210
g3
g4
((lp1211
g427
aS'tav'
p1212
ag777
aS'tap'
p1213
ag393
ag413
ag368
ag503
aS'tae'
p1214
ag496
ag937
ag760
ag816
ag461
ag1032
aS'eau'
p1215
aS'taj'
p1216
aS'vau'
p1217
atp1218
Rp1219
sg19
I00
sg20
g1209
ssg540
(dp1220
g3
g4
((lp1221
g585
ag245
ag541
ag665
ag719
ag1190
ag463
ag543
ag544
ag545
ag250
ag546
aS'won'
p1222
ag547
ag548
ag464
ag549
ag550
ag551
ag552
ag521
ag554
aS'wyn'
p1223
atp1224
Rp1225
sg19
I00
sg20
g540
ssS'brr'
p1226
(dp1227
g3
g4
((lp1228
g1145
aS'bur'
p1229
ag406
aS'err'
p1230
ag1159
atp1231
Rp1232
sg19
I00
sg20
g1226
ssg165
(dp1233
g3
g4
((lp1234
S'opt'
p1235
ag163
ag164
ag166
ag167
ag168
ag169
ag14
ag119
atp1236
Rp1237
sg19
I00
sg20
g165
ssg528
(dp1238
g3
g4
((lp1239
g518
ag1193
ag522
ag275
ag523
ag290
ag529
ag717
ag64
ag533
ag534
atp1240
Rp1241
sg19
I00
sg20
g528
ssg1145
(dp1242
g3
g4
((lp1243
g1142
aS'pro'
p1244
aS'fro'
p1245
ag1226
ag1092
ag1159
atp1246
Rp1247
sg19
I00
sg20
g1145
ssg658
(dp1248
g3
g4
((lp1249
g652
ag666
ag659
ag650
ag651
ag431
ag31
ag158
ag734
ag922
ag624
ag254
ag729
ag730
ag653
ag731
ag655
ag654
ag657
ag99
ag660
aS'pht'
p1250
ag629
atp1251
Rp1252
sg19
I00
sg20
g658
ssg777
(dp1253
g3
g4
((lp1254
g427
ag1209
ag1212
ag1213
ag393
ag413
ag368
ag503
ag1214
ag496
ag760
ag816
ag461
ag1032
ag778
ag1216
ag27
ag30
ag779
ag780
ag204
ag781
ag761
ag782
ag783
ag784
ag785
ag786
ag199
ag774
atp1255
Rp1256
sg19
I00
sg20
g777
ssg719
(dp1257
g3
g4
((lp1258
g585
ag713
ag714
ag540
ag182
ag715
ag716
ag717
ag665
ag1190
ag1126
ag720
ag718
ag722
ag723
ag421
ag724
ag535
atp1259
Rp1260
sg19
I00
sg20
g719
ssg1190
(dp1261
g3
g4
((lp1262
g585
aS'fiz'
p1263
ag540
ag665
ag719
aS'biz'
p1264
atp1265
Rp1266
sg19
I00
sg20
g1190
ssg1159
(dp1267
g3
g4
((lp1268
g1226
ag1145
aS'era'
p1269
ag1156
ag1093
ag87
atp1270
Rp1271
sg19
I00
sg20
g1159
ssg119
(dp1272
g3
g4
((lp1273
g111
ag112
ag113
ag114
ag115
ag9
ag165
ag74
ag83
ag117
ag118
ag116
atp1274
Rp1275
sg19
I00
sg20
g119
ssg504
(dp1276
g3
g4
((lp1277
g806
ag743
ag287
ag807
ag249
ag1025
aS'feh'
p1278
ag35
ag224
ag1055
ag157
ag510
ag38
ag1078
ag476
ag349
ag804
ag805
ag810
ag370
ag808
ag507
atp1279
Rp1280
sg19
I00
sg20
g504
ssg287
(dp1281
g3
g4
((lp1282
g1025
ag291
ag293
ag295
ag504
ag289
ag35
ag249
ag292
ag1278
ag133
ag224
ag1055
ag157
ag579
ag39
ag1078
ag138
ag225
ag286
ag288
ag297
ag296
ag294
ag349
ag298
atp1283
Rp1284
sg19
I00
sg20
g287
ssg601
(dp1285
g3
g4
((lp1286
g600
aS'lye'
p1287
ag114
aS'tye'
p1288
ag602
ag136
ag597
ag603
ag81
aS'wye'
p1289
ag580
aS'bye'
p1290
aS'pye'
p1291
atp1292
Rp1293
sg19
I00
sg20
g601
ssg690
(dp1294
g3
g4
((lp1295
g636
ag667
ag694
ag691
ag689
ag692
ag696
ag591
ag96
ag697
ag699
ag547
ag698
ag532
aS'zap'
p1296
atp1297
Rp1298
sg19
I00
sg20
g690
ssg249
(dp1299
g3
g4
((lp1300
g248
ag246
ag250
ag247
ag504
ag287
ag1025
ag224
ag1278
ag256
ag35
ag36
ag1055
ag157
ag462
ag464
ag349
ag253
ag255
ag363
ag251
ag257
ag1078
ag258
ag454
atp1301
Rp1302
sg19
I00
sg20
g249
ssS'chi'
p1303
(dp1304
g3
g4
((lp1305
S'khi'
p1306
aS'phi'
p1307
aS'ghi'
p1308
atp1309
Rp1310
sg19
I00
sg20
g1303
ssg1025
(dp1311
g3
g4
((lp1312
g504
ag287
ag249
ag1278
ag35
ag224
ag1055
ag157
ag63
ag825
ag1078
ag1022
ag1027
ag349
atp1313
Rp1314
sg19
I00
sg20
g1025
ssg825
(dp1315
g3
g4
((lp1316
g216
ag28
ag93
ag813
ag156
aS'hes'
p1317
ag1022
ag824
ag1025
ag264
ag1072
ag448
ag63
ag251
aS'heh'
p1318
ag533
ag1027
atp1319
Rp1320
sg19
I00
sg20
g825
ssg1278
(dp1321
g3
g4
((lp1322
S'yeh'
p1323
ag504
ag287
ag1318
ag249
aS'foh'
p1324
ag1025
ag35
ag224
ag1055
ag157
ag37
ag1078
ag349
atp1325
Rp1326
sg19
I00
sg20
g1278
ssg35
(dp1327
g3
g4
((lp1328
g24
ag504
ag287
ag29
ag249
ag1025
ag43
ag1278
ag45
ag224
ag1055
ag157
ag44
ag28
ag27
ag1078
ag21
ag26
ag349
atp1329
Rp1330
sg19
I00
sg20
g35
ssg224
(dp1331
g3
g4
((lp1332
g217
ag221
ag230
ag231
ag216
ag504
ag287
ag218
ag249
ag1025
ag1278
ag35
ag1055
ag157
ag228
ag229
ag1078
ag349
ag220
ag213
ag360
ag219
ag226
ag432
ag31
ag232
atp1333
Rp1334
sg19
I00
sg20
g224
ssg1055
(dp1335
g3
g4
((lp1336
S'fou'
p1337
ag504
ag287
ag1054
ag249
ag1025
ag346
ag1278
ag35
ag224
ag157
ag1000
ag1078
ag349
atp1338
Rp1339
sg19
I00
sg20
g1055
ssg157
(dp1340
g3
g4
((lp1341
g395
ag504
ag287
ag403
ag156
ag396
ag35
ag249
ag1025
ag1278
ag155
ag355
ag224
ag1055
ag33
ag1078
ag349
atp1342
Rp1343
sg19
I00
sg20
g157
ssg547
(dp1344
g3
g4
((lp1345
g550
ag521
ag690
ag245
ag543
ag540
ag544
ag545
ag667
ag541
ag591
ag546
ag554
ag551
ag548
ag464
ag549
ag552
atp1346
Rp1347
sg19
I00
sg20
g547
ssg734
(dp1348
g3
g4
((lp1349
g624
ag254
ag417
aS'mus'
p1350
ag729
ag1123
ag730
aS'nus'
p1351
ag731
ag34
aS'jus'
p1352
ag658
ag723
ag99
ag158
atp1353
Rp1354
sg19
I00
sg20
g734
ssg1078
(dp1355
g3
g4
((lp1356
g504
ag287
ag1263
ag249
ag1025
ag1278
ag35
ag224
ag1055
ag157
ag1003
ag349
atp1357
Rp1358
sg19
I00
sg20
g1078
ssg184
(dp1359
g3
g4
((lp1360
g179
ag180
ag181
ag114
ag1125
ag182
ag183
ag185
ag15
atp1361
Rp1362
sg19
I00
sg20
g184
ssg349
(dp1363
g3
g4
((lp1364
g341
ag854
ag504
ag287
ag249
ag1055
ag310
ag1025
ag312
ag1278
ag1072
ag35
ag224
ag344
ag157
ag1071
ag1002
ag348
ag1073
ag1078
atp1365
Rp1366
sg19
I00
sg20
g349
ssg1155
(dp1367
g3
g4
((lp1368
g1157
ag1093
ag1158
ag311
ag1149
atp1369
Rp1370
sg19
I00
sg20
g1155
ssS'ooh'
p1371
(dp1372
g3
g4
((lp1373
g1324
aS'noh'
p1374
aS'poh'
p1375
ag925
atp1376
Rp1377
sg19
I00
sg20
g1371
ssg925
(dp1378
g3
g4
((lp1379
g1235
ag923
ag927
ag918
ag77
ag928
ag1371
ag919
ag924
ag920
ag921
ag929
aS'oft'
p1380
ag926
ag317
ag922
ag65
ag434
ag675
ag659
atp1381
Rp1382
sg19
I00
sg20
g925
ssS'ulu'
p1383
(dp1384
g3
g4
((lp1385
g346
atp1386
Rp1387
sg19
I00
sg20
g1383
ssg506
(dp1388
g3
g4
((lp1389
g501
ag502
ag503
ag817
ag818
ag813
ag819
ag505
ag820
ag487
ag388
ag509
ag640
ag420
ag436
ag783
ag511
ag508
ag1170
ag565
ag512
ag513
ag370
ag514
ag515
atp1390
Rp1391
sg19
I00
sg20
g506
ssg263
(dp1392
g3
g4
((lp1393
g854
ag265
ag264
ag855
ag45
ag746
ag222
ag258
ag267
ag268
ag618
ag266
ag298
atp1394
Rp1395
sg19
I00
sg20
g263
ssg854
(dp1396
g3
g4
((lp1397
g263
aS'dry'
p1398
ag1071
ag310
ag1072
ag855
ag45
ag1073
ag746
ag258
ag298
ag1002
ag618
ag380
ag349
atp1399
Rp1400
sg19
I00
sg20
g854
ssg386
(dp1401
g3
g4
((lp1402
g787
ag375
ag442
ag376
ag377
ag378
ag379
ag388
ag381
ag382
ag344
ag307
ag383
ag384
ag385
ag380
ag308
ag407
aS'cry'
p1403
ag774
ag387
ag459
ag788
ag762
ag515
atp1404
Rp1405
sg19
I00
sg20
g386
ssg1230
(dp1406
g3
g4
((lp1407
S'ers'
p1408
ag1226
ag81
aS'erg'
p1409
ag1269
aS'ern'
p1410
ag404
atp1411
Rp1412
sg19
I00
sg20
g1230
ssg1408
(dp1413
g3
g4
((lp1414
g180
aS'ess'
p1415
ag1230
aS'efs'
p1416
aS'ens'
p1417
ag79
ag81
ag1409
ag1269
aS'ems'
p1418
ag186
ag1410
atp1419
Rp1420
sg19
I00
sg20
g1408
ssg407
(dp1421
g3
g4
((lp1422
g393
ag154
aS'cur'
p1423
ag397
ag398
ag401
ag399
ag400
ag394
ag355
ag402
ag404
ag405
ag386
aS'cor'
p1424
ag406
ag787
ag774
ag442
ag459
ag788
ag762
ag515
atp1425
Rp1426
sg19
I00
sg20
g407
ssg787
(dp1427
g3
g4
((lp1428
g1213
aS'rap'
p1429
ag936
ag1296
ag92
ag973
aS'yap'
p1430
aS'nap'
p1431
ag640
ag765
aS'map'
p1432
aS'gap'
p1433
ag695
ag98
aS'lap'
p1434
ag1109
ag386
ag1108
ag407
ag774
ag442
ag459
ag788
ag762
ag515
atp1435
Rp1436
sg19
I00
sg20
g787
ssg346
(dp1437
g3
g4
((lp1438
g341
ag1337
ag1055
ag1383
atp1439
Rp1440
sg19
I00
sg20
g346
ssg855
(dp1441
g3
g4
((lp1442
g263
ag854
ag1001
ag472
ag45
ag746
ag258
ag618
ag298
atp1443
Rp1444
sg19
I00
sg20
g855
ssg442
(dp1445
g3
g4
((lp1446
g427
ag428
ag429
ag430
ag651
ag431
ag434
ag435
ag436
ag227
ag437
ag438
ag386
ag360
ag439
ag440
ag433
ag441
ag927
ag407
ag787
ag774
ag459
ag788
ag762
ag515
atp1447
Rp1448
sg19
I00
sg20
g442
ssg81
(dp1449
g3
g4
((lp1450
g600
ag601
ag1230
ag1408
ag602
ag597
ag603
ag1409
ag83
ag1410
ag69
ag84
ag1269
atp1451
Rp1452
sg19
I00
sg20
g81
ssg1409
(dp1453
g3
g4
((lp1454
g1230
aS'eng'
p1455
ag1408
ag81
ag1269
ag1410
aS'egg'
p1456
atp1457
Rp1458
sg19
I00
sg20
g1409
ssg746
(dp1459
g3
g4
((lp1460
g263
ag854
ag737
aS'dol'
p1461
ag740
aS'dal'
p1462
ag741
ag742
ag855
ag45
ag745
ag258
ag618
ag748
ag298
ag630
atp1463
Rp1464
sg19
I00
sg20
g746
ssg1269
(dp1465
g3
g4
((lp1466
g1230
ag1408
aS'eta'
p1467
ag81
ag1409
ag1410
ag1159
ag87
atp1468
Rp1469
sg19
I00
sg20
g1269
ssg258
(dp1470
g3
g4
((lp1471
g263
ag854
ag521
ag256
ag257
ag248
ag542
ag253
ag249
ag251
ag250
ag855
ag45
ag36
ag746
ag255
ag247
ag246
ag553
ag618
ag298
atp1472
Rp1473
sg19
I00
sg20
g258
ssS'sky'
p1474
(dp1475
g3
g4
((lp1476
S'spy'
p1477
ag345
aS'shy'
p1478
ag375
aS'ska'
p1479
ag316
aS'ski'
p1480
aS'sty'
p1481
atp1482
Rp1483
sg19
I00
sg20
g1474
ssg762
(dp1484
g3
g4
((lp1485
g754
ag755
ag386
ag751
ag760
ag611
ag407
ag787
ag774
ag898
ag758
ag442
ag333
ag459
ag788
ag756
ag763
ag764
ag515
atp1486
Rp1487
sg19
I00
sg20
g762
ssg1410
(dp1488
g3
g4
((lp1489
g1230
ag1408
aS'urn'
p1490
aS'eon'
p1491
ag81
ag1409
ag1269
atp1492
Rp1493
sg19
I00
sg20
g1410
ssg298
(dp1494
g3
g4
((lp1495
g291
ag293
ag295
ag45
ag294
ag287
ag289
ag292
ag575
ag225
ag297
ag39
ag138
ag286
ag288
ag296
ag580
ag263
ag854
ag525
ag855
ag132
ag746
ag258
ag618
atp1496
Rp1497
sg19
I00
sg20
g298
ssg515
(dp1498
g3
g4
((lp1499
g501
ag502
ag503
ag505
ag506
aS'cud'
p1500
ag509
ag1175
ag511
ag508
ag512
ag513
ag370
ag386
ag407
ag787
ag774
ag442
ag514
ag459
ag788
ag762
atp1501
Rp1502
sg19
I00
sg20
g515
ssg427
(dp1503
g3
g4
((lp1504
g1209
ag1212
ag777
ag1213
ag393
ag413
ag368
ag503
ag1214
ag428
ag496
ag760
ag816
ag461
ag1032
ag230
ag1216
ag429
ag430
ag431
ag669
ag919
ag434
ag435
ag436
ag227
ag437
ag438
ag653
ag360
ag439
ag440
ag433
ag441
ag442
atp1505
Rp1506
sg19
I00
sg20
g427
ssg1477
(dp1507
g3
g4
((lp1508
g345
ag1478
ag1474
ag375
ag316
aS'spa'
p1509
ag1481
atp1510
Rp1511
sg19
I00
sg20
g1477
ssg1212
(dp1512
g3
g4
((lp1513
g427
ag1209
ag777
ag1213
ag393
ag413
ag368
ag503
ag1214
ag496
ag760
ag816
ag461
ag1032
aS'vav'
p1514
ag1060
ag1216
atp1515
Rp1516
sg19
I00
sg20
g1212
ssS'sri'
p1517
(dp1518
g3
g4
((lp1519
g1480
ag1202
atp1520
Rp1521
sg19
I00
sg20
g1517
ssg1213
(dp1522
g3
g4
((lp1523
g427
ag1209
ag1212
ag777
ag760
ag393
ag413
ag368
ag503
ag1214
ag496
ag1429
ag816
ag461
ag936
ag1216
ag92
ag1032
ag1110
ag692
ag1430
ag1431
ag1296
ag640
ag765
ag1432
ag838
ag1433
ag695
ag1434
ag1108
ag787
atp1524
Rp1525
sg19
I00
sg20
g1213
ssg393
(dp1526
g3
g4
((lp1527
g427
ag1209
ag1212
ag777
ag1213
ag413
ag368
ag503
ag1214
ag496
ag760
ag816
ag461
ag1032
ag1216
ag154
aS'tor'
p1528
ag397
ag398
ag401
ag399
ag400
ag394
ag355
ag402
ag404
ag405
ag406
ag407
atp1529
Rp1530
sg19
I00
sg20
g393
ssg413
(dp1531
g3
g4
((lp1532
g427
ag1209
ag1212
ag777
ag1213
ag393
ag368
ag503
ag1214
ag496
ag418
ag760
ag816
ag461
ag1032
ag1216
ag417
ag715
ag419
ag420
ag421
ag415
ag356
ag414
ag416
ag422
ag412
ag185
atp1533
Rp1534
sg19
I00
sg20
g413
ssg807
(dp1535
g3
g4
((lp1536
g804
ag504
ag805
ag806
ag289
ag759
aS'wud'
p1537
ag228
ag505
ag743
ag250
ag808
ag810
ag38
ag476
atp1538
Rp1539
sg19
I00
sg20
g807
ssg368
(dp1540
g3
g4
((lp1541
g427
ag1209
ag1212
ag777
ag1213
ag365
ag393
ag413
ag503
ag1214
ag496
ag760
ag816
ag461
ag1032
ag364
ag361
ag1216
ag358
ag835
ag352
ag366
ag367
ag362
atp1542
Rp1543
sg19
I00
sg20
g368
ssg503
(dp1544
g3
g4
((lp1545
g427
ag1209
ag501
ag777
ag1213
ag393
ag413
ag368
ag1212
ag502
ag1214
ag496
ag760
ag816
ag461
ag1032
ag1216
ag505
ag506
ag509
ag809
ag511
ag508
ag743
ag512
ag513
ag370
ag514
ag515
atp1546
Rp1547
sg19
I00
sg20
g503
ssg1214
(dp1548
g3
g4
((lp1549
g427
ag1209
ag1212
ag777
ag1213
ag393
ag413
ag368
ag293
ag886
ag503
ag496
ag760
ag816
ag461
ag1032
ag1216
ag942
ag757
ag820
ag576
ag129
ag985
ag1288
aS'mae'
p1550
aS'gae'
p1551
aS'the'
p1552
atp1553
Rp1554
sg19
I00
sg20
g1214
ssg496
(dp1555
g3
g4
((lp1556
g427
ag481
ag1212
ag777
ag1213
ag393
ag413
ag482
ag483
ag279
ag503
ag1214
ag760
ag816
ag461
ag1032
ag1216
ag484
ag486
ag487
ag490
ag841
ag491
ag368
ag492
ag493
ag494
ag369
ag832
ag1209
ag485
atp1557
Rp1558
sg19
I00
sg20
g496
ssg228
(dp1559
g3
g4
((lp1560
g216
ag759
ag213
ag217
ag289
ag218
ag807
ag31
ag918
ag220
ag250
ag221
ag219
ag224
ag665
ag226
ag229
ag435
ag230
ag231
ag232
atp1561
Rp1562
sg19
I00
sg20
g228
ssg760
(dp1563
g3
g4
((lp1564
g427
ag1209
ag1212
ag777
ag1213
ag393
ag413
ag756
ag368
ag503
ag1214
ag496
ag816
ag461
ag1032
ag1216
ag754
ag751
ag763
ag755
ag611
ag758
ag844
ag764
ag762
atp1565
Rp1566
sg19
I00
sg20
g760
ssg592
(dp1567
g3
g4
((lp1568
g585
ag586
ag275
ag481
ag587
ag526
ag840
ag593
ag594
ag590
ag591
ag541
ag64
ag489
ag696
aS'rif'
p1569
ag567
ag338
ag281
ag1197
atp1570
Rp1571
sg19
I00
sg20
g592
ssg1509
(dp1572
g3
g4
((lp1573
S'sha'
p1574
ag1479
ag1004
ag1477
atp1575
Rp1576
sg19
I00
sg20
g1509
ssg741
(dp1577
g3
g4
((lp1578
g804
ag255
ag737
ag906
ag740
ag219
ag1022
ag742
ag745
ag43
ag746
aS'mol'
p1579
ag748
ag630
atp1580
Rp1581
sg19
I00
sg20
g741
ssg1032
(dp1582
g3
g4
((lp1583
g427
ag1209
ag1212
ag777
ag1213
ag393
ag819
ag413
ag368
aS'two'
p1584
ag503
ag1214
ag496
aS'tho'
p1585
ag760
ag816
ag461
ag1216
ag1148
atp1586
Rp1587
sg19
I00
sg20
g1032
ssg461
(dp1588
g3
g4
((lp1589
g427
ag1209
ag1212
ag777
ag1213
ag393
ag413
ag458
ag368
ag503
ag1214
ag496
ag760
ag816
ag1032
ag1216
ag463
ag455
ag248
ag457
ag546
ag770
ag252
ag456
ag363
ag771
ag465
ag459
ag460
atp1590
Rp1591
sg19
I00
sg20
g461
ssg1216
(dp1592
g3
g4
((lp1593
g427
ag1209
ag818
ag777
ag1213
ag393
ag413
ag368
aS'raj'
p1594
ag1212
ag503
ag1214
ag496
ag760
ag816
ag461
ag1032
atp1595
Rp1596
sg19
I00
sg20
g1216
ssg713
(dp1597
g3
g4
((lp1598
S'sir'
p1599
ag714
ag715
ag668
aS'six'
p1600
ag716
ag717
ag182
ag724
aS'sic'
p1601
ag612
ag1128
ag694
ag719
ag720
ag718
ag722
ag723
ag549
ag534
ag535
atp1602
Rp1603
sg19
I00
sg20
g713
ssg1180
(dp1604
g3
g4
((lp1605
g1181
ag1170
ag130
ag327
ag638
aS'hon'
p1606
ag1182
ag588
ag487
ag203
ag920
ag488
ag1019
ag1185
ag1183
ag836
ag319
ag1184
ag841
ag1096
atp1607
Rp1608
sg19
I00
sg20
g1180
ssg1170
(dp1609
g3
g4
((lp1610
g1180
ag130
ag327
ag1168
ag1606
ag309
ag1171
ag506
ag57
ag203
ag920
ag1172
ag565
ag1175
ag638
ag1169
ag1174
ag1094
ag809
ag319
atp1611
Rp1612
sg19
I00
sg20
g1170
ssg130
(dp1613
g3
g4
((lp1614
g1180
ag1170
ag327
ag203
ag1606
ag134
ag58
ag820
ag132
ag131
ag133
ag920
ag578
ag638
ag135
ag129
ag882
ag319
atp1615
Rp1616
sg19
I00
sg20
g130
ssS'end'
p1617
(dp1618
g3
g4
((lp1619
S'and'
p1620
ag1417
aS'eld'
p1621
ag1455
atp1622
Rp1623
sg19
I00
sg20
g1617
ssg1455
(dp1624
g3
g4
((lp1625
g1409
ag1456
ag1417
ag1617
atp1626
Rp1627
sg19
I00
sg20
g1455
ssg1606
(dp1628
g3
g4
((lp1629
g1180
ag1170
ag130
ag327
aS'yon'
p1630
aS'ion'
p1631
aS'hun'
p1632
ag1491
aS'son'
p1633
ag203
ag920
ag1222
ag770
aS'mon'
p1634
ag638
ag553
ag462
ag319
ag251
ag552
ag990
atp1635
Rp1636
sg19
I00
sg20
g1606
ssg269
(dp1637
g3
g4
((lp1638
g1085
ag131
ag1088
ag1090
ag359
ag222
ag205
ag314
ag1095
ag1065
atp1639
Rp1640
sg19
I00
sg20
g269
ssS'aff'
p1641
(dp1642
g3
g4
((lp1643
g169
aS'iff'
p1644
aS'off'
p1645
aS'eff'
p1646
aS'arf'
p1647
atp1648
Rp1649
sg19
I00
sg20
g1641
ssg136
(dp1650
g3
g4
((lp1651
g601
ag114
ag1288
ag58
aS'rya'
p1652
ag1287
ag1289
ag580
ag1290
ag1291
ag137
ag138
atp1653
Rp1654
sg19
I00
sg20
g136
ssg239
(dp1655
g3
g4
((lp1656
S'yum'
p1657
ag235
aS'yok'
p1658
aS'yak'
p1659
ag975
atp1660
Rp1661
sg19
I00
sg20
g239
ssS'ivy'
p1662
(dp1663
g3
g4
((lp1664
S'icy'
p1665
atp1666
Rp1667
sg19
I00
sg20
g1662
ssg1601
(dp1668
g3
g4
((lp1669
g713
ag1599
ag694
ag668
ag935
aS'pic'
p1670
ag1600
ag612
aS'hic'
p1671
ag474
ag549
ag534
aS'tic'
p1672
atp1673
Rp1674
sg19
I00
sg20
g1601
ssg203
(dp1675
g3
g4
((lp1676
g25
ag205
ag207
ag66
ag1180
ag1170
ag130
ag327
ag1606
ag197
ag204
ag920
ag206
ag638
ag208
ag319
ag200
ag201
ag28
ag209
ag198
ag202
ag783
ag210
atp1677
Rp1678
sg19
I00
sg20
g203
ssg920
(dp1679
g3
g4
((lp1680
g922
ag929
ag923
ag65
ag216
ag1180
ag1170
ag130
ag327
ag1606
ag918
ag919
ag203
ag921
ag317
ag436
ag319
ag671
ag638
ag924
ag655
ag925
ag926
ag927
ag928
ag675
atp1681
Rp1682
sg19
I00
sg20
g920
ssg1417
(dp1683
g3
g4
((lp1684
g706
ag1617
ag1455
ag1408
ag1416
aS'ins'
p1685
ag1415
ag1418
ag797
ag186
atp1686
Rp1687
sg19
I00
sg20
g1417
ssg638
(dp1688
g3
g4
((lp1689
g97
ag1107
ag974
ag1180
ag1170
ag130
ag327
ag1606
ag1110
ag920
ag203
ag1112
ag93
ag640
ag1111
ag319
ag636
ag1105
ag637
ag1106
ag1109
ag1089
ag633
atp1690
Rp1691
sg19
I00
sg20
g638
ssg169
(dp1692
g3
g4
((lp1693
g163
ag164
ag1641
aS'eft'
p1694
ag165
ag166
ag167
ag1380
ag168
ag14
atp1695
Rp1696
sg19
I00
sg20
g169
ssg549
(dp1697
g3
g4
((lp1698
g545
ag245
ag540
ag1633
ag541
ag247
ag713
ag1599
ag694
ag668
ag543
ag884
ag544
ag1600
ag1601
ag612
ag546
ag547
ag548
ag464
ag534
ag550
aS'syn'
p1699
ag551
ag552
ag521
ag554
atp1700
Rp1701
sg19
I00
sg20
g549
ssg534
(dp1702
g3
g4
((lp1703
g713
ag518
ag694
ag522
ag668
ag612
ag1600
ag885
ag523
ag549
ag1601
ag529
ag64
ag1599
ag528
ag533
atp1704
Rp1705
sg19
I00
sg20
g534
ssg319
(dp1706
g3
g4
((lp1707
g304
ag1170
ag130
ag327
ag1180
ag1606
ag315
ag312
ag1072
ag203
ag920
ag306
ag301
ag388
ag638
ag316
ag308
atp1708
Rp1709
sg19
I00
sg20
g319
ssg1287
(dp1710
g3
g4
((lp1711
g574
ag601
ag288
ag114
ag1288
ag136
ag1289
ag580
ag1290
ag1291
atp1712
Rp1713
sg19
I00
sg20
g1287
ssg827
(dp1714
g3
g4
((lp1715
g56
ag816
ag813
ag821
ag822
ag823
ag826
ag508
ag530
ag492
ag758
aS'lac'
p1716
ag828
ag367
ag384
ag440
ag1060
ag786
ag1434
ag405
ag422
aS'lum'
p1717
ag788
ag829
atp1718
Rp1719
sg19
I00
sg20
g827
ssg415
(dp1720
g3
g4
((lp1721
g413
ag418
ag465
ag417
ag1350
ag1127
ag366
ag419
ag722
ag420
ag421
ag1432
ag394
ag437
ag784
ag383
ag356
ag414
ag416
aS'mac'
p1722
ag1550
ag512
ag493
ag422
ag412
ag185
atp1723
Rp1724
sg19
I00
sg20
g415
ssg394
(dp1725
g3
g4
((lp1726
g393
ag154
ag397
ag398
ag383
ag401
ag366
ag399
aS'mir'
p1727
ag400
ag1432
ag415
ag437
ag784
ag355
aS'mor'
p1728
ag402
ag1722
ag1550
ag512
ag493
ag404
ag405
ag465
ag406
ag407
atp1729
Rp1730
sg19
I00
sg20
g394
ssg594
(dp1731
g3
g4
((lp1732
g592
ag586
aS'pix'
p1733
ag1670
ag275
ag245
ag587
ag585
ag526
ag723
ag573
ag593
ag590
ag591
ag489
ag1196
ag96
ag730
ag40
ag666
aS'piu'
p1734
atp1735
Rp1736
sg19
I00
sg20
g594
ssg437
(dp1737
g3
g4
((lp1738
g427
ag428
ag429
ag650
ag431
ag434
ag435
ag436
ag227
ag1432
ag415
ag394
ag784
ag430
ag383
ag366
ag438
ag360
ag924
ag219
ag1722
ag1550
ag512
ag493
ag439
ag440
ag433
ag465
ag441
ag442
atp1739
Rp1740
sg19
I00
sg20
g437
ssg784
(dp1741
g3
g4
((lp1742
g777
ag199
ag778
ag30
ag779
ag780
ag781
ag761
ag782
ag783
ag1432
ag415
ag394
ag437
ag383
ag366
ag201
ag43
ag785
ag1550
ag512
ag493
ag786
ag465
ag774
ag1722
atp1743
Rp1744
sg19
I00
sg20
g784
ssg1599
(dp1745
g3
g4
((lp1746
g395
ag713
ag694
ag155
ag668
aS'kir'
p1747
ag1600
ag908
ag1601
ag612
ag1727
ag549
ag534
atp1748
Rp1749
sg19
I00
sg20
g1599
ssg508
(dp1750
g3
g4
((lp1751
g501
ag502
ag503
ag559
ag513
ag505
ag506
ag509
ag370
ag511
ag827
ag805
ag492
ag758
ag1716
ag367
ag512
ag440
ag1060
ag786
ag1434
ag405
ag422
ag514
ag515
ag384
atp1752
Rp1753
sg19
I00
sg20
g508
ssg366
(dp1754
g3
g4
((lp1755
g1432
ag352
ag394
ag437
ag784
ag361
ag383
ag368
ag415
aS'mix'
p1756
ag1722
ag362
ag367
ag512
ag493
ag358
ag1550
ag365
ag364
ag465
atp1757
Rp1758
sg19
I00
sg20
g366
ssg492
(dp1759
g3
g4
((lp1760
g481
ag482
ag483
ag494
ag496
ag484
ag1019
ag486
ag487
ag843
ag490
ag827
ag491
ag276
ag508
ag758
ag1716
ag367
ag384
ag493
ag440
ag1060
ag786
ag1434
ag369
ag405
ag422
ag485
atp1761
Rp1762
sg19
I00
sg20
g492
ssg758
(dp1763
g3
g4
((lp1764
g754
ag827
ag756
ag760
ag325
ag610
ag751
ag763
ag755
ag611
ag508
ag492
ag1716
ag367
ag384
ag440
ag1060
ag786
ag1434
ag764
ag405
ag422
ag762
atp1765
Rp1766
sg19
I00
sg20
g758
ssg1716
(dp1767
g3
g4
((lp1768
g827
ag508
aS'vac'
p1769
ag492
ag758
ag935
ag1722
aS'pac'
p1770
ag367
ag384
ag440
ag1060
ag786
ag1434
ag405
ag422
atp1771
Rp1772
sg19
I00
sg20
g1716
ssg1722
(dp1773
g3
g4
((lp1774
g1432
ag415
ag394
ag437
ag784
ag383
ag366
ag1716
ag935
ag1770
ag1550
ag512
ag493
ag1769
aS'moc'
p1775
ag465
atp1776
Rp1777
sg19
I00
sg20
g1722
ssS'ova'
p1778
(dp1779
g3
g4
((lp1780
S'oka'
p1781
aS'oca'
p1782
ag148
ag87
atp1783
Rp1784
sg19
I00
sg20
g1778
ssg367
(dp1785
g3
g4
((lp1786
g368
ag440
ag362
ag365
ag364
ag361
ag358
ag1065
ag827
ag352
ag508
ag366
ag492
ag758
ag1716
ag384
ag268
ag1060
ag786
ag1434
ag405
ag422
ag1066
atp1787
Rp1788
sg19
I00
sg20
g367
ssg384
(dp1789
g3
g4
((lp1790
g375
ag1060
ag376
ag377
ag378
ag379
ag508
ag381
ag382
ag827
ag344
ag307
ag383
ag492
ag758
ag1716
ag367
ag440
ag1002
ag385
ag786
ag1434
ag380
ag405
ag422
ag386
ag387
ag388
atp1791
Rp1792
sg19
I00
sg20
g384
ssg493
(dp1793
g3
g4
((lp1794
g481
ag482
ag483
ag394
ag484
ag486
ag593
ag487
ag842
ag490
ag1432
ag415
ag491
ag437
ag784
ag383
ag366
ag492
ag1722
ag1550
ag512
ag494
ag1184
ag369
ag465
ag485
ag496
atp1795
Rp1796
sg19
I00
sg20
g493
ssg440
(dp1797
g3
g4
((lp1798
g427
ag428
ag429
ag430
ag431
ag360
ag670
ag434
ag921
ag435
ag436
ag227
ag827
ag492
ag437
ag508
ag438
ag758
ag1716
ag367
ag384
ag439
ag1060
ag786
ag1434
ag433
ag405
ag422
ag441
ag442
ag226
atp1799
Rp1800
sg19
I00
sg20
g440
ssg327
(dp1801
g3
g4
((lp1802
g325
ag1180
ag1170
ag130
ag638
ag896
ag1606
ag331
ag55
ag329
ag332
ag330
ag313
ag203
ag920
ag333
ag334
ag326
ag336
ag337
ag319
atp1803
Rp1804
sg19
I00
sg20
g327
ssg1060
(dp1805
g3
g4
((lp1806
g827
ag1212
ag645
ag508
ag1514
ag492
ag758
ag1716
ag367
ag384
ag1001
ag440
ag786
ag1434
ag405
ag422
atp1807
Rp1808
sg19
I00
sg20
g1060
ssg786
(dp1809
g3
g4
((lp1810
g777
ag199
ag778
ag30
ag779
ag780
ag206
ag761
ag782
ag781
ag827
ag784
ag508
ag492
ag758
ag1716
ag785
ag367
ag384
ag440
ag1060
ag1434
ag405
ag422
ag774
ag783
atp1811
Rp1812
sg19
I00
sg20
g786
ssg1434
(dp1813
g3
g4
((lp1814
g1213
ag1432
ag1430
ag1429
ag936
ag1296
ag92
ag1112
ag1431
ag697
ag640
ag765
ag827
ag508
ag492
ag758
ag1716
ag695
ag384
ag440
ag1060
ag786
ag405
ag422
ag1108
ag787
ag1433
ag367
atp1815
Rp1816
sg19
I00
sg20
g1434
ssg405
(dp1817
g3
g4
((lp1818
g393
ag154
ag404
ag397
ag398
ag508
ag401
ag399
ag400
ag827
ag394
ag355
ag492
ag402
ag758
ag1716
ag367
ag384
ag440
ag1060
ag786
ag1434
ag422
ag406
ag407
atp1819
Rp1820
sg19
I00
sg20
g405
ssg422
(dp1821
g3
g4
((lp1822
g413
ag418
ag417
ag720
ag419
ag420
ag421
ag827
ag415
ag508
ag356
ag492
ag414
ag758
ag1716
ag416
ag367
ag384
ag440
ag1060
ag786
ag1434
ag405
ag412
ag185
atp1823
Rp1824
sg19
I00
sg20
g422
ssg1172
(dp1825
g3
g4
((lp1826
g51
ag1170
ag1143
ag1374
ag1168
ag809
ag309
ag1182
ag57
ag1171
ag330
ag209
ag1175
ag926
ag1169
ag1129
ag1094
aS'nor'
p1827
ag1174
atp1828
Rp1829
sg19
I00
sg20
g1172
ssg668
(dp1830
g3
g4
((lp1831
g217
ag665
ag929
ag666
ag429
ag713
ag1599
ag667
ag694
ag432
ag669
ag1600
ag1601
ag612
ag549
ag534
ag670
ag671
ag672
ag656
ag673
ag674
ag164
ag531
atp1832
Rp1833
sg19
I00
sg20
g668
ssS'ego'
p1834
(dp1835
g3
g4
((lp1836
g952
ag1456
atp1837
Rp1838
sg19
I00
sg20
g1834
ssg1456
(dp1839
g3
g4
((lp1840
g1409
ag1834
ag1455
atp1841
Rp1842
sg19
I00
sg20
g1456
ssg1308
(dp1843
g3
g4
((lp1844
g1303
ag1307
ag1306
atp1845
Rp1846
sg19
I00
sg20
g1308
ssg1600
(dp1847
g3
g4
((lp1848
g713
ag1599
ag1733
ag694
ag668
ag357
ag266
ag1601
ag612
aS'nix'
p1849
ag362
ag1095
ag1756
ag549
ag534
atp1850
Rp1851
sg19
I00
sg20
g1600
ssg806
(dp1852
g3
g4
((lp1853
g804
ag504
ag805
ag807
ag1037
ag291
ag743
ag808
ag810
ag38
ag476
atp1854
Rp1855
sg19
I00
sg20
g806
ssg1223
(dp1856
g3
g4
((lp1857
g463
ag540
ag250
ag1699
ag1289
ag1222
atp1858
Rp1859
sg19
I00
sg20
g1223
ssg1037
(dp1860
g3
g4
((lp1861
g998
ag806
ag291
atp1862
Rp1863
sg19
I00
sg20
g1037
ssS'own'
p1864
(dp1865
g3
g4
((lp1866
g75
aS'awn'
p1867
aS'owl'
p1868
atp1869
Rp1870
sg19
I00
sg20
g1864
ssg1537
(dp1871
g3
g4
((lp1872
g807
ag729
ag505
ag562
ag862
aS'mud'
p1873
ag507
ag1500
ag1173
atp1874
Rp1875
sg19
I00
sg20
g1537
ssg1652
(dp1876
g3
g4
((lp1877
S'pya'
p1878
ag136
ag1197
atp1879
Rp1880
sg19
I00
sg20
g1652
ssS'its'
p1881
(dp1882
g3
g4
((lp1883
g707
ag1685
ag795
aS'ifs'
p1884
atp1885
Rp1886
sg19
I00
sg20
g1881
ssg395
(dp1887
g3
g4
((lp1888
g1599
ag403
ag396
ag432
ag355
ag1747
ag357
ag908
ag615
ag1263
ag157
ag489
ag510
ag579
ag1727
ag464
ag909
atp1889
Rp1890
sg19
I00
sg20
g395
ssg586
(dp1891
g3
g4
((lp1892
g592
ag585
ag609
ag837
ag543
ag587
ag526
ag593
ag594
ag590
ag591
ag489
ag1183
ag490
ag275
atp1893
Rp1894
sg19
I00
sg20
g586
ssg609
(dp1895
g3
g4
((lp1896
g586
ag610
ag612
ag543
ag338
ag608
ag614
ag527
ag615
ag616
ag332
ag617
ag763
atp1897
Rp1898
sg19
I00
sg20
g609
ssS'tsk'
p1899
(dp1900
g3
g4
((lp1901
g238
atp1902
Rp1903
sg19
I00
sg20
g1899
ssg432
(dp1904
g3
g4
((lp1905
g665
ag666
ag395
ag615
ag667
ag656
ag668
ag1263
ag357
ag670
ag224
ag489
ag510
ag579
ag464
ag909
ag671
ag360
ag672
ag673
ag674
ag164
ag669
ag531
atp1906
Rp1907
sg19
I00
sg20
g432
ssg612
(dp1908
g3
g4
((lp1909
g713
ag1601
ag694
ag609
ag668
ag610
ag1599
ag616
ag756
ag1600
ag608
ag614
ag527
ag615
ag326
ag617
ag338
ag549
ag534
ag883
atp1910
Rp1911
sg19
I00
sg20
g612
ssg1263
(dp1912
g3
g4
((lp1913
g395
ag432
ag1078
ag357
ag615
ag1264
ag489
ag510
ag579
ag464
ag1190
ag909
atp1914
Rp1915
sg19
I00
sg20
g1263
ssg357
(dp1916
g3
g4
((lp1917
g395
ag1733
ag352
ag432
ag1263
ag1600
ag359
ag615
ag1756
ag1849
ag489
ag510
ag579
ag464
ag909
atp1918
Rp1919
sg19
I00
sg20
g357
ssg1125
(dp1920
g3
g4
((lp1921
g412
ag1123
ag1091
ag1290
ag724
ag184
atp1922
Rp1923
sg19
I00
sg20
g1125
ssg533
(dp1924
g3
g4
((lp1925
g636
ag518
ag714
ag671
ag813
ag523
ag824
ag64
ag528
ag529
ag448
ag1671
ag565
ag578
ag534
ag825
ag522
ag552
atp1926
Rp1927
sg19
I00
sg20
g533
ssg615
(dp1928
g3
g4
((lp1929
g395
ag610
ag609
ag334
ag432
ag612
ag1263
ag338
ag357
ag608
ag614
ag527
ag616
ag897
ag489
ag510
ag579
ag464
ag909
ag617
atp1930
Rp1931
sg19
I00
sg20
g615
ssS'imp'
p1932
(dp1933
g3
g4
((lp1934
g192
ag449
atp1935
Rp1936
sg19
I00
sg20
g1932
ssg1770
(dp1937
g3
g4
((lp1938
g92
ag154
ag417
ag431
ag30
ag361
ag379
ag1670
ag1716
ag935
ag1722
ag509
ag1769
aS'pah'
p1939
ag733
ag826
ag252
ag42
atp1940
Rp1941
sg19
I00
sg20
g1770
ssg489
(dp1942
g3
g4
((lp1943
g585
ag275
ag594
ag592
ag395
ag586
ag432
ag1263
ag357
ag593
ag590
ag591
ag488
ag510
ag615
ag464
ag909
ag587
ag579
ag369
ag526
ag495
atp1944
Rp1945
sg19
I00
sg20
g489
ssg510
(dp1946
g3
g4
((lp1947
g567
ag395
ag560
ag504
ag432
ag1263
ag357
ag563
ag615
ag564
ag489
ag579
ag464
ag909
ag559
ag561
ag565
ag370
ag568
ag524
ag507
ag566
atp1948
Rp1949
sg19
I00
sg20
g510
ssg579
(dp1950
g3
g4
((lp1951
g395
ag574
ag287
ag432
ag290
ag1263
ag525
ag357
ag573
ag615
ag133
ag577
ag489
ag510
ag576
ag464
ag909
ag578
atp1952
Rp1953
sg19
I00
sg20
g579
ssg401
(dp1954
g3
g4
((lp1955
S'oaf'
p1956
ag154
ag394
ag406
ag393
ag355
ag407
aS'oak'
p1957
ag397
ag402
ag398
ag434
ag399
aS'our'
p1958
ag404
ag400
ag405
atp1959
Rp1960
sg19
I00
sg20
g401
ssg1290
(dp1961
g3
g4
((lp1962
g601
ag114
ag1288
ag136
ag1125
ag294
ag1287
ag1289
ag580
ag1291
atp1963
Rp1964
sg19
I00
sg20
g1290
ssg464
(dp1965
g3
g4
((lp1966
g245
ag540
ag541
ag395
ag432
ag543
ag357
ag545
ag615
ag546
ag489
ag510
ag579
ag547
ag548
ag462
ag549
ag909
ag550
ag1263
ag363
ag551
ag552
ag521
ag249
ag554
ag454
ag544
atp1967
Rp1968
sg19
I00
sg20
g464
ssg909
(dp1969
g3
g4
((lp1970
g395
ag744
ag905
ag906
ag432
ag1263
ag357
ag615
ag12
ag907
ag489
ag510
ag579
ag464
atp1971
Rp1972
sg19
I00
sg20
g909
ssS'wry'
p1973
(dp1974
g3
g4
((lp1975
g1398
ag1403
aS'try'
p1976
ag381
ag348
aS'pry'
p1977
aS'why'
p1978
atp1979
Rp1980
sg19
I00
sg20
g1973
ssg511
(dp1981
g3
g4
((lp1982
g501
ag506
ag502
ag503
ag505
ag562
ag1462
ag509
ag491
ag611
ag508
ag530
aS'dah'
p1983
aS'dak'
p1984
ag785
ag695
ag512
ag513
ag380
ag370
ag524
ag514
ag515
atp1985
Rp1986
sg19
I00
sg20
g511
ssg51
(dp1987
g3
g4
((lp1988
g52
ag1143
ag1374
ag48
ag523
ag1172
ag1182
ag330
ag821
ag60
ag61
ag62
ag54
ag926
ag209
ag1827
ag1129
atp1989
Rp1990
sg19
I00
sg20
g51
ssg286
(dp1991
g3
g4
((lp1992
g287
ag288
ag289
ag291
ag742
ag295
ag294
ag293
ag297
ag887
ag225
ag292
ag296
ag98
ag39
ag298
ag138
atp1993
Rp1994
sg19
I00
sg20
g286
ssg491
(dp1995
g3
g4
((lp1996
g481
ag482
ag483
ag496
ag589
ag484
ag486
ag487
ag490
ag380
ag511
ag611
ag1462
ag530
ag492
ag1983
ag1984
ag785
ag695
ag493
ag494
ag369
ag526
ag588
ag485
atp1997
Rp1998
sg19
I00
sg20
g491
ssg1374
(dp1999
g3
g4
((lp2000
g51
ag1143
ag1172
aS'nah'
p2001
ag1182
ag1371
ag330
aS'nth'
p2002
ag1375
ag926
ag209
ag1324
ag1827
ag1129
atp2003
Rp2004
sg19
I00
sg20
g1374
ssg611
(dp2005
g3
g4
((lp2006
g511
ag755
ag491
ag760
ag1462
ag530
ag613
ag1983
ag754
ag527
ag1984
ag751
ag785
ag695
ag758
ag764
ag756
ag762
ag618
ag763
ag380
atp2007
Rp2008
sg19
I00
sg20
g611
ssg705
(dp2009
g3
g4
((lp2010
S'udo'
p2011
ag702
atp2012
Rp2013
sg19
I00
sg20
g705
ssg1462
(dp2014
g3
g4
((lp2015
g511
ag491
ag1461
ag611
ag934
ag7
ag627
ag1983
ag1984
ag785
ag695
ag530
ag746
aS'bal'
p2016
ag733
ag380
atp2017
Rp2018
sg19
I00
sg20
g1462
ssg530
(dp2019
g3
g4
((lp2020
g56
ag816
ag813
ag821
ag822
ag823
ag826
ag511
ag827
ag491
ag611
ag1462
ag1983
ag1984
ag828
ag785
ag695
ag380
ag518
ag54
ag788
ag829
atp2021
Rp2022
sg19
I00
sg20
g530
ssg742
(dp2023
g3
g4
((lp2024
g286
ag737
ag740
ag741
ag745
ag746
ag98
ag748
aS'col'
p2025
ag630
atp2026
Rp2027
sg19
I00
sg20
g742
ssg1983
(dp2028
g3
g4
((lp2029
g511
ag817
ag491
ag611
ag1462
ag530
ag2001
aS'aah'
p2030
aS'rah'
p2031
ag1984
ag785
ag695
aS'yah'
p2032
ag1939
ag380
aS'bah'
p2033
atp2034
Rp2035
sg19
I00
sg20
g1983
ssg330
(dp2036
g3
g4
((lp2037
g326
ag51
ag55
ag900
ag325
ag327
ag329
ag943
ag331
ag313
ag1172
ag334
ag754
ag1143
ag1374
ag616
ag1182
ag332
ag926
ag336
ag209
ag1827
ag1129
ag333
ag337
atp2038
Rp2039
sg19
I00
sg20
g330
ssg1984
(dp2040
g3
g4
((lp2041
g511
ag491
ag611
ag1462
ag530
ag1957
ag1983
ag785
ag695
ag1659
ag380
atp2042
Rp2043
sg19
I00
sg20
g1984
ssg1781
(dp2044
g3
g4
((lp2045
g1782
ag1479
ag1778
ag82
ag87
atp2046
Rp2047
sg19
I00
sg20
g1781
ssg785
(dp2048
g3
g4
((lp2049
g777
ag199
ag778
ag611
ag30
ag779
ag780
ag781
ag761
ag782
ag783
ag511
ag491
ag784
ag1462
ag530
ag1983
ag1984
ag695
ag786
ag380
ag774
ag45
ag210
atp2050
Rp2051
sg19
I00
sg20
g785
ssg695
(dp2052
g3
g4
((lp2053
g1213
ag1429
ag936
ag1296
ag92
ag1430
ag1431
ag640
ag765
ag511
ag1432
ag491
ag611
ag1462
ag530
ag1983
ag1984
ag693
ag785
ag1433
ag1434
ag380
ag1108
ag787
ag532
atp2054
Rp2055
sg19
I00
sg20
g695
ssg98
(dp2056
g3
g4
((lp2057
g1109
ag286
ag787
ag93
ag973
ag95
ag742
ag32
ag94
ag100
atp2058
Rp2059
sg19
I00
sg20
g98
ssg926
(dp2060
g3
g4
((lp2061
g652
ag929
ag923
ag65
ag918
ag919
ag920
ag1827
ag921
ag317
ag229
ag922
ag51
ag1143
ag1374
ag1172
ag1182
ag330
ag924
ag925
ag209
ag674
ag1129
ag927
ag928
ag675
atp2062
Rp2063
sg19
I00
sg20
g926
ssg209
(dp2064
g3
g4
((lp2065
g25
ag205
ag207
ag66
ag197
ag204
ag203
ag781
ag208
ag44
ag206
ag51
ag1143
ag1374
ag200
ag1172
ag1182
ag201
ag330
ag926
ag1827
ag1129
ag198
ag202
ag210
atp2066
Rp2067
sg19
I00
sg20
g209
ssg380
(dp2068
g3
g4
((lp2069
g375
ag344
ag376
ag377
ag611
ag378
ag379
ag1462
ag381
ag382
ag511
ag491
ag307
ag383
ag530
ag1983
ag1984
ag785
ag695
ag384
ag385
ag1398
ag854
ag386
ag387
ag388
atp2070
Rp2071
sg19
I00
sg20
g380
ssg1827
(dp2072
g3
g4
((lp2073
g51
ag209
ag1424
ag1374
ag396
ag1172
ag1728
ag1182
ag330
ag1528
ag926
ag1143
aS'dor'
p2074
ag1129
aS'kor'
p2075
ag320
atp2076
Rp2077
sg19
I00
sg20
g1827
ssg1129
(dp2078
g3
g4
((lp2079
g51
ag1122
ag1143
ag1374
ag1172
ag1091
ag1351
ag330
ag1126
ag1127
ag1128
ag1182
ag926
ag721
ag1124
ag209
ag1827
atp2080
Rp2081
sg19
I00
sg20
g1129
ssg1630
(dp2082
g3
g4
((lp2083
g52
ag1171
ag553
ag246
ag1606
ag1491
ag545
ag331
ag1633
ag1631
ag1222
ag770
ag1634
ag208
ag1658
ag462
aS'you'
p2084
ag990
atp2085
Rp2086
sg19
I00
sg20
g1630
ssg204
(dp2087
g3
g4
((lp2088
g777
ag25
ag205
ag207
ag197
ag66
ag306
ag1528
ag1110
ag919
ag203
ag770
ag206
ag60
ag208
ag27
ag841
ag809
ag129
ag200
ag201
ag1148
ag209
ag198
ag202
ag210
atp2089
Rp2090
sg19
I00
sg20
g204
ssg1884
(dp2091
g3
g4
((lp2092
g1644
ag1416
ag1881
ag795
ag1685
atp2093
Rp2094
sg19
I00
sg20
g1884
ssg1644
(dp2095
g3
g4
((lp2096
g1641
ag1645
ag1646
ag1884
atp2097
Rp2098
sg19
I00
sg20
g1644
ssg465
(dp2099
g3
g4
((lp2100
g458
ag461
ag463
ag455
ag457
aS'mun'
p2101
ag252
ag1432
ag415
ag394
ag437
ag784
ag383
ag366
ag255
ag456
ag1722
ag1550
ag1634
ag493
ag459
ag460
ag363
ag512
atp2102
Rp2103
sg19
I00
sg20
g465
ssg1432
(dp2104
g3
g4
((lp2105
g1213
ag1429
ag936
ag1296
ag92
ag1430
ag1431
ag640
ag765
ag415
ag394
ag437
ag784
ag383
ag366
ag1105
ag1433
ag1722
ag695
ag512
ag493
ag1434
ag465
ag1108
ag787
ag1550
atp2106
Rp2107
sg19
I00
sg20
g1432
ssg625
(dp2108
g3
g4
((lp2109
g254
ag960
ag542
ag884
ag1632
aS'jun'
p2110
ag626
ag621
aS'nun'
p2111
ag456
aS'bun'
p2112
ag628
ag771
ag629
ag454
ag548
ag318
ag2101
ag256
atp2113
Rp2114
sg19
I00
sg20
g625
ssg905
(dp2115
g3
g4
((lp2116
g1868
ag906
ag907
ag744
ag12
ag909
atp2117
Rp2118
sg19
I00
sg20
g905
ssg626
(dp2119
g3
g4
((lp2120
g59
ag824
aS'gym'
p2121
ag629
ag625
ag621
ag885
ag1717
ag828
ag1657
ag628
aS'bum'
p2122
ag1026
ag1014
ag318
ag1027
atp2123
Rp2124
sg19
I00
sg20
g626
ssg326
(dp2125
g3
g4
((lp2126
g1168
ag756
ag55
aS'sol'
p2127
ag1633
ag974
ag1128
aS'sou'
p2128
ag929
ag207
ag316
ag1095
ag325
ag327
ag883
ag329
ag331
ag313
ag612
ag334
ag330
ag332
ag336
ag333
ag337
atp2129
Rp2130
sg19
I00
sg20
g326
ssg1958
(dp2131
g3
g4
((lp2132
g403
ag1423
ag1229
ag862
ag401
ag158
ag659
atp2133
Rp2134
sg19
I00
sg20
g1958
ssg659
(dp2135
g3
g4
((lp2136
g1235
ag650
ag651
ag657
ag77
ag653
ag654
ag862
ag655
ag925
ag434
ag1380
ag629
ag658
ag1958
ag652
ag660
atp2137
Rp2138
sg19
I00
sg20
g659
ssg1976
(dp2139
g3
g4
((lp2140
g1398
ag306
aS'thy'
p2141
ag1403
ag348
ag1977
ag1973
atp2142
Rp2143
sg19
I00
sg20
g1976
ssg305
(dp2144
g3
g4
((lp2145
g1148
ag1143
ag309
ag311
ag1144
ag313
ag1147
ag1146
ag301
ag314
ag1092
ag317
ag1149
ag1150
ag320
atp2146
Rp2147
sg19
I00
sg20
g305
ssg1222
(dp2148
g3
g4
((lp2149
g540
ag250
ag463
ag1606
ag918
ag197
ag1107
ag1126
ag1146
ag770
aS'wok'
p2150
ag135
ag1181
ag1630
ag1631
ag1634
ag1633
ag462
ag553
ag1491
ag1223
ag990
atp2151
Rp2152
sg19
I00
sg20
g1222
ssg1574
(dp2153
g3
g4
((lp2154
g144
aS'wha'
p2155
ag1478
ag1479
ag888
ag1004
aS'shh'
p2156
ag1509
atp2157
Rp2158
sg19
I00
sg20
g1574
ssg309
(dp2159
g3
g4
((lp2160
g305
ag1168
ag1172
ag57
ag1171
ag311
ag1170
ag313
ag314
ag564
ag301
ag1175
ag810
ag317
ag1174
ag513
ag1094
ag1169
ag809
ag320
atp2161
Rp2162
sg19
I00
sg20
g309
ssg95
(dp2163
g3
g4
((lp2164
g265
ag472
ag93
ag94
ag471
ag98
ag32
ag221
ag473
ag696
ag1429
ag63
ag335
ag468
ag100
ag475
ag281
ag476
ag138
atp2165
Rp2166
sg19
I00
sg20
g95
ssg311
(dp2167
g3
g4
((lp2168
g1155
ag305
ag1157
ag309
ag313
ag301
ag314
ag1093
ag317
ag1158
ag320
atp2169
Rp2170
sg19
I00
sg20
g311
ssg221
(dp2171
g3
g4
((lp2172
g217
ag428
ag65
ag231
ag216
ag265
ag218
ag31
ag471
ag95
ag472
ag224
ag473
ag63
ag335
ag468
ag229
ag475
ag281
ag476
ag138
ag220
ag228
ag213
ag219
ag230
ag226
ag660
ag232
atp2173
Rp2174
sg19
I00
sg20
g221
ssg313
(dp2175
g3
g4
((lp2176
g325
ag305
ag326
ag327
ag309
ag55
ag329
ag311
ag331
ag330
ag314
ag332
ag333
ag301
ag617
ag334
ag336
ag317
ag337
ag764
ag320
atp2177
Rp2178
sg19
I00
sg20
g313
ssg383
(dp2179
g3
g4
((lp2180
g375
ag394
ag376
ag377
ag784
ag378
ag379
ag388
ag381
ag382
ag1432
ag415
ag344
ag437
ag307
ag366
ag1722
ag1550
ag512
ag493
ag385
ag380
ag465
ag386
ag387
ag384
atp2181
Rp2182
sg19
I00
sg20
g383
ssg473
(dp2183
g3
g4
((lp2184
g265
ag471
ag997
ag95
ag472
ag221
ag1202
ag63
ag335
ag468
ag475
ag281
ag476
ag138
atp2185
Rp2186
sg19
I00
sg20
g473
ssg1013
(dp2187
g3
g4
((lp2188
g1014
ag788
atp2189
Rp2190
sg19
I00
sg20
g1013
ssg314
(dp2191
g3
g4
((lp2192
g1085
ag305
ag1088
ag311
ag359
ag313
ag301
ag309
ag317
ag1065
ag1090
ag269
ag1095
ag320
atp2193
Rp2194
sg19
I00
sg20
g314
ssg63
(dp2195
g3
g4
((lp2196
g265
ag56
ag48
ag59
ag1022
ag471
ag95
ag1025
ag472
ag221
ag473
ag1027
ag825
ag335
ag468
ag64
ag475
ag281
ag476
ag138
atp2197
Rp2198
sg19
I00
sg20
g63
ssg335
(dp2199
g3
g4
((lp2200
g338
ag759
ag265
ag472
ag328
ag471
ag95
ag943
ag221
ag55
ag473
ag63
ag468
ag618
ag475
ag281
ag476
ag138
atp2201
Rp2202
sg19
I00
sg20
g335
ssg317
(dp2203
g3
g4
((lp2204
g922
ag929
ag65
ag305
ag656
ag309
ag311
ag919
ag313
ag920
ag301
ag314
ag921
ag320
ag923
ag220
ag438
ag924
ag925
ag926
ag927
ag928
ag629
ag918
ag675
atp2205
Rp2206
sg19
I00
sg20
g317
ssg475
(dp2207
g3
g4
((lp2208
g265
ag471
aS'kef'
p2209
ag95
ag472
ag221
ag1569
ag473
ag63
ag335
ag468
ag281
ag476
ag138
atp2210
Rp2211
sg19
I00
sg20
g475
ssg281
(dp2212
g3
g4
((lp2213
g481
ag279
ag280
ag592
ag265
ag471
ag95
ag472
ag221
ag223
ag473
ag63
ag335
ag468
ag40
ag475
ag476
ag138
ag276
ag277
ag840
ag278
atp2214
Rp2215
sg19
I00
sg20
g281
ssg476
(dp2216
g3
g4
((lp2217
g501
ag806
ag743
ag567
ag504
ag807
ag471
ag95
ag472
ag221
ag473
ag63
ag38
ag468
ag475
ag281
ag138
ag804
ag805
ag57
ag265
ag335
ag810
ag808
atp2218
Rp2219
sg19
I00
sg20
g476
ssg320
(dp2220
g3
g4
((lp2221
g305
ag1424
ag396
ag1528
ag309
ag311
ag402
ag313
ag301
ag314
ag1728
ag2074
ag317
ag2075
ag1827
atp2222
Rp2223
sg19
I00
sg20
g320
ssg179
(dp2224
g3
g4
((lp2225
g191
ag180
ag181
ag182
ag183
ag185
ag238
ag1415
aS'ash'
p2226
ag15
ag184
atp2227
Rp2228
sg19
I00
sg20
g179
ssg325
(dp2229
g3
g4
((lp2230
g921
ag326
ag327
ag1019
ag610
ag331
ag55
ag329
ag1144
ag758
ag313
ag332
ag333
ag206
ag334
ag336
ag337
ag1112
ag330
ag1065
atp2231
Rp2232
sg19
I00
sg20
g325
ssg254
(dp2233
g3
g4
((lp2234
g245
ag2111
ag542
ag884
ag36
ag2101
ag252
ag624
ag960
ag729
ag1632
ag730
ag2110
ag731
ag2112
ag771
ag658
ag99
ag158
ag734
ag625
ag454
atp2235
Rp2236
sg19
I00
sg20
g254
ssg191
(dp2237
g3
g4
((lp2238
g238
ag192
ag2226
ag179
ag16
atp2239
Rp2240
sg19
I00
sg20
g191
ssg729
(dp2241
g3
g4
((lp2242
g624
ag254
ag658
ag730
ag562
ag731
ag862
ag1873
ag507
ag1500
ag509
ag158
ag1537
ag38
ag1169
ag99
ag1173
ag734
atp2243
Rp2244
sg19
I00
sg20
g729
ssg77
(dp2245
g3
g4
((lp2246
g1235
ag163
ag659
ag79
ag925
ag434
ag1380
ag69
ag85
ag72
ag87
atp2247
Rp2248
sg19
I00
sg20
g77
ssg730
(dp2249
g3
g4
((lp2250
g624
ag274
ag254
ag836
ag40
ag729
ag840
ag731
ag594
ag495
ag842
ag843
ag658
ag734
ag832
ag589
ag99
ag845
ag158
ag837
atp2251
Rp2252
sg19
I00
sg20
g730
ssg79
(dp2253
g3
g4
((lp2254
g180
ag799
ag1408
ag794
ag708
ag791
ag796
ag797
ag77
ag69
ag85
ag72
ag87
atp2255
Rp2256
sg19
I00
sg20
g79
ssg731
(dp2257
g3
g4
((lp2258
g624
ag254
ag883
ag896
ag729
ag99
ag613
ag730
ag328
ag658
ag897
ag898
ag899
ag844
ag900
ag158
ag734
atp2259
Rp2260
sg19
I00
sg20
g731
ssS'qua'
p2261
(dp2262
g3
g4
((lp2263
tp2264
Rp2265
sg19
I00
sg20
g2261
ssg2002
(dp2266
g3
g4
((lp2267
g106
ag1374
ag2001
atp2268
Rp2269
sg19
I00
sg20
g2002
ssS'ecu'
p2270
(dp2271
g3
g4
((lp2272
S'emu'
p2273
ag1215
atp2274
Rp2275
sg19
I00
sg20
g2270
ssg28
(dp2276
g3
g4
((lp2277
g216
ag24
ag93
ag29
ag156
ag1317
ag21
ag264
ag1072
ag45
ag35
ag43
ag203
ag44
ag825
ag251
ag27
ag1318
ag26
ag783
atp2278
Rp2279
sg19
I00
sg20
g28
ssg238
(dp2280
g3
g4
((lp2281
g179
ag191
ag1899
ag2226
ag235
ag240
atp2282
Rp2283
sg19
I00
sg20
g238
ssg455
(dp2284
g3
g4
((lp2285
g463
ag227
ag458
ag1769
ag457
ag399
ag456
ag363
ag459
ag460
ag419
ag461
ag1217
ag1514
ag782
ag252
ag465
atp2286
Rp2287
sg19
I00
sg20
g455
ssg2226
(dp2288
g3
g4
((lp2289
g238
ag179
ag191
ag2030
atp2290
Rp2291
sg19
I00
sg20
g2226
ssg85
(dp2292
g3
g4
((lp2293
S'urb'
p2294
ag77
ag79
ag124
ag69
ag72
ag87
atp2295
Rp2296
sg19
I00
sg20
g85
ssg72
(dp2297
g3
g4
((lp2298
g77
ag79
aS'arc'
p2299
ag69
ag85
ag87
atp2300
Rp2301
sg19
I00
sg20
g72
ssg158
(dp2302
g3
g4
((lp2303
g624
ag254
ag403
ag1423
ag729
ag730
ag154
ag33
ag1229
ag731
ag658
ag1958
ag99
ag734
atp2304
Rp2305
sg19
I00
sg20
g158
ssg87
(dp2306
g3
g4
((lp2307
g1782
ag77
ag79
ag1781
ag1778
ag1269
ag69
ag85
ag72
ag1159
atp2308
Rp2309
sg19
I00
sg20
g87
ssg112
(dp2310
g3
g4
((lp2311
g111
ag113
ag114
ag115
ag9
ag167
ag83
ag117
ag118
ag116
ag119
atp2312
Rp2313
sg19
I00
sg20
g112
ssg975
(dp2314
g3
g4
((lp2315
g94
ag973
ag838
ag1430
ag239
ag637
ag699
ag890
ag693
ag1657
ag99
atp2316
Rp2317
sg19
I00
sg20
g975
ssg1317
(dp2318
g3
g4
((lp2319
g216
ag28
ag93
ag156
ag794
ag471
ag264
ag1072
ag34
ag714
ag825
ag251
ag420
ag1318
aS'yes'
p2320
atp2321
Rp2322
sg19
I00
sg20
g1317
ssg1528
(dp2323
g3
g4
((lp2324
g129
ag809
ag396
ag393
ag1728
ag1110
ag204
ag919
ag1424
ag770
ag1148
ag60
ag2074
ag306
ag2075
ag841
ag1827
ag320
atp2325
Rp2326
sg19
I00
sg20
g1528
ssg167
(dp2327
g3
g4
((lp2328
g112
ag163
ag164
ag165
ag166
ag168
ag169
ag14
atp2329
Rp2330
sg19
I00
sg20
g167
ssg1657
(dp2331
g3
g4
((lp2332
g52
ag59
ag824
ag885
ag975
ag626
ag822
ag239
ag2122
ag1026
ag1014
ag1717
atp2333
Rp2334
sg19
I00
sg20
g1657
ssS'ism'
p2335
(dp2336
g3
g4
((lp2337
tp2338
Rp2339
sg19
I00
sg20
g2335
ssg1550
(dp2340
g3
g4
((lp2341
g1432
ag415
ag394
ag437
ag985
ag942
ag784
ag366
ag757
ag820
ag886
ag1214
ag383
ag1722
ag512
ag493
ag1551
ag465
atp2342
Rp2343
sg19
I00
sg20
g1550
ssg512
(dp2344
g3
g4
((lp2345
g501
ag804
ag502
ag503
ag505
ag506
ag563
ag1873
ag509
ag1174
ag511
ag1432
ag415
ag394
ag383
ag437
ag784
ag508
ag366
ag1722
ag1550
ag493
ag513
ag370
ag465
ag514
ag515
atp2346
Rp2347
sg19
I00
sg20
g512
ssg545
(dp2348
g3
g4
((lp2349
g550
ag560
ag521
ag245
ag246
ag543
ag540
ag544
ag541
ag1630
ag546
ag554
ag551
ag547
ag548
ag464
ag549
ag552
ag699
atp2350
Rp2351
sg19
I00
sg20
g545
ssg482
(dp2352
g3
g4
((lp2353
g481
ag491
ag484
ag591
ag486
ag492
ag483
ag487
ag485
ag365
ag496
ag493
ag494
ag490
ag369
ag1296
atp2354
Rp2355
sg19
I00
sg20
g482
ssg1144
(dp2356
g3
g4
((lp2357
g325
ag305
ag1143
ag1019
ag1146
ag1149
ag1112
ag1147
ag206
ag921
ag1092
ag1065
ag1150
ag1148
atp2358
Rp2359
sg19
I00
sg20
g1144
ssg217
(dp2360
g3
g4
((lp2361
g24
ag155
ag266
ag280
ag295
ag474
ag929
ag1004
ag247
ag748
ag230
ag231
ag1202
ag429
ag216
ag213
ag218
ag668
ag31
ag221
ag224
ag228
ag229
ag220
ag219
ag226
ag232
atp2362
Rp2363
sg19
I00
sg20
g217
ssg365
(dp2364
g3
g4
((lp2365
g352
ag361
ag366
ag358
ag368
ag362
ag367
ag364
ag482
ag1296
atp2366
Rp2367
sg19
I00
sg20
g365
ssg797
(dp2368
g3
g4
((lp2369
g706
ag708
ag794
ag791
ag79
ag1685
ag796
ag1417
ag80
ag799
atp2370
Rp2371
sg19
I00
sg20
g797
ssg1296
(dp2372
g3
g4
((lp2373
g92
ag1432
ag690
ag1213
ag365
ag1108
ag482
ag787
ag1430
ag1433
ag1431
ag695
ag1429
ag640
ag936
ag1434
ag765
atp2374
Rp2375
sg19
I00
sg20
g1296
ssS'koi'
p2376
(dp2377
g3
g4
((lp2378
g1157
ag329
ag1306
aS'poi'
p2379
ag1111
ag1124
ag2075
atp2380
Rp2381
sg19
I00
sg20
g2376
ssg560
(dp2382
g3
g4
((lp2383
g559
ag1171
ag524
ag561
ag545
ag563
ag564
ag565
ag699
ag510
ag566
ag567
ag568
atp2384
Rp2385
sg19
I00
sg20
g560
ssg306
(dp2386
g3
g4
((lp2387
g304
ag2141
ag1528
ag315
ag1110
ag204
ag919
ag312
ag1976
ag308
ag301
ag1148
ag60
ag316
ag770
ag129
ag841
ag809
ag319
atp2388
Rp2389
sg19
I00
sg20
g306
ssg29
(dp2390
g3
g4
((lp2391
g24
ag28
ag21
ag218
ag1054
ag779
ag200
ag45
ag35
ag43
ag297
ag44
ag26
ag27
atp2392
Rp2393
sg19
I00
sg20
g29
ssg218
(dp2394
g3
g4
((lp2395
g216
ag213
ag217
ag923
ag29
ag1054
ag31
ag228
ag220
ag221
ag219
ag224
ag226
ag657
ag297
ag229
ag230
ag231
ag232
atp2396
Rp2397
sg19
I00
sg20
g218
ssg1054
(dp2398
g3
g4
((lp2399
g1000
ag1055
ag29
ag218
ag297
atp2400
Rp2401
sg19
I00
sg20
g1054
ssg1157
(dp2402
g3
g4
((lp2403
g2376
ag1155
ag329
ag311
ag999
ag1111
ag1093
ag1124
ag2075
ag1158
atp2404
Rp2405
sg19
I00
sg20
g1157
ssg1110
(dp2406
g3
g4
((lp2407
g1213
ag97
ag1107
ag974
ag306
ag1106
ag1528
ag692
ag204
ag919
ag1112
ag770
ag1148
ag638
ag60
ag1111
ag841
ag809
ag129
ag838
ag1105
ag1109
ag1089
atp2408
Rp2409
sg19
I00
sg20
g1110
ssg329
(dp2410
g3
g4
((lp2411
g2376
ag755
ag326
ag327
ag1157
ag55
ag331
ag330
ag313
ag332
ag333
ag334
ag336
ag1111
ag337
ag2075
ag1124
ag325
atp2412
Rp2413
sg19
I00
sg20
g329
ssg1112
(dp2414
g3
g4
((lp2415
g325
ag1109
ag1106
ag1019
ag1089
ag1110
ag1105
ag1144
ag97
ag1107
ag974
ag921
ag697
ag206
ag638
ag1111
ag1065
ag1434
atp2416
Rp2417
sg19
I00
sg20
g1112
ssg919
(dp2418
g3
g4
((lp2419
g427
ag922
ag929
ag230
ag306
ag1528
ag65
ag1110
ag204
ag920
ag770
ag1148
ag921
ag60
ag317
ag841
ag809
ag129
ag923
ag653
ag924
ag925
ag926
ag927
ag928
ag669
ag918
ag675
atp2420
Rp2421
sg19
I00
sg20
g919
ssg718
(dp2422
g3
g4
((lp2423
g713
ag714
ag182
ag715
ag716
ag717
ag719
ag720
ag722
ag723
ag724
ag535
atp2424
Rp2425
sg19
I00
sg20
g718
ssg770
(dp2426
g3
g4
((lp2427
g248
ag1633
ag461
ag1630
ag306
ag1606
ag1110
ag204
ag919
ag546
ag1222
ag1148
ag60
ag462
ag841
ag809
ag129
ag1631
ag1634
ag771
ag553
ag1491
ag1528
ag990
atp2428
Rp2429
sg19
I00
sg20
g770
ssg1148
(dp2430
g3
g4
((lp2431
g1584
ag305
ag1143
ag1149
ag1528
ag1110
ag60
ag1144
ag919
ag204
ag1585
ag1146
ag306
ag770
ag1150
ag1092
ag1147
ag1032
ag841
ag809
ag129
atp2432
Rp2433
sg19
I00
sg20
g1148
ssg297
(dp2434
g3
g4
((lp2435
g289
ag286
ag287
ag29
ag218
ag1054
ag291
ag292
ag293
ag294
ag295
ag225
ag134
ag296
ag39
ag138
ag298
ag288
atp2436
Rp2437
sg19
I00
sg20
g297
ssg1111
(dp2438
g3
g4
((lp2439
g2376
ag1109
ag1105
ag689
ag1106
ag974
ag1089
ag1110
ag329
ag1107
ag97
ag1157
ag1112
ag638
ag1124
ag2075
ag100
atp2440
Rp2441
sg19
I00
sg20
g1111
ssg1124
(dp2442
g3
g4
((lp2443
g2376
ag1122
ag1091
ag1157
ag329
ag1126
ag416
ag1127
ag1128
ag721
ag1111
ag2075
ag1129
atp2444
Rp2445
sg19
I00
sg20
g1124
ssg2075
(dp2446
g3
g4
((lp2447
g2376
ag1424
ag396
ag1157
ag1747
ag329
ag1528
ag1728
ag2074
ag1111
ag1124
ag1827
ag320
atp2448
Rp2449
sg19
I00
sg20
g2075
ssg841
(dp2450
g3
g4
((lp2451
g279
ag496
ag1180
ag306
ag1019
ag1528
ag1110
ag204
ag919
ag488
ag770
ag1148
ag60
ag1181
ag809
ag129
ag1182
ag1183
ag1184
ag832
ag588
ag1185
ag1096
atp2452
Rp2453
sg19
I00
sg20
g841
ssg809
(dp2454
g3
g4
((lp2455
g1168
ag743
ag503
ag1169
ag1170
ag306
ag1528
ag309
ag1110
ag1171
ag204
ag919
ag770
ag1148
ag60
ag841
ag129
ag1172
ag57
ag1174
ag1175
ag1094
atp2456
Rp2457
sg19
I00
sg20
g809
ssg206
(dp2458
g3
g4
((lp2459
g325
ag209
ag1019
ag198
ag200
ag25
ag197
ag201
ag1144
ag202
ag203
ag1112
ag205
ag921
ag208
ag204
ag1065
ag786
ag207
ag210
ag66
atp2460
Rp2461
sg19
I00
sg20
g206
ssg882
(dp2462
g3
g4
((lp2463
g879
ag130
ag896
ag824
ag1632
aS'huh'
p2464
ag820
ag575
ag655
ag887
ag836
ag637
ag578
ag891
ag137
atp2465
Rp2466
sg19
I00
sg20
g882
ssg836
(dp2467
g3
g4
((lp2468
g1180
ag274
ag837
ag896
ag882
ag824
ag1632
ag730
ag2464
ag840
ag589
ag655
ag495
ag842
ag637
ag843
ag487
ag845
ag832
atp2469
Rp2470
sg19
I00
sg20
g836
ssg381
(dp2471
g3
g4
((lp2472
g375
ag376
ag463
ag377
ag378
ag486
ag379
ag757
ag505
ag751
ag1978
ag388
ag358
ag761
ag435
ag421
ag400
ag765
ag344
ag307
ag383
ag384
ag385
ag380
ag386
ag382
ag387
ag1973
atp2473
Rp2474
sg19
I00
sg20
g381
ssg896
(dp2475
g3
g4
((lp2476
g882
ag836
ag327
ag883
ag328
ag824
ag613
ag2464
ag731
ag655
ag897
ag898
ag899
ag637
ag844
ag900
ag1632
atp2477
Rp2478
sg19
I00
sg20
g896
ssg824
(dp2479
g3
g4
((lp2480
g882
ag836
ag813
ag896
ag59
ag885
ag1632
ag2464
ag626
ag1717
ag655
ag448
ag637
ag1657
ag2122
ag1026
ag825
ag1014
ag533
atp2481
Rp2482
sg19
I00
sg20
g824
ssg2121
(dp2483
g3
g4
((lp2484
g828
ag626
ag1027
ag639
atp2485
Rp2486
sg19
I00
sg20
g2121
ssg60
(dp2487
g3
g4
((lp2488
g51
ag52
ag306
ag48
ag54
ag1528
ag1110
ag204
ag919
ag61
ag770
ag1148
ag62
ag816
ag841
ag809
ag129
atp2489
Rp2490
sg19
I00
sg20
g60
ssg2464
(dp2491
g3
g4
((lp2492
g817
ag882
ag836
ag896
ag824
ag1632
ag655
ag637
ag1318
atp2493
Rp2494
sg19
I00
sg20
g2464
ssg293
(dp2495
g3
g4
((lp2496
g737
ag248
ag291
ag747
ag743
ag279
ag1214
ag295
ag230
ag27
ag287
ag289
ag292
ag225
ag297
ag576
ag129
ag286
ag288
ag1288
ag296
ag39
ag294
ag1552
ag138
ag298
atp2497
Rp2498
sg19
I00
sg20
g293
ssg655
(dp2499
g3
g4
((lp2500
g216
ag882
ag836
ag671
ag896
ag650
ag824
ag1632
ag2464
ag654
ag653
ag920
ag651
ag637
ag657
ag629
ag658
ag436
ag652
ag660
ag659
atp2501
Rp2502
sg19
I00
sg20
g655
ssg761
(dp2503
g3
g4
((lp2504
g777
ag199
ag780
ag778
ag463
ag30
ag486
ag779
ag757
ag505
ag751
ag781
ag381
ag358
ag435
ag421
ag782
ag783
ag784
ag785
ag786
ag774
ag400
ag765
ag197
atp2505
Rp2506
sg19
I00
sg20
g761
ssg637
(dp2507
g3
g4
((lp2508
g636
ag882
ag633
ag836
ag93
ag896
ag973
ag838
ag824
ag1632
ag975
ag2464
ag655
ag640
ag638
ag890
ag693
ag99
atp2509
Rp2510
sg19
I00
sg20
g637
ssg639
(dp2511
g3
g4
((lp2512
g633
ag2121
ag1433
ag691
atp2513
Rp2514
sg19
I00
sg20
g639
ssg1645
(dp2515
g3
g4
((lp2516
g1956
ag1641
ag1380
ag1644
ag1646
atp2517
Rp2518
sg19
I00
sg20
g1645
ssg266
(dp2519
g3
g4
((lp2520
g263
ag24
ag265
ag217
ag155
ag1095
ag1600
ag264
ag222
ag280
ag295
ag362
ag474
ag1004
ag267
ag268
ag247
ag748
ag1202
atp2521
Rp2522
sg19
I00
sg20
g266
ssg1065
(dp2523
g3
g4
((lp2524
g1085
ag325
ag1019
ag1088
ag1066
ag1090
ag359
ag1144
ag1112
ag367
ag314
ag921
ag268
ag1095
ag269
ag206
atp2525
Rp2526
sg19
I00
sg20
g1065
ssg201
(dp2527
g3
g4
((lp2528
g25
ag205
ag207
ag66
ag197
ag204
ag203
ag206
ag208
ag784
ag200
ag1127
ag1728
ag1105
ag924
ag43
ag1147
ag1634
ag62
ag1579
ag1775
ag336
ag1158
ag209
ag1184
ag1174
ag198
ag202
ag210
atp2529
Rp2530
sg19
I00
sg20
g201
ssg280
(dp2531
g3
g4
((lp2532
g24
ag279
ag748
ag155
ag276
ag277
ag483
ag278
ag266
ag223
ag295
ag217
ag474
ag1004
ag247
ag40
ag281
ag1202
atp2533
Rp2534
sg19
I00
sg20
g280
ssg257
(dp2535
g3
g4
((lp2536
g550
ag253
ag250
ag248
ag740
ag246
ag249
ag255
ag278
ag808
ag294
ag36
ag1073
ag2112
ag258
ag460
ag247
ag251
ag256
ag232
atp2537
Rp2538
sg19
I00
sg20
g257
ssg740
(dp2539
g3
g4
((lp2540
g257
ag741
ag742
ag278
ag808
ag294
ag745
ag1073
ag746
ag737
ag2016
ag748
ag232
ag630
atp2541
Rp2542
sg19
I00
sg20
g740
ssg7
(dp2543
g3
g4
((lp2544
g1
ag934
ag1462
ag627
ag2030
ag12
ag13
ag185
ag2016
ag733
atp2545
Rp2546
sg19
I00
sg20
g7
ssg2030
(dp2547
g3
g4
((lp2548
g817
ag7
ag2001
ag1983
ag2031
ag2032
ag185
ag1939
ag2226
ag2033
atp2549
Rp2550
sg19
I00
sg20
g2030
ssg808
(dp2551
g3
g4
((lp2552
g804
ag504
ag257
ag806
ag740
ag807
ag561
ag743
ag278
ag294
ag514
ag1073
ag1173
ag810
ag38
ag805
ag1094
ag232
ag476
atp2553
Rp2554
sg19
I00
sg20
g808
ssg294
(dp2555
g3
g4
((lp2556
g289
ag225
ag286
ag287
ag257
ag288
ag740
ag291
ag292
ag278
ag808
ag293
ag295
ag1073
ag296
ag297
ag39
ag1290
ag298
ag232
ag138
atp2557
Rp2558
sg19
I00
sg20
g294
ssg1073
(dp2559
g3
g4
((lp2560
g304
ag680
ag257
ag1072
ag740
ag854
ag310
ag278
ag808
ag294
ag1071
ag1002
ag387
ag232
ag349
atp2561
Rp2562
sg19
I00
sg20
g1073
ssg185
(dp2563
g3
g4
((lp2564
g179
ag415
ag180
ag181
ag413
ag7
ag414
ag2030
ag182
ag416
ag183
ag417
ag422
ag356
ag418
ag419
ag420
ag421
ag15
ag184
ag412
atp2565
Rp2566
sg19
I00
sg20
g185
ssg129
(dp2567
g3
g4
((lp2568
g131
ag58
ag1214
ag130
ag1528
ag1110
ag204
ag919
ag133
ag770
ag1148
ag60
ag135
ag576
ag841
ag809
ag1288
ag293
ag306
ag134
ag132
ag1552
atp2569
Rp2570
sg19
I00
sg20
g129
ssg1481
(dp2571
g3
g4
((lp2572
g1477
ag345
ag1478
ag1474
ag375
ag316
atp2573
Rp2574
sg19
I00
sg20
g1481
ssg232
(dp2575
g3
g4
((lp2576
g217
ag230
ag231
ag216
ag213
ag218
ag31
ag221
ag224
ag228
ag229
ag220
ag654
ag219
ag226
ag673
ag441
ag257
ag740
ag928
ag278
ag808
ag294
ag1073
atp2577
Rp2578
sg19
I00
sg20
g232
ssg1620
(dp2579
g3
g4
((lp2580
g111
ag1617
ag145
aS'ani'
p2581
ag166
ag860
ag566
ag980
atp2582
Rp2583
sg19
I00
sg20
g1620
ssg111
(dp2584
g3
g4
((lp2585
g1620
ag112
ag145
ag113
ag114
ag115
ag9
ag2581
ag80
ag166
ag83
ag117
ag118
ag116
ag980
ag119
atp2586
Rp2587
sg19
I00
sg20
g111
ssg501
(dp2588
g3
g4
((lp2589
g481
ag458
ag56
ag1594
ag2031
ag502
ag503
ag199
ag428
ag418
ag1429
ag567
ag364
ag376
ag505
ag506
ag509
ag476
ag511
ag508
ag57
ag512
ag513
ag370
ag514
ag515
atp2590
Rp2591
sg19
I00
sg20
g501
ssg145
(dp2592
g3
g4
((lp2593
g1620
ag143
ag144
ag111
ag146
ag2581
ag147
ag11
ag166
ag148
ag980
ag149
atp2594
Rp2595
sg19
I00
sg20
g145
ssg934
(dp2596
g3
g4
((lp2597
g362
ag748
ag1462
ag7
ag778
ag483
ag2127
ag886
ag502
ag935
ag375
ag627
ag756
ag2016
ag936
ag733
ag937
ag429
atp2598
Rp2599
sg19
I00
sg20
g934
ssg458
(dp2600
g3
g4
((lp2601
g481
ag501
ag56
ag1594
ag2031
ag541
ag199
ag428
ag418
ag1429
ag461
ag364
ag376
ag463
ag455
ag457
ag252
ag960
ag456
ag363
ag465
ag459
ag460
atp2602
Rp2603
sg19
I00
sg20
g458
ssg756
(dp2604
g3
g4
((lp2605
g326
ag934
ag935
ag483
ag886
ag502
ag375
ag362
ag760
ag936
ag778
ag937
ag429
ag754
ag883
ag751
ag612
ag763
ag755
ag611
ag758
ag764
ag762
atp2606
Rp2607
sg19
I00
sg20
g756
ssg1244
(dp2608
g3
g4
((lp2609
g1145
ag1977
ag1245
atp2610
Rp2611
sg19
I00
sg20
g1244
ssg56
(dp2612
g3
g4
((lp2613
g481
ag501
ag48
ag458
ag1594
ag2031
ag199
ag428
ag64
ag418
ag1429
ag816
ag364
ag376
ag813
ag821
ag822
ag823
ag63
ag826
ag827
ag59
ag530
ag828
ag788
ag829
atp2614
Rp2615
sg19
I00
sg20
g56
ssg1594
(dp2616
g3
g4
((lp2617
g481
ag501
ag458
ag56
ag818
ag2031
ag199
ag428
ag418
ag1429
ag1216
ag364
ag376
atp2618
Rp2619
sg19
I00
sg20
g1594
ssg2581
(dp2620
g3
g4
((lp2621
g1620
ag111
ag145
ag166
aS'ami'
p2622
ag980
atp2623
Rp2624
sg19
I00
sg20
g2581
ssg2031
(dp2625
g3
g4
((lp2626
g817
ag481
ag501
ag2032
ag364
ag458
ag1594
ag2001
ag56
ag1983
ag2030
ag199
ag428
ag418
ag1429
ag1939
ag2033
ag376
atp2627
Rp2628
sg19
I00
sg20
g2031
ssg502
(dp2629
g3
g4
((lp2630
g501
ag1168
ag934
ag935
ag756
ag483
ag886
ag503
ag375
ag362
ag936
ag778
ag937
ag429
ag505
ag506
ag509
ag511
ag508
ag512
ag513
ag370
ag514
ag515
atp2631
Rp2632
sg19
I00
sg20
g502
ssg166
(dp2633
g3
g4
((lp2634
g1620
ag111
ag163
ag145
ag164
ag2581
ag165
ag167
ag168
ag169
ag14
ag980
atp2635
Rp2636
sg19
I00
sg20
g166
ssg199
(dp2637
g3
g4
((lp2638
g481
ag501
ag777
ag458
ag56
ag1594
ag2031
ag428
ag418
ag1429
ag778
ag364
ag66
ag30
ag779
ag780
ag781
ag761
ag376
ag782
ag783
ag784
ag785
ag786
ag774
atp2639
Rp2640
sg19
I00
sg20
g199
ssg428
(dp2641
g3
g4
((lp2642
g427
ag481
ag501
ag458
ag56
ag1594
ag2031
ag199
ag418
ag1429
ag65
ag364
ag376
ag430
ag431
ag221
ag434
ag429
ag436
ag227
ag437
ag438
ag360
ag439
ag440
ag433
ag660
ag441
ag435
ag442
atp2643
Rp2644
sg19
I00
sg20
g428
ssg362
(dp2645
g3
g4
((lp2646
g934
ag935
ag756
ag483
ag886
ag266
ag375
ag365
ag1095
ag936
ag778
ag937
ag429
ag361
ag1600
ag364
ag358
ag368
ag352
ag366
ag367
ag502
atp2647
Rp2648
sg19
I00
sg20
g362
ssg418
(dp2649
g3
g4
((lp2650
g481
ag501
ag413
ag458
ag56
ag1594
ag2031
ag199
ag428
ag1429
ag364
ag376
ag417
ag471
ag419
ag420
ag421
ag415
ag356
ag414
ag416
ag422
ag412
ag185
atp2651
Rp2652
sg19
I00
sg20
g418
ssg1429
(dp2653
g3
g4
((lp2654
g481
ag501
ag1213
ag458
ag56
ag1594
ag2031
ag199
ag428
ag418
ag936
ag364
ag376
ag92
ag95
ag1430
ag1431
ag1296
ag640
ag765
ag1432
ag1433
ag695
ag696
ag1434
ag1108
ag787
atp2655
Rp2656
sg19
I00
sg20
g1429
ssg936
(dp2657
g3
g4
((lp2658
g1213
ag934
ag935
ag756
ag483
ag886
ag502
ag974
ag375
ag362
ag1429
ag778
ag937
ag429
ag92
ag694
ag1430
ag1431
ag1296
ag890
ag640
ag765
ag1432
ag1433
ag695
ag1434
ag1108
ag787
atp2659
Rp2660
sg19
I00
sg20
g936
ssg1977
(dp2661
g3
g4
((lp2662
g1398
ag379
ag1244
ag1403
ag347
ag1976
ag348
ag1973
atp2663
Rp2664
sg19
I00
sg20
g1977
ssg980
(dp2665
g3
g4
((lp2666
g1620
ag111
ag145
ag2581
ag166
ag875
atp2667
Rp2668
sg19
I00
sg20
g980
ssg364
(dp2669
g3
g4
((lp2670
g481
ag352
ag361
ag365
ag458
ag366
ag56
ag1594
ag501
ag2031
ag199
ag428
ag362
ag367
ag418
ag1429
ag265
ag358
ag368
ag376
atp2671
Rp2672
sg19
I00
sg20
g364
ssg376
(dp2673
g3
g4
((lp2674
g481
ag501
ag458
ag56
ag1594
ag2031
ag199
ag428
ag418
ag1429
ag364
ag377
ag378
ag379
ag388
ag381
ag382
ag344
ag307
ag383
ag384
ag385
ag380
ag386
ag375
ag387
atp2675
Rp2676
sg19
I00
sg20
g376
ssg559
(dp2677
g3
g4
((lp2678
g574
ag805
ag610
ag560
ag524
ag561
ag563
ag670
ag508
ag564
ag565
ag510
ag720
ag566
ag567
ag697
ag544
ag568
atp2679
Rp2680
sg19
I00
sg20
g559
ssg574
(dp2681
g3
g4
((lp2682
g559
ag288
ag610
ag290
ag525
ag544
ag720
ag573
ag670
ag1287
ag577
ag697
ag578
ag579
ag576
atp2683
Rp2684
sg19
I00
sg20
g574
ssg748
(dp2685
g3
g4
((lp2686
g24
ag217
ag737
ag155
ag740
ag934
ag741
ag742
ag2127
ag266
ag280
ag745
ag295
ag746
ag1004
ag247
ag474
ag1202
ag630
atp2687
Rp2688
sg19
I00
sg20
g748
ssg522
(dp2689
g3
g4
((lp2690
g518
ag906
ag523
ag1022
ag608
ag563
ag593
ag528
ag529
ag1756
ag64
ag62
ag1026
ag722
ag1727
ag533
ag534
atp2691
Rp2692
sg19
I00
sg20
g522
ssg906
(dp2693
g3
g4
((lp2694
g905
ag522
ag907
ag1756
ag741
ag608
ag563
ag593
ag744
ag12
ag1579
ag722
ag1727
ag909
atp2695
Rp2696
sg19
I00
sg20
g906
ssg610
(dp2697
g3
g4
((lp2698
g559
ag574
ag670
ag609
ag325
ag616
ag544
ag608
ag614
ag758
ag615
ag612
ag697
ag527
ag720
ag338
ag617
atp2699
Rp2700
sg19
I00
sg20
g610
ssg230
(dp2701
g3
g4
((lp2702
g427
ag217
ag737
ag248
ag747
ag743
ag293
ag279
ag919
ag231
ag27
ag216
ag213
ag218
ag31
ag221
ag224
ag228
ag229
ag220
ag653
ag219
ag226
ag669
ag232
atp2703
Rp2704
sg19
I00
sg20
g230
ssg544
(dp2705
g3
g4
((lp2706
g559
ag574
ag521
ag245
ag610
ag543
ag540
ag545
ag546
ag670
ag547
ag541
ag554
ag697
ag551
ag720
ag550
ag548
ag464
ag549
ag552
atp2707
Rp2708
sg19
I00
sg20
g544
ssg1416
(dp2709
g3
g4
((lp2710
g1415
ag1408
ag1884
ag1694
ag1417
ag1418
ag186
ag1646
atp2711
Rp2712
sg19
I00
sg20
g1416
ssg1694
(dp2713
g3
g4
((lp2714
g169
ag1380
ag1416
ag433
ag1646
atp2715
Rp2716
sg19
I00
sg20
g1694
ssg563
(dp2717
g3
g4
((lp2718
g559
ag804
ag522
ag906
ag1873
ag524
ag561
ag608
ag593
ag1756
ag564
ag565
ag512
ag510
ag566
ag722
ag1727
ag560
ag567
ag1174
ag568
atp2719
Rp2720
sg19
I00
sg20
g563
ssg593
(dp2721
g3
g4
((lp2722
g585
ag586
ag526
ag522
ag906
ag591
ag587
ag608
ag563
ag594
ag590
ag1756
ag842
ag489
ag493
ag592
ag722
ag1727
ag1184
ag275
atp2723
Rp2724
sg19
I00
sg20
g593
ssg99
(dp2725
g3
g4
((lp2726
g624
ag92
ag254
ag973
ag729
ag658
ag730
ag32
ag731
ag96
ag975
ag637
ag97
ag890
ag693
ag838
ag158
ag734
atp2727
Rp2728
sg19
I00
sg20
g99
ssg670
(dp2729
g3
g4
((lp2730
g665
ag666
ag559
ag574
ag667
ag656
ag610
ag668
ag669
ag544
ag697
ag921
ag720
ag671
ag672
ag226
ag440
ag673
ag674
ag432
ag164
ag531
atp2731
Rp2732
sg19
I00
sg20
g670
ssg1756
(dp2733
g3
g4
((lp2734
g1600
ag522
ag906
ag366
ag357
ag608
ag563
ag593
ag1733
ag1849
ag722
ag1727
atp2735
Rp2736
sg19
I00
sg20
g1756
ssg697
(dp2737
g3
g4
((lp2738
g559
ag574
ag694
ag690
ag610
ag691
ag636
ag532
ag544
ag689
ag692
ag696
ag670
ag1112
ag699
ag720
ag96
ag698
ag1434
atp2739
Rp2740
sg19
I00
sg20
g697
ssg720
(dp2741
g3
g4
((lp2742
g559
ag574
ag714
ag610
ag544
ag723
ag182
ag715
ag716
ag717
ag713
ag697
ag719
ag722
ag535
ag670
ag724
ag718
ag422
atp2743
Rp2744
sg19
I00
sg20
g720
ssg44
(dp2745
g3
g4
((lp2746
g24
ag28
ag29
ag292
ag943
ag45
ag35
ag43
ag781
ag229
ag209
ag21
ag26
ag27
atp2747
Rp2748
sg19
I00
sg20
g44
ssg722
(dp2749
g3
g4
((lp2750
g717
ag719
ag723
ag713
ag522
ag906
ag1350
ag608
ag563
ag593
ag715
ag1756
ag718
ag720
ag1727
ag415
ag714
ag1127
ag724
ag182
ag716
ag535
atp2751
Rp2752
sg19
I00
sg20
g722
ssg1727
(dp2753
g3
g4
((lp2754
g395
ag1599
ag394
ag522
ag906
ag1747
ag608
ag563
ag593
ag908
ag1756
ag1728
ag722
atp2755
Rp2756
sg19
I00
sg20
g1727
ssg1632
(dp2757
g3
g4
((lp2758
g882
ag254
ag836
ag2110
ag542
ag896
ag1606
ag824
ag2111
ag2464
ag625
ag655
ag960
ag2112
ag771
ag884
ag454
ag637
ag251
ag2101
ag552
atp2759
Rp2760
sg19
I00
sg20
g1632
ssg1646
(dp2761
g3
g4
((lp2762
S'emf'
p2763
ag1645
ag1694
ag1641
ag1416
aS'elf'
p2764
ag1644
atp2765
Rp2766
sg19
I00
sg20
g1646
ssS'pyx'
p2767
(dp2768
g3
g4
((lp2769
g361
ag1878
ag1733
ag1291
ag1088
atp2770
Rp2771
sg19
I00
sg20
g2767
ssg755
(dp2772
g3
g4
((lp2773
g754
ag611
ag985
ag756
ag329
ag751
ag758
ag416
ag760
ag439
ag762
ag385
ag763
ag764
aS'kaf'
p2774
atp2775
Rp2776
sg19
I00
sg20
g755
ssg400
(dp2777
g3
g4
((lp2778
g393
ag463
ag154
ag486
ag757
ag505
ag397
ag751
ag398
ag401
ag381
ag358
ag761
ag435
ag421
ag765
ag394
ag355
ag402
ag399
ag404
ag405
ag406
ag407
atp2779
Rp2780
sg19
I00
sg20
g400
ssg2774
(dp2781
g3
g4
((lp2782
g755
ag985
ag1956
ag2209
ag416
ag439
ag385
aS'kif'
p2783
atp2784
Rp2785
sg19
I00
sg20
g2774
ssg985
(dp2786
g3
g4
((lp2787
g755
ag2774
ag942
ag757
ag891
ag820
ag886
ag416
ag1214
ag1550
ag439
ag1551
ag385
atp2788
Rp2789
sg19
I00
sg20
g985
ssg1288
(dp2790
g3
g4
((lp2791
g601
ag1287
ag114
ag136
ag293
ag1214
ag1289
ag576
ag580
ag1552
ag1290
ag1291
ag129
atp2792
Rp2793
sg19
I00
sg20
g1288
ssS'who'
p2794
(dp2795
g3
g4
((lp2796
S'mho'
p2797
aS'oho'
p2798
ag2155
ag1585
ag1146
aS'rho'
p2799
ag1978
atp2800
Rp2801
sg19
I00
sg20
g2794
ssg416
(dp2802
g3
g4
((lp2803
g755
ag415
ag417
ag412
ag985
ag413
ag356
ag414
ag422
ag418
ag185
ag439
ag419
ag385
ag420
ag421
ag1124
ag2774
atp2804
Rp2805
sg19
I00
sg20
g416
ssg1867
(dp2806
g3
g4
((lp2807
g1864
ag554
ag116
ag13
ag149
atp2808
Rp2809
sg19
I00
sg20
g1867
ssg13
(dp2810
g3
g4
((lp2811
g1868
ag1
ag12
ag7
ag1867
ag116
ag149
atp2812
Rp2813
sg19
I00
sg20
g13
ssg2799
(dp2814
g3
g4
((lp2815
g1585
ag2797
ag2798
ag2794
atp2816
Rp2817
sg19
I00
sg20
g2799
ssg439
(dp2818
g3
g4
((lp2819
g427
ag428
ag429
ag430
ag431
ag434
ag435
ag436
ag227
ag755
ag2774
ag985
ag438
ag360
ag672
ag416
ag440
ag385
ag433
ag441
ag437
ag442
atp2820
Rp2821
sg19
I00
sg20
g439
ssg1878
(dp2822
g3
g4
((lp2823
g2767
ag1196
ag1652
ag41
ag1291
atp2824
Rp2825
sg19
I00
sg20
g1878
ssg116
(dp2826
g3
g4
((lp2827
g111
ag112
ag113
ag114
ag115
ag9
ag603
ag1867
ag13
ag83
ag117
ag75
ag118
ag149
ag119
atp2828
Rp2829
sg19
I00
sg20
g116
ssg1291
(dp2830
g3
g4
((lp2831
g2767
ag601
ag114
ag1288
ag136
ag573
ag1287
ag1878
ag580
ag39
ag1290
ag1289
atp2832
Rp2833
sg19
I00
sg20
g1291
ssg149
(dp2834
g3
g4
((lp2835
g143
ag144
ag145
ag146
aS'twa'
p2836
ag147
ag11
ag1867
ag13
ag116
ag148
atp2837
Rp2838
sg19
I00
sg20
g149
ssS'urd'
p2839
(dp2840
g3
g4
((lp2841
g1490
ag2294
atp2842
Rp2843
sg19
I00
sg20
g2839
ssg553
(dp2844
g3
g4
((lp2845
g588
ag1630
ag542
ag1606
ag1222
ag770
ag462
ag1631
ag1634
ag1633
ag521
ag1461
ag54
aS'doc'
p2846
ag1491
ag132
ag258
ag2074
ag721
ag210
ag675
ag990
atp2847
Rp2848
sg19
I00
sg20
g553
ssg1350
(dp2849
g3
g4
((lp2850
g650
ag415
ag1352
ag1127
ag1123
ag1351
ag1873
ag842
ag1026
ag722
ag2101
ag734
atp2851
Rp2852
sg19
I00
sg20
g1350
ssg1461
(dp2853
g3
g4
((lp2854
g553
ag54
ag1462
ag2846
ag210
ag588
ag132
ag732
ag746
ag2127
ag1579
ag2074
ag721
ag2025
ag675
atp2855
Rp2856
sg19
I00
sg20
g1461
ssg54
(dp2857
g3
g4
((lp2858
g518
ag52
ag553
ag48
ag1461
ag51
ag2846
ag60
ag588
ag132
ag61
ag62
ag530
ag2074
ag721
ag210
ag675
atp2859
Rp2860
sg19
I00
sg20
g54
ssg2846
(dp2861
g3
g4
((lp2862
g553
ag1461
ag54
ag53
ag588
ag132
ag1775
ag2074
ag721
ag210
ag675
atp2863
Rp2864
sg19
I00
sg20
g2846
ssg1490
(dp2865
g3
g4
((lp2866
g2839
ag1410
ag2294
atp2867
Rp2868
sg19
I00
sg20
g1490
ssg588
(dp2869
g3
g4
((lp2870
g1180
ag1019
ag589
ag488
ag1181
ag841
ag491
ag1182
ag1183
ag1184
ag553
ag1461
ag54
ag2846
ag526
ag132
ag1185
ag2074
ag721
ag210
ag675
ag1096
atp2871
Rp2872
sg19
I00
sg20
g588
ssg132
(dp2873
g3
g4
((lp2874
g131
ag130
ag553
ag1461
ag54
ag525
ag58
ag588
ag210
ag133
ag575
ag580
ag2846
ag2074
ag721
ag129
ag135
ag298
ag675
ag134
atp2875
Rp2876
sg19
I00
sg20
g132
ssg117
(dp2877
g3
g4
((lp2878
g111
ag112
ag113
ag114
ag115
ag9
ag83
ag118
ag116
ag119
atp2879
Rp2880
sg19
I00
sg20
g117
ssg2074
(dp2881
g3
g4
((lp2882
g1424
ag553
ag396
ag1461
ag54
ag1528
ag2846
ag588
ag132
ag1827
ag1728
ag721
ag2075
ag210
ag675
ag320
atp2883
Rp2884
sg19
I00
sg20
g2074
ssg721
(dp2885
g3
g4
((lp2886
g1122
ag553
ag1461
ag54
ag1127
ag2846
ag1091
ag588
ag1126
ag132
ag1128
ag2074
ag1124
ag1129
ag210
ag675
ag535
atp2887
Rp2888
sg19
I00
sg20
g721
ssg210
(dp2889
g3
g4
((lp2890
g25
ag45
ag207
ag132
ag66
ag197
ag204
ag203
ag206
ag208
ag200
ag201
ag785
ag209
ag553
ag1461
ag198
ag54
ag2846
ag588
ag202
ag205
ag2074
ag721
ag675
atp2891
Rp2892
sg19
I00
sg20
g210
ssg675
(dp2893
g3
g4
((lp2894
g922
ag929
ag65
ag918
ag919
ag920
ag921
ag317
ag923
ag924
ag925
ag926
ag531
ag553
ag927
ag1461
ag54
ag2846
ag928
ag588
ag132
ag2074
ag721
ag210
atp2895
Rp2896
sg19
I00
sg20
g675
ssg1375
(dp2897
g3
g4
((lp2898
g1374
ag1088
ag25
ag922
ag1371
ag97
ag732
ag61
ag37
ag2379
ag1939
ag1169
ag1324
atp2899
Rp2900
sg19
I00
sg20
g1375
ssS'ugh'
p2901
(dp2902
g3
g4
((lp2903
tp2904
Rp2905
sg19
I00
sg20
g2901
ssg1107
(dp2906
g3
g4
((lp2907
g1109
ag1106
ag2150
ag1089
ag918
ag1110
ag1105
ag1146
ag97
ag974
ag1112
ag1222
ag1126
ag638
ag135
ag1111
ag1181
ag197
ag765
atp2908
Rp2909
sg19
I00
sg20
g1107
ssg1717
(dp2910
g3
g4
((lp2911
g827
ag645
ag59
ag1066
ag824
ag885
ag2122
ag626
ag1657
ag843
ag1026
ag1014
atp2912
Rp2913
sg19
I00
sg20
g1717
ssg1126
(dp2914
g3
g4
((lp2915
g1122
ag1128
ag1127
ag918
ag197
ag1091
ag1107
ag1146
ag1222
ag719
ag2150
ag135
ag721
ag1124
ag421
ag1181
ag1129
atp2916
Rp2917
sg19
I00
sg20
g1126
ssg80
(dp2918
g3
g4
((lp2919
g111
ag73
ag75
ag78
ag74
ag82
ag797
ag69
ag76
ag86
atp2920
Rp2921
sg19
I00
sg20
g80
ssg378
(dp2922
g3
g4
((lp2923
g379
ag386
ag344
ag377
ag307
ag383
ag779
ag397
ag387
ag388
ag375
ag823
ag384
ag381
ag315
ag490
ag385
ag382
ag763
ag380
ag376
atp2924
Rp2925
sg19
I00
sg20
g378
ssg1782
(dp2926
g3
g4
((lp2927
g1781
ag1778
ag87
atp2928
Rp2929
sg19
I00
sg20
g1782
ssg779
(dp2930
g3
g4
((lp2931
g823
ag777
ag29
ag784
ag378
ag774
ag778
ag200
ag397
ag30
ag199
ag785
ag781
ag780
ag761
ag490
ag786
ag763
ag782
ag783
atp2932
Rp2933
sg19
I00
sg20
g779
ssg291
(dp2934
g3
g4
((lp2935
g289
ag286
ag287
ag288
ag806
ag1037
ag292
ag293
ag294
ag295
ag225
ag296
ag297
ag39
ag298
ag138
atp2936
Rp2937
sg19
I00
sg20
g291
ssg397
(dp2938
g3
g4
((lp2939
g154
ag394
ag406
ag393
ag378
ag355
ag407
ag402
ag398
ag823
ag401
ag779
ag399
ag490
ag404
ag763
ag400
ag405
atp2940
Rp2941
sg19
I00
sg20
g397
ssg1146
(dp2942
g3
g4
((lp2943
g305
ag1143
ag918
ag197
ag2794
ag1144
ag1126
ag1107
ag1222
ag1147
ag1148
ag2150
ag1092
ag135
ag1181
ag1149
ag1150
atp2944
Rp2945
sg19
I00
sg20
g1146
ssg845
(dp2946
g3
g4
((lp2947
g1123
ag836
ag485
ag589
ag842
ag843
ag680
ag837
ag1229
ag587
ag730
ag840
ag654
ag2112
ag2122
ag899
ag1173
ag832
ag274
ag278
ag495
ag1096
atp2948
Rp2949
sg19
I00
sg20
g845
ssg823
(dp2950
g3
g4
((lp2951
g816
ag827
ag813
ag378
ag530
ag56
ag397
ag821
ag822
ag828
ag788
ag779
ag490
ag829
ag763
ag826
atp2952
Rp2953
sg19
I00
sg20
g823
ssg490
(dp2954
g3
g4
((lp2955
g481
ag586
ag491
ag837
ag378
ag486
ag779
ag483
ag492
ag397
ag482
ag487
ag485
ag823
ag493
ag1183
ag494
ag496
ag763
ag369
ag484
atp2956
Rp2957
sg19
I00
sg20
g490
ssg763
(dp2958
g3
g4
((lp2959
g754
ag755
ag609
ag611
ag378
ag779
ag397
ag751
ag758
ag756
ag332
ag823
ag760
ag490
ag762
ag764
atp2960
Rp2961
sg19
I00
sg20
g763
ssg636
(dp2962
g3
g4
((lp2963
g696
ag96
ag694
ag93
ag690
ag691
ag692
ag697
ag699
ag638
ag640
ag714
ag671
ag689
ag1671
ag565
ag578
ag698
ag533
ag552
ag633
ag637
ag532
atp2964
Rp2965
sg19
I00
sg20
g636
ssg714
(dp2966
g3
g4
((lp2967
g636
ag713
ag723
ag671
ag715
ag1317
ag718
ag182
ag724
ag716
ag717
ag1671
ag565
ag578
ag720
ag719
ag722
ag420
ag533
ag552
ag535
atp2968
Rp2969
sg19
I00
sg20
g714
ssg671
(dp2970
g3
g4
((lp2971
g665
ag666
ag216
ag667
ag656
ag432
ag668
ag669
ag670
ag920
ag552
ag436
ag636
ag714
ag672
ag655
ag1671
ag565
ag578
ag673
ag533
ag674
ag164
ag531
atp2972
Rp2973
sg19
I00
sg20
g671
ssg2150
(dp2974
g3
g4
((lp2975
g1658
ag918
ag197
ag1107
ag1126
ag1146
ag1222
ag135
ag1181
atp2976
Rp2977
sg19
I00
sg20
g2150
ssg220
(dp2978
g3
g4
((lp2979
g217
ag230
ag231
ag216
ag213
ag656
ag218
ag31
ag221
ag224
ag228
ag317
ag229
ag310
ag438
ag219
ag226
ag296
ag810
ag256
ag1027
ag630
ag629
ag232
atp2980
Rp2981
sg19
I00
sg20
g220
ssg310
(dp2982
g3
g4
((lp2983
g854
ag1071
ag307
ag220
ag1072
ag1073
ag301
ag296
ag810
ag1002
ag318
ag349
ag256
ag1027
ag630
atp2984
Rp2985
sg19
I00
sg20
g310
ssg843
(dp2986
g3
g4
((lp2987
g730
ag836
ag1019
ag645
ag276
ag1066
ag274
ag492
ag840
ag589
ag495
ag842
ag1717
ag832
ag845
ag837
atp2988
Rp2989
sg19
I00
sg20
g843
ssg135
(dp2990
g3
g4
((lp2991
g131
ag130
ag1107
ag289
ag918
ag757
ag58
ag1126
ag132
ag133
ag1146
ag1222
ag134
ag2150
ag1181
ag1289
ag197
ag129
atp2992
Rp2993
sg19
I00
sg20
g135
ssg1671
(dp2994
g3
g4
((lp2995
g636
ag714
ag671
ag1670
ag1601
ag565
ag578
ag533
ag552
ag1672
atp2996
Rp2997
sg19
I00
sg20
g1671
ssg565
(dp2998
g3
g4
((lp2999
g636
ag559
ag1170
ag714
ag671
ag560
ag524
ag561
ag506
ag563
ag1671
ag578
ag510
ag564
ag566
ag567
ag533
ag552
ag568
atp3000
Rp3001
sg19
I00
sg20
g565
ssg578
(dp3002
g3
g4
((lp3003
g636
ag882
ag130
ag714
ag671
ag574
ag525
ag290
ag820
ag573
ag577
ag1671
ag565
ag579
ag576
ag533
ag552
atp3004
Rp3005
sg19
I00
sg20
g578
ssg296
(dp3006
g3
g4
((lp3007
g291
ag293
ag295
ag287
ag289
ag292
ag577
ag225
ag297
ag39
ag138
ag286
ag288
ag220
ag310
ag810
ag1551
ag256
ag1027
ag630
ag294
ag298
atp3008
Rp3009
sg19
I00
sg20
g296
ssg810
(dp3010
g3
g4
((lp3011
g804
ag504
ag805
ag806
ag220
ag309
ag310
ag807
ag743
ag808
ag564
ag476
ag296
ag38
ag513
ag256
ag1027
ag630
atp3012
Rp3013
sg19
I00
sg20
g810
ssg580
(dp3014
g3
g4
((lp3015
g601
ag114
ag525
ag1291
ag136
ag575
ag132
ag1287
ag1289
ag1288
ag1290
ag298
atp3016
Rp3017
sg19
I00
sg20
g580
ssg997
(dp3018
g3
g4
((lp3019
g993
ag805
ag288
ag276
ag998
ag473
ag226
ag1000
ag1001
ag268
ag1002
ag1003
ag1202
atp3020
Rp3021
sg19
I00
sg20
g997
ssg256
(dp3022
g3
g4
((lp3023
g246
ag253
ag257
ag296
ag248
ag220
ag249
ag310
ag255
ag625
ag250
ag456
ag36
ag258
ag810
ag247
ag548
ag251
ag1027
ag630
atp3024
Rp3025
sg19
I00
sg20
g256
ssg1027
(dp3026
g3
g4
((lp3027
g220
ag1022
ag310
ag1025
ag2121
ag63
ag626
ag828
ag296
ag810
ag825
ag256
ag630
atp3028
Rp3029
sg19
I00
sg20
g1027
ssg630
(dp3030
g3
g4
((lp3031
g737
ag740
ag220
ag741
ag310
ag742
ag621
ag745
ag627
ag746
ag296
ag810
ag748
ag256
ag1027
atp3032
Rp3033
sg19
I00
sg20
g630
ssg600
(dp3034
g3
g4
((lp3035
g2763
ag601
ag602
ag597
ag603
ag2273
ag81
ag1418
atp3036
Rp3037
sg19
I00
sg20
g600
ssg441
(dp3038
g3
g4
((lp3039
g427
ag428
ag442
ag429
ag430
ag431
ag434
ag435
ag436
ag227
ag437
ag438
ag360
ag654
ag439
ag440
ag673
ag433
ag406
ag412
ag1108
ag928
ag387
ag485
ag514
ag2033
ag1156
ag460
ag2016
ag829
ag232
atp3040
Rp3041
sg19
I00
sg20
g441
ssg2763
(dp3042
g3
g4
((lp3043
g600
ag2273
ag2764
ag1418
ag1646
atp3044
Rp3045
sg19
I00
sg20
g2763
ssg406
(dp3046
g3
g4
((lp3047
g393
ag1226
ag154
ag397
ag398
ag355
ag401
ag399
ag400
ag394
ag1229
ag402
ag404
ag405
ag441
ag412
ag1108
ag407
ag387
ag485
ag514
ag1156
ag460
ag2016
ag829
ag2033
atp3048
Rp3049
sg19
I00
sg20
g406
ssg412
(dp3050
g3
g4
((lp3051
g413
ag418
ag417
ag1125
ag1123
ag419
ag420
ag421
ag415
ag356
ag414
ag416
ag724
ag422
ag441
ag406
ag1108
ag1091
ag387
ag485
ag514
ag185
ag1156
ag460
ag2016
ag829
ag2033
atp3052
Rp3053
sg19
I00
sg20
g412
ssg1108
(dp3054
g3
g4
((lp3055
g1213
ag1429
ag936
ag1296
ag92
ag1430
ag1431
ag640
ag765
ag1432
ag1433
ag695
ag1434
ag441
ag406
ag412
ag1089
ag787
ag387
ag485
ag514
ag1156
ag460
ag2016
ag829
ag2033
atp3056
Rp3057
sg19
I00
sg20
g1108
ssg1478
(dp3058
g3
g4
((lp3059
g1477
ag345
ag2141
ag1474
ag316
ag1978
ag1574
ag375
ag888
ag2156
ag1481
atp3060
Rp3061
sg19
I00
sg20
g1478
ssg1403
(dp3062
g3
g4
((lp3063
g1398
ag386
ag308
ag1976
ag348
ag1977
ag1973
atp3064
Rp3065
sg19
I00
sg20
g1403
ssg387
(dp3066
g3
g4
((lp3067
g375
ag344
ag376
ag377
ag378
ag379
ag388
ag381
ag382
ag680
ag307
ag383
ag386
ag384
ag385
ag380
ag304
ag441
ag406
ag412
ag1108
ag485
ag514
ag1073
ag1156
ag460
ag2016
ag829
ag2033
atp3068
Rp3069
sg19
I00
sg20
g387
ssg2273
(dp3070
g3
g4
((lp3071
g600
ag2763
aS'amu'
p3072
ag2270
ag1418
ag1215
atp3073
Rp3074
sg19
I00
sg20
g2273
ssg485
(dp3075
g3
g4
((lp3076
g481
ag482
ag483
ag496
ag484
ag486
ag487
ag845
ag490
ag491
ag587
ag492
ag493
ag494
ag369
ag441
ag406
ag412
ag1108
ag278
ag387
ag514
ag1156
ag460
ag2016
ag829
ag2033
ag1096
atp3077
Rp3078
sg19
I00
sg20
g485
ssg514
(dp3079
g3
g4
((lp3080
g501
ag502
ag503
ag505
ag506
ag509
ag1173
ag511
ag508
ag561
ag512
ag513
ag370
ag441
ag406
ag412
ag1108
ag808
ag387
ag485
ag1156
ag460
ag2016
ag829
ag1094
ag2033
ag515
atp3081
Rp3082
sg19
I00
sg20
g514
ssS'oxo'
p3083
(dp3084
g3
g4
((lp3085
g2798
aS'oxy'
p3086
atp3087
Rp3088
sg19
I00
sg20
g3083
ssg888
(dp3089
g3
g4
((lp3090
g879
ag1478
ag886
ag1574
ag295
ag2156
ag1552
atp3091
Rp3092
sg19
I00
sg20
g888
ssg1418
(dp3093
g3
g4
((lp3094
g600
ag796
ag2763
ag1415
ag1408
ag1416
ag2273
ag1417
ag186
atp3095
Rp3096
sg19
I00
sg20
g1418
ssg1156
(dp3097
g3
g4
((lp3098
g441
ag406
ag412
ag1108
ag387
ag485
ag514
ag1159
ag460
ag1093
ag2016
ag829
ag2033
atp3099
Rp3100
sg19
I00
sg20
g1156
ssg460
(dp3101
g3
g4
((lp3102
g458
ag461
ag463
ag455
ag457
ag252
ag550
ag456
ag2112
ag257
ag465
ag441
ag406
ag412
ag1108
ag387
ag485
ag514
ag459
ag1156
ag363
ag2016
ag829
ag2033
atp3103
Rp3104
sg19
I00
sg20
g460
ssg2016
(dp3105
g3
g4
((lp3106
g441
ag406
ag412
ag1108
ag934
ag1462
ag7
ag387
ag485
ag514
ag627
ag740
ag1156
ag460
ag829
ag733
ag2033
atp3107
Rp3108
sg19
I00
sg20
g2016
ssg829
(dp3109
g3
g4
((lp3110
g56
ag816
ag813
ag821
ag822
ag823
ag826
ag827
ag530
ag828
ag2122
ag441
ag406
ag412
ag1108
ag387
ag485
ag514
ag788
ag1156
ag460
ag2016
ag2033
atp3111
Rp3112
sg19
I00
sg20
g829
ssg2033
(dp3113
g3
g4
((lp3114
g817
ag441
ag1939
ag406
ag412
ag1108
ag2001
ag1983
ag2030
ag2031
ag387
ag485
ag514
ag2032
ag1156
ag460
ag2016
ag829
atp3115
Rp3116
sg19
I00
sg20
g2033
ssg24
(dp3117
g3
g4
((lp3118
g27
ag28
ag29
ag21
ag266
ag295
ag45
ag280
ag35
ag43
ag217
ag474
ag26
ag1004
ag247
ag44
ag748
ag778
ag207
ag1202
ag155
atp3119
Rp3120
sg19
I00
sg20
g24
ssg180
(dp3121
g3
g4
((lp3122
g179
ag79
ag163
ag181
ag1408
ag185
ag182
aS'arm'
p3123
ag183
ag124
ag2299
ag83
ag1647
ag240
ag15
ag184
atp3124
Rp3125
sg19
I00
sg20
g180
ssg163
(dp3126
g3
g4
((lp3127
g180
ag164
ag77
ag167
ag165
ag166
ag124
ag2299
ag83
ag1647
ag168
ag169
ag14
ag240
ag3123
atp3128
Rp3129
sg19
I00
sg20
g163
ssg155
(dp3130
g3
g4
((lp3131
g24
ag1599
ag217
ag156
ag33
ag266
ag280
ag295
ag474
ag1004
ag247
ag157
ag748
ag1202
atp3132
Rp3133
sg19
I00
sg20
g155
ssS'ebb'
p3134
(dp3135
g3
g4
((lp3136
tp3137
Rp3138
sg19
I00
sg20
g3134
ssg804
(dp3139
g3
g4
((lp3140
g504
ag805
ag806
ag1873
ag1022
ag741
ag255
ag743
ag563
ag808
ag219
ag43
ag512
ag810
ag38
ag807
ag476
ag1174
atp3141
Rp3142
sg19
I00
sg20
g804
ssg652
(dp3143
g3
g4
((lp3144
g2111
ag651
ag650
ag653
ag1351
ag654
ag655
ag658
ag660
ag657
ag629
ag926
ag229
ag900
ag674
ag659
atp3145
Rp3146
sg19
I00
sg20
g652
ssg1351
(dp3147
g3
g4
((lp3148
g1350
ag1123
ag652
ag2111
ag1352
ag734
ag900
ag1129
atp3149
Rp3150
sg19
I00
sg20
g1351
ssg278
(dp3151
g3
g4
((lp3152
g281
ag257
ag223
ag740
ag276
ag277
ag587
ag279
ag808
ag294
ag280
ag485
ag1073
ag40
ag845
ag232
ag1096
atp3153
Rp3154
sg19
I00
sg20
g278
ssg2111
(dp3155
g3
g4
((lp3156
g254
ag960
ag542
ag457
ag1632
ag2110
ag625
ag1351
ag2112
ag771
ag884
ag454
ag2101
ag900
ag652
atp3157
Rp3158
sg19
I00
sg20
g2111
ssg124
(dp3159
g3
g4
((lp3160
g180
ag163
ag2294
ag10
ag2299
ag83
ag1647
ag240
ag85
ag3123
atp3161
Rp3162
sg19
I00
sg20
g124
ssg2299
(dp3163
g3
g4
((lp3164
g180
ag163
ag72
ag124
ag83
ag1647
ag240
ag3123
atp3165
Rp3166
sg19
I00
sg20
g2299
ssg474
(dp3167
g3
g4
((lp3168
g24
ag1601
ag217
ag155
ag935
ag266
ag280
ag295
ag1004
ag247
ag468
ag748
ag1202
ag42
atp3169
Rp3170
sg19
I00
sg20
g474
ssg83
(dp3171
g3
g4
((lp3172
g111
ag180
ag163
ag113
ag114
ag115
ag9
ag69
ag84
ag117
ag81
ag124
ag2299
ag1647
ag112
ag118
ag116
ag240
ag3123
ag119
atp3173
Rp3174
sg19
I00
sg20
g83
ssg1647
(dp3175
g3
g4
((lp3176
g180
ag163
ag1641
ag124
ag2299
ag83
ag240
ag3123
atp3177
Rp3178
sg19
I00
sg20
g1647
ssg247
(dp3179
g3
g4
((lp3180
g24
ag217
ag155
ag248
ag246
ag1633
ag280
ag295
ag474
ag1004
ag748
ag1202
ag249
ag884
ag250
ag36
ag251
ag549
ag253
ag255
ag1699
ag266
ag256
ag257
ag258
atp3181
Rp3182
sg19
I00
sg20
g247
ssg240
(dp3183
g3
g4
((lp3184
g180
ag163
aS'irk'
p3185
ag235
ag124
ag2299
ag83
ag1647
ag238
ag3123
atp3186
Rp3187
sg19
I00
sg20
g240
ssg900
(dp3188
g3
g4
((lp3189
g754
ag883
ag896
ag616
ag613
ag731
ag943
ag1351
ag330
ag2111
ag328
ag897
ag898
ag899
ag844
ag652
atp3190
Rp3191
sg19
I00
sg20
g900
ssg3123
(dp3192
g3
g4
((lp3193
g180
ag163
ag529
ag124
ag2299
ag83
ag1647
ag240
atp3194
Rp3195
sg19
I00
sg20
g3123
ssg1202
(dp3196
g3
g4
((lp3197
g24
ag217
ag155
ag997
ag1517
ag266
ag280
ag295
ag473
ag474
ag1004
ag247
ag748
ag1480
atp3198
Rp3199
sg19
I00
sg20
g1202
ssg288
(dp3200
g3
g4
((lp3201
g296
ag291
ag293
ag1287
ag295
ag574
ag287
ag289
ag292
ag225
ag297
ag39
ag138
ag993
ag286
ag805
ag276
ag997
ag998
ag226
ag1000
ag1001
ag268
ag1002
ag1003
ag294
ag298
atp3202
Rp3203
sg19
I00
sg20
g288
ssg650
(dp3204
g3
g4
((lp3205
g651
ag437
ag1350
ag1873
ag653
ag652
ag658
ag654
ag924
ag655
ag219
ag842
ag657
ag629
ag1026
ag2101
ag660
ag659
atp3206
Rp3207
sg19
I00
sg20
g650
ssg645
(dp3208
g3
g4
((lp3209
g1066
ag628
ag1001
ag843
ag1060
ag1717
atp3210
Rp3211
sg19
I00
sg20
g645
ssg1066
(dp3212
g3
g4
((lp3213
g835
ag645
ag367
ag843
ag268
ag1065
ag1717
atp3214
Rp3215
sg19
I00
sg20
g1066
ssg918
(dp3216
g3
g4
((lp3217
g922
ag665
ag1126
ag65
ag197
ag1107
ag919
ag1146
ag1222
ag2150
ag228
ag135
ag317
ag1181
ag435
ag923
ag921
ag924
ag925
ag926
ag927
ag928
ag920
ag675
ag929
atp3218
Rp3219
sg19
I00
sg20
g918
ssg197
(dp3220
g3
g4
((lp3221
g25
ag204
ag205
ag207
ag66
ag918
ag1107
ag1126
ag203
ag1146
ag1222
ag206
ag2150
ag135
ag1181
ag200
ag208
ag201
ag761
ag209
ag198
ag202
ag210
atp3222
Rp3223
sg19
I00
sg20
g197
ssg419
(dp3224
g3
g4
((lp3225
g1217
ag415
ag417
ag455
ag412
ag413
ag356
ag414
ag421
ag416
ag717
ag418
ag185
ag1769
ag399
ag420
ag1514
ag782
ag227
ag422
atp3226
Rp3227
sg19
I00
sg20
g419
ssg57
(dp3228
g3
g4
((lp3229
g1170
ag809
ag48
ag1172
ag309
ag55
ag53
ag501
ag65
ag58
ag1171
ag1168
ag1175
ag1169
ag66
ag1094
ag567
ag476
ag1174
atp3230
Rp3231
sg19
I00
sg20
g57
ssg231
(dp3232
g3
g4
((lp3233
g216
ag1323
ag213
ag217
ag218
ag220
ag996
ag246
ag31
ag221
ag219
ag224
ag226
ag26
ag228
ag94
ag229
ag230
ag2320
ag232
atp3234
Rp3235
sg19
I00
sg20
g231
ssg1873
(dp3236
g3
g4
((lp3237
g804
ag1350
ag842
ag729
ag650
ag562
ag563
ag862
ag507
ag1500
ag512
ag1537
ag1026
ag2101
ag1173
ag1174
atp3238
Rp3239
sg19
I00
sg20
g1873
ssg842
(dp3240
g3
g4
((lp3241
g650
ag836
ag837
ag1350
ag495
ag730
ag840
ag593
ag589
ag1873
ag274
ag493
ag843
ag1026
ag2101
ag1184
ag845
ag832
atp3242
Rp3243
sg19
I00
sg20
g842
ssg3185
(dp3244
g3
g4
((lp3245
S'ick'
p3246
ag240
aS'ink'
p3247
ag84
aS'ilk'
p3248
atp3249
Rp3250
sg19
I00
sg20
g3185
ssg699
(dp3251
g3
g4
((lp3252
g636
ag560
ag689
ag690
ag691
ag975
ag545
ag692
ag1430
ag696
ag694
ag697
ag96
ag94
ag698
ag532
atp3253
Rp3254
sg19
I00
sg20
g699
ssg747
(dp3255
g3
g4
((lp3256
g993
ag2836
ag737
ag248
ag996
ag743
ag293
ag999
ag279
ag1004
ag230
ag41
ag27
atp3257
Rp3258
sg19
I00
sg20
g747
ssg174
(dp3259
g3
g4
((lp3260
g1117
ag76
atp3261
Rp3262
sg19
I00
sg20
g174
ssg2209
(dp3263
g3
g4
((lp3264
g253
ag2774
ag277
ag999
ag1071
ag267
ag475
ag2783
ag100
atp3265
Rp3266
sg19
I00
sg20
g2209
ssg1026
(dp3267
g3
g4
((lp3268
g650
ag522
ag1350
ag59
ag1022
ag824
ag885
ag626
ag1873
ag842
ag1657
ag62
ag2122
ag1014
ag2101
ag1717
atp3269
Rp3270
sg19
I00
sg20
g1026
ssg1181
(dp3271
g3
g4
((lp3272
g585
ag1180
ag1019
ag1222
ag486
ag2150
ag197
ag1182
ag588
ag1126
ag1107
ag1146
ag488
ag1185
ag1183
ag135
ag918
ag1184
ag841
ag1096
atp3273
Rp3274
sg19
I00
sg20
g1181
ssg2101
(dp3275
g3
g4
((lp3276
g454
ag254
ag960
ag1350
ag542
ag650
ag884
ag1632
ag255
ag2110
ag625
ag2111
ag1873
ag842
ag2112
ag1634
ag771
ag1026
ag465
atp3277
Rp3278
sg19
I00
sg20
g2101
ssg84
(dp3279
g3
g4
((lp3280
g69
ag81
ag3185
ag83
aS'ice'
p3281
atp3282
Rp3283
sg19
I00
sg20
g84
ssg835
(dp3284
g3
g4
((lp3285
g1066
ag368
ag653
ag839
ag771
ag844
ag838
ag832
atp3286
Rp3287
sg19
I00
sg20
g835
ssg253
(dp3288
g3
g4
((lp3289
g257
ag1071
ag248
ag246
ag249
ag2209
ag255
ag250
ag999
ag277
ag36
ag551
ag258
ag267
ag247
ag251
ag256
ag100
atp3290
Rp3291
sg19
I00
sg20
g253
ssg255
(dp3292
g3
g4
((lp3293
g804
ag257
ag248
ag253
ag1022
ag741
ag219
ag246
ag36
ag250
ag249
ag43
ag1634
ag258
ag247
ag251
ag2101
ag256
ag465
atp3294
Rp3295
sg19
I00
sg20
g255
ssg923
(dp3296
g3
g4
((lp3297
g927
ag218
ag200
ag315
ag922
ag918
ag928
ag920
ag919
ag924
ag925
ag332
ag921
ag134
ag657
ag1183
ag926
ag317
ag65
ag675
ag929
atp3298
Rp3299
sg19
I00
sg20
g923
ssg200
(dp3300
g3
g4
((lp3301
g923
ag29
ag198
ag66
ag779
ag197
ag201
ag204
ag202
ag203
ag332
ag205
ag134
ag207
ag1183
ag208
ag315
ag209
ag25
ag210
ag206
atp3302
Rp3303
sg19
I00
sg20
g200
ssg277
(dp3304
g3
g4
((lp3305
g253
ag276
ag2209
ag278
ag999
ag279
ag280
ag223
ag1071
ag267
ag40
ag281
ag100
atp3306
Rp3307
sg19
I00
sg20
g277
ssg315
(dp3308
g3
g4
((lp3309
g304
ag306
ag923
ag378
ag308
ag200
ag312
ag332
ag301
ag134
ag1183
ag316
ag319
atp3310
Rp3311
sg19
I00
sg20
g315
ssg653
(dp3312
g3
g4
((lp3313
g427
ag650
ag651
ag657
ag838
ag652
ag835
ag919
ag655
ag839
ag669
ag654
ag771
ag629
ag658
ag844
ag659
ag230
ag660
ag832
atp3314
Rp3315
sg19
I00
sg20
g653
ssg999
(dp3316
g3
g4
((lp3317
g253
ag1004
ag996
ag993
ag277
ag2209
ag1157
ag1071
ag267
ag747
ag41
ag100
atp3318
Rp3319
sg19
I00
sg20
g999
ssg796
(dp3320
g3
g4
((lp3321
g708
ag794
ag791
ag79
ag1418
ag797
ag799
atp3322
Rp3323
sg19
I00
sg20
g796
ssg839
(dp3324
g3
g4
((lp3325
g835
aS'dui'
p3326
ag838
ag653
ag771
ag844
ag832
atp3327
Rp3328
sg19
I00
sg20
g839
ssg332
(dp3329
g3
g4
((lp3330
g325
ag326
ag609
ag336
ag200
ag315
ag55
ag329
ag331
ag330
ag313
ag333
ag923
ag134
ag334
ag1183
ag327
ag337
ag763
atp3331
Rp3332
sg19
I00
sg20
g332
ssg134
(dp3333
g3
g4
((lp3334
g131
ag130
ag923
ag200
ag315
ag297
ag58
ag132
ag133
ag332
ag1183
ag135
ag129
atp3335
Rp3336
sg19
I00
sg20
g134
ssg1071
(dp3337
g3
g4
((lp3338
g854
ag253
ag277
ag2209
ag310
ag1072
ag999
ag1073
ag267
ag1002
ag385
ag100
ag349
atp3339
Rp3340
sg19
I00
sg20
g1071
ssg1183
(dp3341
g3
g4
((lp3342
g1019
ag1180
ag1182
ag923
ag837
ag586
ag315
ag200
ag588
ag332
ag488
ag134
ag1185
ag490
ag1181
ag1184
ag841
ag1096
atp3343
Rp3344
sg19
I00
sg20
g1183
ssg844
(dp3345
g3
g4
((lp3346
g771
ag835
ag883
ag896
ag328
ag613
ag653
ag731
ag839
ag897
ag898
ag760
ag899
ag838
ag900
ag832
atp3347
Rp3348
sg19
I00
sg20
g844
ssg1423
(dp3349
g3
g4
((lp3350
g1424
ag403
ag973
ag1229
ag407
ag651
ag887
ag1500
ag898
ag1958
ag1014
ag158
atp3351
Rp3352
sg19
I00
sg20
g1423
ssg1109
(dp3353
g3
g4
((lp3354
S'coz'
p3355
ag97
ag974
ag1106
ag973
ag1110
ag1107
ag1112
ag638
ag1111
ag1105
ag98
ag1122
ag1424
ag927
ag198
ag1089
ag1090
ag787
ag308
ag333
ag1175
ag1185
ag2025
ag1150
ag990
atp3356
Rp3357
sg19
I00
sg20
g1109
ssg1122
(dp3358
g3
g4
((lp3359
g1109
ag1424
ag927
ag198
ag308
ag1090
ag1091
ag1126
ag716
ag1127
ag1128
ag333
ag1175
ag1185
ag3355
ag721
ag1124
ag1129
ag2025
ag1150
ag990
atp3360
Rp3361
sg19
I00
sg20
g1122
ssg1424
(dp3362
g3
g4
((lp3363
g1423
ag396
ag1528
ag2075
ag320
ag1728
ag1827
ag1109
ag1122
ag927
ag198
ag308
ag407
ag3355
ag333
ag1175
ag1185
ag1090
ag2074
ag2025
ag1150
ag990
atp3364
Rp3365
sg19
I00
sg20
g1424
ssg927
(dp3366
g3
g4
((lp3367
g922
ag929
ag65
ag651
ag918
ag919
ag920
ag921
ag317
ag923
ag924
ag925
ag926
ag1109
ag1122
ag1424
ag198
ag308
ag1090
ag3355
ag928
ag442
ag1150
ag333
ag1175
ag1185
ag2025
ag675
ag990
atp3368
Rp3369
sg19
I00
sg20
g927
ssg198
(dp3370
g3
g4
((lp3371
g25
ag205
ag207
ag66
ag197
ag204
ag203
ag206
ag208
ag200
ag201
ag2025
ag209
ag1109
ag1122
ag1424
ag927
ag308
ag1090
ag3355
ag774
ag202
ag333
ag1175
ag1185
ag210
ag1150
ag990
atp3372
Rp3373
sg19
I00
sg20
g198
ssg308
(dp3374
g3
g4
((lp3375
g3355
ag316
ag306
ag312
ag301
ag319
ag1109
ag315
ag386
ag304
ag1122
ag1424
ag927
ag198
ag1090
ag1403
ag333
ag1175
ag1185
ag2025
ag1150
ag990
atp3376
Rp3377
sg19
I00
sg20
g308
ssg1090
(dp3378
g3
g4
((lp3379
g1085
ag1109
ag1122
ag1424
ag927
ag198
ag1088
ag308
ag3355
ag359
ag314
ag333
ag1175
ag1185
ag1095
ag1065
ag269
ag2025
ag1150
ag990
atp3380
Rp3381
sg19
I00
sg20
g1090
ssg8
(dp3382
g3
g4
((lp3383
g1
ag3248
ag6
atp3384
Rp3385
sg19
I00
sg20
g8
ssS'elm'
p3386
(dp3387
g3
g4
((lp3388
S'elk'
p3389
ag2764
ag1621
ag6
ag186
atp3390
Rp3391
sg19
I00
sg20
g3386
ssg3248
(dp3392
g3
g4
((lp3393
g3246
ag3389
ag8
ag3185
ag3247
atp3394
Rp3395
sg19
I00
sg20
g3248
ssg765
(dp3396
g3
g4
((lp3397
g1213
ag1107
ag1429
ag936
ag1296
ag92
ag463
ag486
ag757
ag505
ag751
ag1431
ag1430
ag381
ag358
ag761
ag435
ag421
ag400
ag1432
ag1433
ag640
ag695
ag1434
ag1108
ag787
atp3398
Rp3399
sg19
I00
sg20
g765
ssg543
(dp3400
g3
g4
((lp3401
g550
ag586
ag521
ag609
ag245
ag540
ag544
ag545
ag2110
ag541
ag546
ag554
ag551
ag547
ag548
ag464
ag549
ag552
atp3402
Rp3403
sg19
I00
sg20
g543
ssg1467
(dp3404
g3
g4
((lp3405
g106
aS'uta'
p3406
ag1269
atp3407
Rp3408
sg19
I00
sg20
g1467
ssg1175
(dp3409
g3
g4
((lp3410
g1168
ag57
ag1169
ag1170
ag309
ag1171
ag1500
ag809
ag1172
ag1174
ag1109
ag1122
ag1424
ag927
ag198
ag308
ag1090
ag3355
ag333
ag1185
ag990
ag1094
ag2025
ag1150
ag515
atp3411
Rp3412
sg19
I00
sg20
g1175
ssg1185
(dp3413
g3
g4
((lp3414
g1180
ag1019
ag488
ag1181
ag841
ag1182
ag1183
ag1184
ag1109
ag1122
ag1424
ag927
ag198
ag308
ag1090
ag3355
ag588
ag333
ag1175
ag990
ag2025
ag1150
ag1096
atp3415
Rp3416
sg19
I00
sg20
g1185
ssg106
(dp3417
g3
g4
((lp3418
g2002
ag103
ag1467
atp3419
Rp3420
sg19
I00
sg20
g106
ssg1480
(dp3421
g3
g4
((lp3422
g1474
ag1517
ag1479
ag1202
atp3423
Rp3424
sg19
I00
sg20
g1480
ssg2025
(dp3425
g3
g4
((lp3426
g1109
ag1122
ag1424
ag927
ag198
ag308
ag1090
ag1579
ag742
ag2127
ag732
ag333
ag1175
ag1185
ag3355
ag1461
ag1150
ag990
atp3427
Rp3428
sg19
I00
sg20
g2025
ssg1150
(dp3429
g3
g4
((lp3430
g1109
ag1122
ag1424
ag927
ag198
ag1146
ag308
ag1090
ag3355
ag305
ag1144
ag1143
ag333
ag1147
ag1175
ag1185
ag1092
ag1148
ag1149
ag2025
ag990
atp3431
Rp3432
sg19
I00
sg20
g1150
ssg990
(dp3433
g3
g4
((lp3434
g1633
ag1630
ag1606
ag1222
ag770
ag462
ag1175
ag1631
ag1634
ag1109
ag1122
ag1424
ag553
ag927
ag198
ag308
ag1090
ag3355
ag1491
ag333
ag459
ag1185
ag2025
ag1150
atp3435
Rp3436
sg19
I00
sg20
g990
ssg771
(dp3437
g3
g4
((lp3438
g835
ag254
ag960
ag542
ag248
ag838
ag884
ag1632
ag2110
ag625
ag2111
ag839
ag546
ag770
ag454
ag2112
ag461
ag2101
ag653
ag844
ag832
atp3439
Rp3440
sg19
I00
sg20
g771
ssg1088
(dp3441
g3
g4
((lp3442
g1085
ag2767
ag269
ag361
ag1090
ag922
ag359
ag97
ag1733
ag732
ag61
ag314
ag1375
ag2379
ag1095
ag1065
ag25
ag1169
atp3443
Rp3444
sg19
I00
sg20
g1088
ssg481
(dp3445
g3
g4
((lp3446
g501
ag458
ag482
ag56
ag1594
ag2031
ag199
ag428
ag496
ag418
ag1429
ag592
ag364
ag376
ag484
ag486
ag487
ag490
ag281
ag491
ag483
ag492
ag840
ag493
ag494
ag369
ag485
atp3447
Rp3448
sg19
I00
sg20
g481
ssg2764
(dp3449
g3
g4
((lp3450
g3389
ag2763
ag6
ag3386
ag1621
ag186
ag1646
atp3451
Rp3452
sg19
I00
sg20
g2764
ssg922
(dp3453
g3
g4
((lp3454
g1088
ag25
ag97
ag658
ag732
ag61
ag929
ag1375
ag2379
ag1169
ag666
ag431
ag31
ag65
ag919
ag920
ag921
ag317
ag923
ag924
ag925
ag926
ag1250
ag927
ag928
ag918
ag675
atp3455
Rp3456
sg19
I00
sg20
g922
ssg267
(dp3457
g3
g4
((lp3458
g263
ag253
ag265
ag277
ag2209
ag264
ag999
ag266
ag222
ag1071
ag268
ag100
atp3459
Rp3460
sg19
I00
sg20
g267
ssg97
(dp3461
g3
g4
((lp3462
g1088
ag25
ag922
ag974
ag732
ag61
ag1375
ag2379
ag96
ag1169
ag92
ag1106
ag1110
ag32
ag1107
ag1112
ag638
ag1111
ag1105
ag99
ag1109
ag1089
atp3463
Rp3464
sg19
I00
sg20
g97
ssg250
(dp3465
g3
g4
((lp3466
g246
ag253
ag1223
ag257
ag289
ag248
ag807
ag249
ag540
ag255
ag36
ag1222
ag759
ag258
ag228
ag247
ag251
ag463
ag256
atp3467
Rp3468
sg19
I00
sg20
g250
ssg732
(dp3469
g3
g4
((lp3470
g624
ag1088
ag1461
ag25
ag922
ag1579
ag2127
ag97
ag61
ag1375
ag2379
ag1169
ag733
ag2025
atp3471
Rp3472
sg19
I00
sg20
g732
ssg61
(dp3473
g3
g4
((lp3474
g51
ag52
ag62
ag1088
ag54
ag25
ag922
ag60
ag97
ag732
ag1375
ag2379
ag1169
ag826
ag48
atp3475
Rp3476
sg19
I00
sg20
g61
ssg1250
(dp3477
g3
g4
((lp3478
g1307
ag431
ag31
ag922
ag658
ag666
atp3479
Rp3480
sg19
I00
sg20
g1250
ssg2379
(dp3481
g3
g4
((lp3482
g2376
ag1307
aS'psi'
p3483
ag1088
ag25
ag922
ag97
ag732
ag61
ag1375
ag1169
atp3484
Rp3485
sg19
I00
sg20
g2379
ssg1169
(dp3486
g3
g4
((lp3487
g1170
ag1171
ag1168
ag1088
ag1172
ag309
ag922
ag25
ag57
ag97
ag729
ag732
ag61
ag509
ag1175
ag1375
ag2379
ag38
ag1094
ag809
ag1174
atp3488
Rp3489
sg19
I00
sg20
g1169
ssg3326
(dp3490
g3
g4
((lp3491
g542
aS'duo'
p3492
ag613
ag562
ag575
ag589
ag839
ag693
atp3493
Rp3494
sg19
I00
sg20
g3326
ssg377
(dp3495
g3
g4
((lp3496
g386
ag344
ag2032
ag307
ag378
ag383
ag379
ag780
ag1430
ag387
ag822
ag388
ag375
ag1659
ag384
ag381
ag385
ag398
ag380
ag382
ag376
atp3497
Rp3498
sg19
I00
sg20
g377
ssg82
(dp3499
g3
g4
((lp3500
g73
ag75
ag602
ag78
ag80
ag1781
ag74
ag1117
ag69
ag76
ag86
atp3501
Rp3502
sg19
I00
sg20
g82
ssg542
(dp3503
g3
g4
((lp3504
g771
ag3326
ag521
ag254
ag553
ag625
ag3492
ag2110
ag613
ag562
ag575
ag589
ag2111
ag454
ag2112
ag258
ag884
ag693
ag960
ag2101
ag1632
atp3505
Rp3506
sg19
I00
sg20
g542
ssg3492
(dp3507
g3
g4
((lp3508
g3326
ag542
ag613
ag562
ag575
ag589
ag693
atp3509
Rp3510
sg19
I00
sg20
g3492
ssg613
(dp3511
g3
g4
((lp3512
g731
ag3326
ag883
ag542
ag611
ag3492
ag328
ag562
ag575
ag527
ag589
ag693
ag897
ag898
ag899
ag618
ag900
ag844
ag896
atp3513
Rp3514
sg19
I00
sg20
g613
ssg562
(dp3515
g3
g4
((lp3516
g511
ag3326
ag542
ag3492
ag524
ag613
ag729
ag575
ag589
ag1873
ag507
ag1500
ag1537
ag693
ag862
ag1173
atp3517
Rp3518
sg19
I00
sg20
g562
ssg575
(dp3519
g3
g4
((lp3520
g3326
ag879
ag137
ag542
ag3492
ag525
ag613
ag562
ag132
ag887
ag693
ag580
ag891
ag589
ag298
ag882
atp3521
Rp3522
sg19
I00
sg20
g575
ssg589
(dp3523
g3
g4
((lp3524
g3326
ag840
ag491
ag837
ag542
ag3492
ag613
ag526
ag562
ag575
ag730
ag588
ag495
ag842
ag836
ag843
ag693
ag274
ag845
ag832
atp3525
Rp3526
sg19
I00
sg20
g589
ssg822
(dp3527
g3
g4
((lp3528
g827
ag52
ag1659
ag377
ag813
ag530
ag780
ag56
ag1430
ag821
ag398
ag828
ag823
ag1657
ag2032
ag788
ag816
ag829
ag826
atp3529
Rp3530
sg19
I00
sg20
g822
ssg935
(dp3531
g3
g4
((lp3532
g362
ag936
ag934
ag756
ag483
ag375
ag886
ag502
ag1601
ag1722
ag1770
ag474
ag1769
ag1716
ag778
ag937
ag429
atp3533
Rp3534
sg19
I00
sg20
g935
ssg1143
(dp3535
g3
g4
((lp3536
g51
ag305
ag1374
ag1172
ag1148
ag1182
ag1144
ag330
ag1149
ag1146
ag1147
ag1827
ag1092
ag926
ag209
ag1150
ag1129
atp3537
Rp3538
sg19
I00
sg20
g1143
ssg2032
(dp3539
g3
g4
((lp3540
g817
ag1323
ag377
ag2001
ag1983
ag2030
ag2031
ag1430
ag822
ag1659
ag1939
ag398
ag780
ag2033
atp3541
Rp3542
sg19
I00
sg20
g2032
ssg1659
(dp3543
g3
g4
((lp3544
g377
ag780
ag1957
ag1430
ag398
ag822
ag239
ag2032
ag1658
ag1984
atp3545
Rp3546
sg19
I00
sg20
g1659
ssg693
(dp3547
g3
g4
((lp3548
g3326
ag542
ag3492
ag838
ag99
ag613
ag973
ag562
ag575
ag589
ag975
ag695
ag890
ag637
ag532
atp3549
Rp3550
sg19
I00
sg20
g693
ssg348
(dp3551
g3
g4
((lp3552
g1398
ag341
ag344
ag1403
ag1245
ag312
ag1976
ag1973
ag1977
ag349
atp3553
Rp3554
sg19
I00
sg20
g348
ssg100
(dp3555
g3
g4
((lp3556
g253
ag689
ag93
ag94
ag277
ag2209
ag95
ag267
ag32
ag999
ag1071
ag98
ag1111
atp3557
Rp3558
sg19
I00
sg20
g100
ssg1398
(dp3559
g3
g4
((lp3560
g854
ag1403
ag1976
ag348
ag1977
ag380
ag1973
atp3561
Rp3562
sg19
I00
sg20
g1398
ssg289
(dp3563
g3
g4
((lp3564
g759
ag286
ag287
ag288
ag807
ag291
ag228
ag757
ag292
ag293
ag294
ag1289
ag295
ag225
ag250
ag296
ag297
ag135
ag39
ag298
ag138
atp3565
Rp3566
sg19
I00
sg20
g289
ssg307
(dp3567
g3
g4
((lp3568
g375
ag1551
ag376
ag377
ag378
ag379
ag380
ag388
ag301
ag381
ag382
ag344
ag383
ag310
ag438
ag414
ag402
ag1433
ag456
ag828
ag627
ag384
ag494
ag385
ag513
ag764
ag386
ag387
ag318
atp3569
Rp3570
sg19
I00
sg20
g307
ssg274
(dp3571
g3
g4
((lp3572
g836
ag275
ag495
ag730
ag840
ag589
ag223
ag842
ag837
ag843
ag845
ag832
atp3573
Rp3574
sg19
I00
sg20
g274
ssg483
(dp3575
g3
g4
((lp3576
g481
ag934
ag935
ag756
ag886
ag502
ag280
ag375
ag362
ag936
ag778
ag937
ag429
ag484
ag486
ag487
ag482
ag490
ag491
ag492
ag493
ag494
ag369
ag485
ag496
atp3577
Rp3578
sg19
I00
sg20
g483
ssg438
(dp3579
g3
g4
((lp3580
g427
ag494
ag428
ag429
ag430
ag656
ag431
ag433
ag434
ag317
ag435
ag436
ag227
ag437
ag307
ag220
ag414
ag402
ag360
ag1433
ag456
ag828
ag627
ag439
ag440
ag1551
ag513
ag764
ag441
ag442
ag629
atp3581
Rp3582
sg19
I00
sg20
g438
ssg414
(dp3583
g3
g4
((lp3584
g413
ag418
ag417
ag419
ag420
ag421
ag415
ag307
ag356
ag438
ag402
ag1433
ag416
ag456
ag828
ag627
ag494
ag1551
ag513
ag764
ag422
ag412
ag185
atp3585
Rp3586
sg19
I00
sg20
g414
ssg402
(dp3587
g3
g4
((lp3588
g393
ag154
ag404
ag397
ag398
ag401
ag399
ag400
ag320
ag394
ag307
ag355
ag438
ag414
ag1433
ag456
ag828
ag627
ag494
ag1551
ag513
ag764
ag405
ag406
ag407
atp3589
Rp3590
sg19
I00
sg20
g402
ssg1433
(dp3591
g3
g4
((lp3592
g1213
ag1429
ag936
ag1296
ag92
ag691
ag1430
ag1431
ag640
ag765
ag1432
ag307
ag438
ag414
ag402
ag456
ag828
ag627
ag695
ag639
ag494
ag1551
ag513
ag1434
ag764
ag1108
ag787
atp3593
Rp3594
sg19
I00
sg20
g1433
ssg456
(dp3595
g3
g4
((lp3596
g458
ag461
ag463
ag455
ag457
ag764
ag548
ag252
ag307
ag438
ag414
ag402
ag1433
ag828
ag627
ag363
ag494
ag1551
ag513
ag256
ag465
ag625
ag459
ag460
atp3597
Rp3598
sg19
I00
sg20
g456
ssg828
(dp3599
g3
g4
((lp3600
g56
ag816
ag813
ag821
ag822
ag823
ag826
ag827
ag307
ag530
ag2121
ag438
ag414
ag402
ag1433
ag456
ag627
ag494
ag1551
ag513
ag764
ag1027
ag626
ag788
ag829
atp3601
Rp3602
sg19
I00
sg20
g828
ssg627
(dp3603
g3
g4
((lp3604
g621
ag307
ag934
ag1462
ag7
ag438
ag414
ag402
ag764
ag1433
ag456
ag828
ag494
ag1551
ag513
ag733
ag2016
ag630
atp3605
Rp3606
sg19
I00
sg20
g627
ssg886
(dp3607
g3
g4
((lp3608
g879
ag295
ag985
ag942
ag935
ag756
ag757
ag934
ag483
ag820
ag502
ag1214
ag375
ag362
ag1550
ag888
ag1551
ag936
ag778
ag937
ag429
atp3609
Rp3610
sg19
I00
sg20
g886
ssg186
(dp3611
g3
g4
((lp3612
g3389
ag1408
ag1415
ag6
ag3386
ag1416
ag2764
ag1621
ag1417
ag1418
ag15
atp3613
Rp3614
sg19
I00
sg20
g186
ssg494
(dp3615
g3
g4
((lp3616
g481
ag482
ag483
ag496
ag764
ag484
ag486
ag487
ag590
ag490
ag491
ag307
ag438
ag414
ag402
ag1433
ag456
ag828
ag627
ag493
ag1551
ag513
ag369
ag492
ag485
atp3617
Rp3618
sg19
I00
sg20
g494
ssg1430
(dp3619
g3
g4
((lp3620
g1213
ag1429
ag94
ag936
ag1296
ag92
ag377
ag780
ag398
ag822
ag1431
ag2032
ag1659
ag640
ag699
ag1432
ag1433
ag695
ag1434
ag1108
ag975
ag787
ag765
atp3621
Rp3622
sg19
I00
sg20
g1430
ssg1551
(dp3623
g3
g4
((lp3624
g577
ag985
ag307
ag942
ag820
ag757
ag438
ag414
ag402
ag886
ag1433
ag1214
ag456
ag828
ag627
ag1550
ag296
ag494
ag513
ag764
atp3625
Rp3626
sg19
I00
sg20
g1551
ssg513
(dp3627
g3
g4
((lp3628
g501
ag502
ag503
ag309
ag505
ag506
ag564
ag509
ag511
ag307
ag508
ag438
ag414
ag402
ag1433
ag456
ag828
ag627
ag512
ag810
ag494
ag1551
ag764
ag370
ag514
ag515
atp3629
Rp3630
sg19
I00
sg20
g513
ssg764
(dp3631
g3
g4
((lp3632
g756
ag760
ag754
ag611
ag751
ag313
ag617
ag763
ag755
ag307
ag438
ag414
ag402
ag758
ag1433
ag456
ag828
ag627
ag494
ag1551
ag513
ag762
atp3633
Rp3634
sg19
I00
sg20
g764
ssg403
(dp3635
g3
g4
((lp3636
g395
ag454
ag1423
ag396
ag1229
ag495
ag507
ag897
ag1958
ag355
ag157
ag158
atp3637
Rp3638
sg19
I00
sg20
g403
ssg345
(dp3639
g3
g4
((lp3640
g341
ag1477
ag1478
ag1474
ag347
ag375
ag316
ag1481
atp3641
Rp3642
sg19
I00
sg20
g345
ssS'gnu'
p3643
(dp3644
g3
g4
((lp3645
tp3646
Rp3647
sg19
I00
sg20
g3643
ssg164
(dp3648
g3
g4
((lp3649
g163
ag165
ag166
ag665
ag14
ag666
ag667
ag656
ag432
ag668
ag669
ag670
ag169
ag671
ag672
ag673
ag674
ag182
ag908
ag529
ag12
ag167
ag554
ag168
ag531
ag566
atp3650
Rp3651
sg19
I00
sg20
g164
ssg692
(dp3652
g3
g4
((lp3653
g636
ag694
ag1213
ag690
ag691
ag669
ag1110
ag689
ag696
ag715
ag744
ag838
ag546
ag697
ag699
ag96
ag576
ag698
ag532
ag1672
atp3654
Rp3655
sg19
I00
sg20
g692
ssg375
(dp3656
g3
g4
((lp3657
g1477
ag934
ag935
ag756
ag483
ag886
ag502
ag362
ag316
ag936
ag778
ag937
ag429
ag377
ag378
ag379
ag1474
ag388
ag381
ag376
ag344
ag307
ag383
ag384
ag385
ag380
ag386
ag382
ag345
ag1478
ag387
ag1481
atp3658
Rp3659
sg19
I00
sg20
g375
ssg182
(dp3660
g3
g4
((lp3661
g180
ag717
ag719
ag718
ag723
ag15
ag713
ag529
ag181
ag715
ag183
ag720
ag722
ag184
ag179
ag714
ag724
ag164
ag908
ag716
ag12
ag554
ag185
ag566
ag535
atp3662
Rp3663
sg19
I00
sg20
g182
ssg908
(dp3664
g3
g4
((lp3665
g395
ag1599
ag164
ag182
ag529
ag12
ag554
ag1747
ag566
ag1727
atp3666
Rp3667
sg19
I00
sg20
g908
ssg529
(dp3668
g3
g4
((lp3669
g518
ag533
ag523
ag164
ag64
ag182
ag908
ag528
ag12
ag554
ag566
ag522
ag3123
ag534
atp3670
Rp3671
sg19
I00
sg20
g529
ssg495
(dp3672
g3
g4
((lp3673
g274
ag840
ag836
ag403
ag837
ag730
ag842
ag369
ag589
ag507
ag488
ag897
ag489
ag843
ag454
ag845
ag832
atp3674
Rp3675
sg19
I00
sg20
g495
ssg507
(dp3676
g3
g4
((lp3677
g504
ag403
ag1873
ag729
ag562
ag862
ag495
ag1500
ag897
ag1173
ag510
ag1537
ag454
ag370
atp3678
Rp3679
sg19
I00
sg20
g507
ssg554
(dp3680
g3
g4
((lp3681
g245
ag540
ag541
ag543
ag544
ag545
ag546
ag547
ag548
ag464
ag549
ag550
ag1867
ag551
ag552
ag521
ag164
ag182
ag908
ag529
ag12
ag566
atp3682
Rp3683
sg19
I00
sg20
g554
ssg897
(dp3684
g3
g4
((lp3685
g454
ag403
ag883
ag896
ag328
ag613
ag731
ag615
ag495
ag507
ag898
ag334
ag899
ag844
ag900
atp3686
Rp3687
sg19
I00
sg20
g897
ssg454
(dp3688
g3
g4
((lp3689
g254
ag403
ag771
ag542
ag249
ag884
ag1632
ag2110
ag625
ag2111
ag495
ag507
ag897
ag960
ag2112
ag363
ag462
ag2101
ag464
atp3690
Rp3691
sg19
I00
sg20
g454
ssg566
(dp3692
g3
g4
((lp3693
g1620
ag559
ag560
ag524
ag164
ag561
ag563
ag182
ag908
ag529
ag12
ag860
ag554
ag565
ag510
ag564
ag567
ag568
atp3694
Rp3695
sg19
I00
sg20
g566
ssg2622
(dp3696
g3
g4
((lp3697
g146
ag192
ag3072
ag2581
atp3698
Rp3699
sg19
I00
sg20
g2622
ssg3355
(dp3700
g3
g4
((lp3701
g1109
ag1122
ag1424
ag927
ag198
ag308
ag1090
ag333
ag1175
ag1185
ag2025
ag1150
ag990
atp3702
Rp3703
sg19
I00
sg20
g3355
ssg696
(dp3704
g3
g4
((lp3705
g636
ag694
ag690
ag691
ag338
ag95
ag689
ag692
ag541
ag96
ag64
ag697
ag699
ag1429
ag1569
ag592
ag567
ag532
ag698
ag1197
atp3706
Rp3707
sg19
I00
sg20
g696
ssg541
(dp3708
g3
g4
((lp3709
g245
ag458
ag540
ag696
ag64
ag1569
ag592
ag567
ag338
ag1197
ag543
ag544
ag545
ag546
ag547
ag548
ag464
ag549
ag550
ag960
ag551
ag552
ag521
ag554
atp3710
Rp3711
sg19
I00
sg20
g541
ssg954
(dp3712
g3
g4
((lp3713
g952
ag953
ag876
ag955
ag118
ag148
atp3714
Rp3715
sg19
I00
sg20
g954
ssg1569
(dp3716
g3
g4
((lp3717
g475
ag696
ag541
ag64
ag592
ag567
ag338
ag2783
ag1197
atp3718
Rp3719
sg19
I00
sg20
g1569
ssg118
(dp3720
g3
g4
((lp3721
g111
ag112
ag113
ag114
ag115
ag9
ag597
ag954
ag83
ag117
ag116
ag148
ag119
atp3722
Rp3723
sg19
I00
sg20
g118
ssg567
(dp3724
g3
g4
((lp3725
g559
ag560
ag501
ag524
ag57
ag561
ag64
ag563
ag696
ag541
ag564
ag565
ag510
ag592
ag1569
ag566
ag568
ag338
ag476
ag1197
atp3726
Rp3727
sg19
I00
sg20
g567
ssg338
(dp3728
g3
g4
((lp3729
g541
ag609
ag610
ag612
ag616
ag55
ag608
ag614
ag527
ag615
ag1569
ag64
ag328
ag617
ag696
ag335
ag592
ag567
ag1197
atp3730
Rp3731
sg19
I00
sg20
g338
ssg148
(dp3732
g3
g4
((lp3733
g143
ag144
ag145
ag146
ag147
ag11
ag954
ag1778
ag118
ag149
atp3734
Rp3735
sg19
I00
sg20
g148
ssg1197
(dp3736
g3
g4
((lp3737
g1193
ag1196
ag696
ag1652
ag541
ag64
ag1569
ag592
ag567
ag338
atp3738
Rp3739
sg19
I00
sg20
g1197
ssg92
(dp3740
g3
g4
((lp3741
g1213
ag97
ag1429
ag96
ag936
ag1296
ag154
ag417
ag431
ag30
ag361
ag379
ag32
ag1430
ag1431
ag1770
ag509
ag640
ag733
ag826
ag252
ag765
ag1432
ag1433
ag1939
ag695
ag1434
ag99
ag1108
ag787
atp3742
Rp3743
sg19
I00
sg20
g92
ssg430
(dp3744
g3
g4
((lp3745
g427
ag441
ag431
ag437
ag438
ag360
ag442
ag428
ag434
ag439
ag440
ag435
ag436
ag433
ag227
ag429
atp3746
Rp3747
sg19
I00
sg20
g430
ssg154
(dp3748
g3
g4
((lp3749
g393
ag158
ag92
ag417
ag431
ag30
ag361
ag379
ag397
ag33
ag398
ag1770
ag509
ag401
ag1939
ag733
ag826
ag252
ag394
ag355
ag402
ag399
ag404
ag405
ag406
ag407
ag400
atp3750
Rp3751
sg19
I00
sg20
g154
ssg417
(dp3752
g3
g4
((lp3753
g413
ag418
ag723
ag92
ag154
ag431
ag30
ag361
ag379
ag34
ag1770
ag509
ag1939
ag419
ag420
ag733
ag826
ag252
ag415
ag356
ag414
ag416
ag422
ag734
ag412
ag421
ag185
atp3754
Rp3755
sg19
I00
sg20
g417
ssg431
(dp3756
g3
g4
((lp3757
g427
ag922
ag658
ag428
ag666
ag429
ag92
ag430
ag154
ag417
ag30
ag361
ag379
ag434
ag509
ag1939
ag435
ag436
ag826
ag252
ag437
ag438
ag360
ag439
ag440
ag433
ag1250
ag441
ag733
ag1770
ag442
ag31
ag227
atp3758
Rp3759
sg19
I00
sg20
g431
ssg30
(dp3760
g3
g4
((lp3761
g777
ag25
ag199
ag778
ag92
ag154
ag417
ag431
ag361
ag779
ag780
ag21
ag1770
ag509
ag781
ag1939
ag733
ag826
ag252
ag783
ag784
ag761
ag785
ag786
ag774
ag782
ag379
atp3762
Rp3763
sg19
I00
sg20
g30
ssg361
(dp3764
g3
g4
((lp3765
g1088
ag368
ag1733
ag362
ag365
ag364
ag92
ag154
ag417
ag431
ag30
ag379
ag1770
ag509
ag358
ag1939
ag733
ag826
ag252
ag2767
ag352
ag366
ag367
atp3766
Rp3767
sg19
I00
sg20
g361
ssg379
(dp3768
g3
g4
((lp3769
g375
ag1977
ag376
ag92
ag154
ag417
ag431
ag378
ag361
ag388
ag1770
ag509
ag381
ag1939
ag382
ag733
ag826
ag252
ag344
ag307
ag383
ag347
ag384
ag377
ag385
ag380
ag386
ag30
ag387
atp3770
Rp3771
sg19
I00
sg20
g379
ssg603
(dp3772
g3
g4
((lp3773
g600
ag601
ag75
ag602
ag597
ag81
ag116
atp3774
Rp3775
sg19
I00
sg20
g603
ssg1127
(dp3776
g3
g4
((lp3777
g1128
ag1350
ag1126
ag1124
ag1174
ag415
ag1728
ag1105
ag201
ag924
ag1147
ag1634
ag62
ag1579
ag1775
ag336
ag1158
ag1184
ag722
ag1129
ag1122
ag1091
ag721
atp3778
Rp3779
sg19
I00
sg20
g1127
ssg333
(dp3780
g3
g4
((lp3781
g326
ag55
ag325
ag327
ag329
ag331
ag313
ag898
ag334
ag330
ag332
ag336
ag1109
ag1122
ag1424
ag927
ag198
ag308
ag1090
ag3355
ag1175
ag1185
ag762
ag337
ag2025
ag1150
ag990
atp3782
Rp3783
sg19
I00
sg20
g333
ssg509
(dp3784
g3
g4
((lp3785
g501
ag502
ag503
ag1169
ag92
ag154
ag417
ag431
ag30
ag361
ag379
ag505
ag506
ag729
ag1770
ag38
ag733
ag826
ag252
ag511
ag508
ag1939
ag512
ag513
ag370
ag514
ag515
atp3786
Rp3787
sg19
I00
sg20
g509
ssg937
(dp3788
g3
g4
((lp3789
g1209
ag1217
ag934
ag935
ag756
ag778
ag483
ag886
ag502
ag375
ag362
ag2128
ag936
ag1215
ag429
atp3790
Rp3791
sg19
I00
sg20
g937
ssg1728
(dp3792
g3
g4
((lp3793
g2075
ag396
ag1528
ag1727
ag320
ag394
ag1127
ag1105
ag201
ag924
ag1147
ag1634
ag62
ag1579
ag1775
ag336
ag1158
ag1184
ag1827
ag1174
ag1424
ag2074
atp3794
Rp3795
sg19
I00
sg20
g1728
ssg1939
(dp3796
g3
g4
((lp3797
g817
ag92
ag154
ag417
ag431
ag30
ag361
ag379
ag2001
ag1983
ag2030
ag2031
ag1770
ag509
ag252
ag1375
ag37
ag733
ag826
ag2033
ag2032
atp3798
Rp3799
sg19
I00
sg20
g1939
ssg759
(dp3800
g3
g4
((lp3801
g289
ag807
ag943
ag751
ag250
ag228
ag335
ag618
atp3802
Rp3803
sg19
I00
sg20
g759
ssg429
(dp3804
g3
g4
((lp3805
g427
ag217
ag934
ag935
ag756
ag483
ag886
ag502
ag428
ag362
ag929
ag936
ag778
ag937
ag430
ag431
ag668
ag434
ag435
ag436
ag227
ag437
ag438
ag360
ag439
ag440
ag433
ag441
ag375
ag442
atp3806
Rp3807
sg19
I00
sg20
g429
ssg733
(dp3808
g3
g4
((lp3809
g92
ag624
ag154
ag417
ag431
ag30
ag1462
ag7
ag627
ag934
ag361
ag732
ag1770
ag509
ag379
ag1939
ag2016
ag826
ag252
atp3810
Rp3811
sg19
I00
sg20
g733
ssg826
(dp3812
g3
g4
((lp3813
g56
ag61
ag816
ag92
ag154
ag417
ag431
ag813
ag30
ag361
ag379
ag821
ag822
ag1770
ag509
ag1939
ag733
ag252
ag827
ag530
ag828
ag823
ag788
ag829
atp3814
Rp3815
sg19
I00
sg20
g826
ssg252
(dp3816
g3
g4
((lp3817
g245
ag458
ag461
ag92
ag463
ag154
ag417
ag431
ag30
ag361
ag379
ag457
ag36
ag1770
ag509
ag1939
ag733
ag826
ag254
ag456
ag363
ag455
ag465
ag459
ag460
atp3818
Rp3819
sg19
I00
sg20
g252
ssg1307
(dp3820
g3
g4
((lp3821
g3483
ag1303
ag1306
ag2379
ag1308
ag1250
atp3822
Rp3823
sg19
I00
sg20
g1307
ssg1182
(dp3824
g3
g4
((lp3825
g1180
ag209
ag1143
ag1374
ag1019
ag51
ag1172
ag588
ag330
ag488
ag1185
ag1183
ag926
ag484
ag1181
ag1129
ag1184
ag841
ag1827
ag1096
atp3826
Rp3827
sg19
I00
sg20
g1182
ssg907
(dp3828
g3
g4
((lp3829
g905
ag906
ag523
ag616
ag744
ag12
ag1849
ag674
ag698
ag909
atp3830
Rp3831
sg19
I00
sg20
g907
ssg523
(dp3832
g3
g4
((lp3833
g518
ag522
ag907
ag51
ag616
ag821
ag529
ag1849
ag64
ag534
ag698
ag528
ag533
ag674
atp3834
Rp3835
sg19
I00
sg20
g523
ssg616
(dp3836
g3
g4
((lp3837
g754
ag609
ag907
ag610
ag523
ag338
ag614
ag608
ag943
ag527
ag615
ag612
ag1849
ag900
ag617
ag698
ag330
ag674
atp3838
Rp3839
sg19
I00
sg20
g616
ssg1747
(dp3840
g3
g4
((lp3841
g395
ag1599
ag2075
ag689
ag1727
ag908
ag551
ag672
ag2783
ag568
atp3842
Rp3843
sg19
I00
sg20
g1747
ssg689
(dp3844
g3
g4
((lp3845
g636
ag694
ag690
ag691
ag1747
ag699
ag692
ag696
ag672
ag697
ag551
ag96
ag1111
ag698
ag100
ag532
ag2783
ag568
atp3846
Rp3847
sg19
I00
sg20
g689
ssg1699
(dp3848
g3
g4
((lp3849
g247
ag884
ag1223
ag549
ag1633
atp3850
Rp3851
sg19
I00
sg20
g1699
ssg672
(dp3852
g3
g4
((lp3853
g667
ag689
ag671
ag432
ag668
ag669
ag164
ag439
ag670
ag665
ag656
ag551
ag1747
ag531
ag673
ag666
ag2783
ag674
ag568
atp3854
Rp3855
sg19
I00
sg20
g672
ssg131
(dp3856
g3
g4
((lp3857
g130
ag290
ag205
ag58
ag132
ag133
ag225
ag134
ag135
ag269
ag129
atp3858
Rp3859
sg19
I00
sg20
g131
ssg1631
(dp3860
g3
g4
((lp3861
g1630
ag553
ag1606
ag1491
ag1633
aS'inn'
p3862
ag1222
ag770
ag1634
ag462
ag990
atp3863
Rp3864
sg19
I00
sg20
g1631
ssg1849
(dp3865
g3
g4
((lp3866
g907
ag523
ag616
ag357
ag1600
ag1733
ag1756
ag698
ag674
atp3867
Rp3868
sg19
I00
sg20
g1849
ssg551
(dp3869
g3
g4
((lp3870
g550
ag253
ag521
ag545
ag245
ag543
ag1747
ag544
ag689
ag672
ag541
ag546
ag554
ag549
ag540
ag547
ag548
ag464
ag2783
ag552
ag568
atp3871
Rp3872
sg19
I00
sg20
g551
ssg421
(dp3873
g3
g4
((lp3874
g413
ag719
ag418
ag463
ag417
ag486
ag757
ag505
ag751
ag1126
ag381
ag358
ag761
ag419
ag420
ag400
ag765
ag415
ag356
ag414
ag416
ag422
ag435
ag412
ag185
atp3875
Rp3876
sg19
I00
sg20
g421
ssg698
(dp3877
g3
g4
((lp3878
g636
ag694
ag690
ag907
ag523
ag616
ag689
ag692
ag1849
ag696
ag691
ag1431
ag697
ag699
ag96
ag532
ag674
atp3879
Rp3880
sg19
I00
sg20
g698
ssg838
(dp3881
g3
g4
((lp3882
g835
ag1213
ag973
ag653
ag1110
ag975
ag692
ag839
ag637
ag771
ag890
ag693
ag844
ag99
ag832
atp3883
Rp3884
sg19
I00
sg20
g838
ssg2783
(dp3885
g3
g4
((lp3886
g2774
ag2209
ag689
ag672
ag551
ag1747
ag1569
ag568
atp3887
Rp3888
sg19
I00
sg20
g2783
ssg674
(dp3889
g3
g4
((lp3890
g667
ag656
ag671
ag432
ag907
ag523
ag616
ag164
ag673
ag668
ag672
ag670
ag926
ag1849
ag669
ag652
ag665
ag531
ag698
ag666
ag229
atp3891
Rp3892
sg19
I00
sg20
g674
ssg568
(dp3893
g3
g4
((lp3894
g559
ag560
ag524
ag1747
ag561
ag689
ag563
ag672
ag564
ag565
ag551
ag510
ag566
ag567
ag2783
atp3895
Rp3896
sg19
I00
sg20
g568
ssg229
(dp3897
g3
g4
((lp3898
g216
ag213
ag217
ag218
ag220
ag31
ag652
ag292
ag943
ag221
ag219
ag224
ag226
ag674
ag228
ag926
ag44
ag230
ag231
ag232
atp3899
Rp3900
sg19
I00
sg20
g229
ssg2141
(dp3901
g3
g4
((lp3902
g1976
ag306
ag1478
ag1585
ag1552
ag1978
atp3903
Rp3904
sg19
I00
sg20
g2141
ssg1585
(dp3905
g3
g4
((lp3906
g2797
ag2798
ag2141
ag2794
ag1584
ag1148
ag2799
ag1552
ag1032
atp3907
Rp3908
sg19
I00
sg20
g1585
ssg1289
(dp3909
g3
g4
((lp3910
g601
ag289
ag114
ag1288
ag757
ag136
ag1287
ag1223
ag135
ag580
ag1290
ag1291
atp3911
Rp3912
sg19
I00
sg20
g1289
ssg1380
(dp3913
g3
g4
((lp3914
g1235
ag1645
ag77
ag1694
ag925
ag434
ag169
ag659
atp3915
Rp3916
sg19
I00
sg20
g1380
ssg1147
(dp3917
g3
g4
((lp3918
g305
ag1144
ag1149
ag1146
ag1148
ag1143
ag1127
ag1728
ag1105
ag201
ag924
ag1634
ag62
ag1579
ag1775
ag336
ag1158
ag1184
ag1174
ag2797
ag1092
ag1150
atp3919
Rp3920
sg19
I00
sg20
g1147
ssg1552
(dp3921
g3
g4
((lp3922
g2141
ag1288
ag293
ag1585
ag1214
ag888
ag576
ag129
atp3923
Rp3924
sg19
I00
sg20
g1552
ssg1323
(dp3925
g3
g4
((lp3926
g246
ag996
ag1278
ag37
ag2032
ag94
ag2320
ag1318
ag231
ag26
atp3927
Rp3928
sg19
I00
sg20
g1323
ssg608
(dp3929
g3
g4
((lp3930
g609
ag906
ag610
ag593
ag616
ag614
ag563
ag527
ag615
ag1756
ag612
ag617
ag336
ag522
ag722
ag1727
ag338
atp3931
Rp3932
sg19
I00
sg20
g608
ssg246
(dp3933
g3
g4
((lp3934
g253
ag2320
ag545
ag257
ag1630
ag248
ag1323
ag249
ag255
ag250
ag231
ag996
ag36
ag258
ag94
ag247
ag251
ag256
ag26
atp3935
Rp3936
sg19
I00
sg20
g246
ssg996
(dp3937
g3
g4
((lp3938
g993
ag1323
ag747
ag246
ag999
ag231
ag1004
ag94
ag2320
ag41
ag26
atp3939
Rp3940
sg19
I00
sg20
g996
ssg1957
(dp3941
g3
g4
((lp3942
g1956
ag434
ag401
ag1659
ag1984
atp3943
Rp3944
sg19
I00
sg20
g1957
ssg2156
(dp3945
g3
g4
((lp3946
g1574
ag888
ag1478
atp3947
Rp3948
sg19
I00
sg20
g2156
ssg336
(dp3949
g3
g4
((lp3950
g329
ag55
ag326
ag325
ag327
ag608
ag331
ag313
ag334
ag1127
ag1728
ag1105
ag201
ag330
ag924
ag332
ag1147
ag1634
ag62
ag1579
ag1775
ag1158
ag1184
ag1174
ag333
ag337
atp3951
Rp3952
sg19
I00
sg20
g336
ssg94
(dp3953
g3
g4
((lp3954
g1323
ag93
ag246
ag996
ag975
ag95
ag32
ag1430
ag699
ag98
ag2320
ag231
ag26
ag100
atp3955
Rp3956
sg19
I00
sg20
g94
ssg2320
(dp3957
g3
g4
((lp3958
g1323
ag246
ag996
ag471
ag1317
ag34
ag794
ag94
ag231
ag26
atp3959
Rp3960
sg19
I00
sg20
g2320
ssg715
(dp3961
g3
g4
((lp3962
g713
ag744
ag714
ag1672
ag413
ag669
ag692
ag182
ag716
ag717
ag546
ag718
ag719
ag720
ag576
ag722
ag723
ag724
ag535
atp3963
Rp3964
sg19
I00
sg20
g715
ssg1158
(dp3965
g3
g4
((lp3966
g201
ag1155
ag1105
ag1157
ag1728
ag1579
ag311
ag924
ag1127
ag1147
ag1634
ag62
ag336
ag1775
ag1093
ag1184
ag1174
atp3967
Rp3968
sg19
I00
sg20
g1158
ssg26
(dp3969
g3
g4
((lp3970
g24
ag1323
ag28
ag29
ag246
ag996
ag780
ag21
ag45
ag35
ag43
ag94
ag208
ag44
ag2320
ag231
ag27
atp3971
Rp3972
sg19
I00
sg20
g26
ssg546
(dp3973
g3
g4
((lp3974
g245
ag540
ag541
ag461
ag248
ag543
ag544
ag545
ag692
ag715
ag744
ag770
ag547
ag576
ag464
ag549
ag1672
ag550
ag551
ag771
ag548
ag552
ag521
ag669
ag554
atp3975
Rp3976
sg19
I00
sg20
g546
ssg817
(dp3977
g3
g4
((lp3978
g818
ag1939
ag813
ag1318
ag2030
ag2464
ag506
ag2001
ag819
ag1983
ag820
ag2031
ag487
ag388
ag2032
ag640
ag420
ag436
ag2033
ag783
atp3979
Rp3980
sg19
I00
sg20
g817
ssg3389
(dp3981
g3
g4
((lp3982
g6
ag3386
ag2764
ag3248
ag1621
ag186
atp3983
Rp3984
sg19
I00
sg20
g3389
ssg818
(dp3985
g3
g4
((lp3986
g817
ag813
ag819
ag1594
ag506
ag820
ag487
ag388
ag640
ag420
ag436
ag1216
ag783
atp3987
Rp3988
sg19
I00
sg20
g818
ssg651
(dp3989
g3
g4
((lp3990
g650
ag1423
ag973
ag652
ag653
ag654
ag442
ag655
ag887
ag1500
ag898
ag657
ag629
ag658
ag1014
ag659
ag660
ag927
atp3991
Rp3992
sg19
I00
sg20
g651
ssg181
(dp3993
g3
g4
((lp3994
g179
ag180
ag791
aS'adz'
p3995
ag795
ag182
ag860
ag183
ag185
ag955
ag15
ag184
atp3996
Rp3997
sg19
I00
sg20
g181
ssg6
(dp3998
g3
g4
((lp3999
g3389
ag1
ag3386
ag8
ag2764
ag1621
ag745
ag186
atp4000
Rp4001
sg19
I00
sg20
g6
ssg973
(dp4002
g3
g4
((lp4003
g1109
ag651
ag1423
ag838
ag975
ag787
ag887
ag1500
ag637
ag898
ag98
ag693
ag1014
ag99
ag890
atp4004
Rp4005
sg19
I00
sg20
g973
ssg1184
(dp4006
g3
g4
((lp4007
g493
ag1183
ag1180
ag1019
ag593
ag842
ag488
ag1181
ag841
ag1182
ag1127
ag1728
ag1105
ag201
ag924
ag1147
ag1634
ag62
ag1579
ag1775
ag336
ag1158
ag1174
ag588
ag1185
ag1096
atp4008
Rp4009
sg19
I00
sg20
g1184
ssg290
(dp4010
g3
g4
((lp4011
g574
ag1193
ag275
ag131
ag525
ag573
ag528
ag717
ag577
ag225
ag578
ag579
ag576
atp4012
Rp4013
sg19
I00
sg20
g290
ssg3995
(dp4014
g3
g4
((lp4015
g955
ag860
ag181
atp4016
Rp4017
sg19
I00
sg20
g3995
ssg820
(dp4018
g3
g4
((lp4019
g817
ag882
ag818
ag130
ag813
ag985
ag819
ag757
ag942
ag506
ag886
ag487
ag1214
ag388
ag1550
ag578
ag640
ag1551
ag420
ag436
ag783
atp4020
Rp4021
sg19
I00
sg20
g820
ssg1621
(dp4022
g3
g4
((lp4023
g3389
ag1617
ag6
ag3386
ag2764
ag861
ag186
atp4024
Rp4025
sg19
I00
sg20
g1621
ssg487
(dp4026
g3
g4
((lp4027
g481
ag482
ag483
ag836
ag817
ag1180
ag818
ag813
ag819
ag486
ag506
ag820
ag388
ag640
ag490
ag420
ag436
ag783
ag491
ag492
ag493
ag494
ag369
ag484
ag485
ag496
atp4028
Rp4029
sg19
I00
sg20
g487
ssg388
(dp4030
g3
g4
((lp4031
g1072
ag375
ag376
ag817
ag818
ag377
ag813
ag819
ag379
ag506
ag820
ag487
ag381
ag640
ag420
ag436
ag319
ag344
ag307
ag383
ag384
ag385
ag380
ag386
ag382
ag378
ag387
ag783
atp4032
Rp4033
sg19
I00
sg20
g388
ssg860
(dp4034
g3
g4
((lp4035
g1620
ag181
ag3995
ag566
ag955
ag798
atp4036
Rp4037
sg19
I00
sg20
g860
ssg1500
(dp4038
g3
g4
((lp4039
g1175
ag1423
ag973
ag729
ag562
ag507
ag862
ag1873
ag887
ag651
ag898
ag1537
ag1014
ag1173
ag515
atp4040
Rp4041
sg19
I00
sg20
g1500
ssg1479
(dp4042
g3
g4
((lp4043
g1474
ag1781
ag1574
ag1004
ag1509
ag1480
atp4044
Rp4045
sg19
I00
sg20
g1479
ssg898
(dp4046
g3
g4
((lp4047
g651
ag1423
ag896
ag973
ag328
ag613
ag731
ag1500
ag887
ag333
ag897
ag899
ag762
ag1014
ag900
ag844
ag883
atp4048
Rp4049
sg19
I00
sg20
g898
ssg25
(dp4050
g3
g4
((lp4051
g207
ag1088
ag922
ag97
ag732
ag205
ag1375
ag2379
ag1169
ag66
ag30
ag197
ag21
ag204
ag203
ag206
ag208
ag200
ag201
ag209
ag198
ag202
ag61
ag210
atp4052
Rp4053
sg19
I00
sg20
g25
ssg640
(dp4054
g3
g4
((lp4055
g1213
ag1430
ag1429
ag936
ag1296
ag817
ag818
ag93
ag813
ag819
ag506
ag820
ag487
ag388
ag1431
ag92
ag638
ag420
ag436
ag783
ag636
ag1432
ag1433
ag695
ag1434
ag1108
ag787
ag633
ag637
ag765
atp4056
Rp4057
sg19
I00
sg20
g640
ssg955
(dp4058
g3
g4
((lp4059
g952
ag181
ag953
ag3995
ag876
ag860
ag954
ag2011
atp4060
Rp4061
sg19
I00
sg20
g955
ssg1014
(dp4062
g3
g4
((lp4063
g651
ag1423
ag973
ag824
ag885
ag59
ag626
ag887
ag1500
ag1013
ag898
ag788
ag2122
ag1026
ag1657
ag1717
atp4064
Rp4065
sg19
I00
sg20
g1014
ssg420
(dp4066
g3
g4
((lp4067
g413
ag418
ag817
ag818
ag417
ag813
ag819
ag506
ag820
ag487
ag388
ag640
ag419
ag436
ag783
ag415
ag714
ag356
ag414
ag416
ag422
ag412
ag421
ag1317
ag185
atp4068
Rp4069
sg19
I00
sg20
g420
ssg436
(dp4070
g3
g4
((lp4071
g427
ag428
ag429
ag817
ag430
ag818
ag431
ag813
ag819
ag506
ag820
ag487
ag388
ag920
ag434
ag640
ag420
ag227
ag783
ag216
ag671
ag437
ag438
ag360
ag655
ag439
ag440
ag433
ag441
ag435
ag442
atp4072
Rp4073
sg19
I00
sg20
g436
ssg1004
(dp4074
g3
g4
((lp4075
g24
ag993
ag217
ag155
ag996
ag747
ag1479
ag999
ag266
ag280
ag1574
ag295
ag474
ag1509
ag247
ag748
ag41
ag1202
atp4076
Rp4077
sg19
I00
sg20
g1004
ssg783
(dp4078
g3
g4
((lp4079
g777
ag199
ag778
ag817
ag818
ag28
ag813
ag819
ag779
ag780
ag506
ag820
ag487
ag388
ag781
ag640
ag420
ag436
ag782
ag784
ag761
ag203
ag785
ag786
ag30
ag774
atp4080
Rp4081
sg19
I00
sg20
g783
ssg550
(dp4082
g3
g4
((lp4083
g245
ag540
ag541
ag543
ag544
ag545
ag546
ag547
ag548
ag464
ag549
ag1142
ag587
ag561
ag614
ag1264
ag551
ag673
ag724
ag552
ag521
ag257
ag554
ag460
ag2112
atp4084
Rp4085
sg19
I00
sg20
g550
ssg1142
(dp4086
g3
g4
((lp4087
g550
ag587
ag561
ag614
ag1145
ag1264
ag1092
ag673
ag724
atp4088
Rp4089
sg19
I00
sg20
g1142
ssg3483
(dp4090
g3
g4
((lp4091
g1307
ag2379
atp4092
Rp4093
sg19
I00
sg20
g3483
ssg472
(dp4094
g3
g4
((lp4095
g265
ag471
ag95
ag221
ag473
ag855
ag1001
ag63
ag335
ag468
ag475
ag281
ag476
ag138
atp4096
Rp4097
sg19
I00
sg20
g472
ssg708
(dp4098
g3
g4
((lp4099
g1235
ag794
ag791
ag79
ag796
ag74
ag797
ag702
ag799
atp4100
Rp4101
sg19
I00
sg20
g708
ssg146
(dp4102
g3
g4
((lp4103
g2622
ag143
ag144
ag145
ag147
ag11
ag192
ag3072
ag148
ag149
atp4104
Rp4105
sg19
I00
sg20
g146
ssg587
(dp4106
g3
g4
((lp4107
g550
ag1142
ag275
ag586
ag591
ag561
ag526
ag614
ag278
ag593
ag845
ag590
ag485
ag1264
ag489
ag592
ag673
ag594
ag585
ag724
ag1096
atp4108
Rp4109
sg19
I00
sg20
g587
ssg561
(dp4110
g3
g4
((lp4111
g550
ag1142
ag559
ag560
ag524
ag587
ag565
ag614
ag563
ag808
ag567
ag514
ag564
ag1264
ag510
ag566
ag673
ag1094
ag724
ag1173
ag568
atp4112
Rp4113
sg19
I00
sg20
g561
ssg1105
(dp4114
g3
g4
((lp4115
g97
ag974
ag1106
ag1110
ag1107
ag1112
ag638
ag1111
ag1432
ag1127
ag1728
ag201
ag924
ag1147
ag1634
ag62
ag1579
ag1775
ag336
ag1158
ag1184
ag1174
ag1109
ag1089
atp4116
Rp4117
sg19
I00
sg20
g1105
ssg614
(dp4118
g3
g4
((lp4119
g550
ag1142
ag609
ag610
ag616
ag587
ag561
ag608
ag527
ag615
ag612
ag1264
ag617
ag899
ag337
ag673
ag338
ag724
atp4120
Rp4121
sg19
I00
sg20
g614
ssg924
(dp4122
g3
g4
((lp4123
g922
ag926
ag929
ag65
ag650
ag918
ag919
ag920
ag921
ag317
ag923
ag437
ag1127
ag1728
ag1105
ag201
ag219
ag1147
ag1634
ag62
ag1579
ag1775
ag336
ag1158
ag1184
ag1174
ag927
ag925
ag928
ag675
atp4124
Rp4125
sg19
I00
sg20
g924
ssg74
(dp4126
g3
g4
((lp4127
g1235
ag73
ag708
ag75
ag78
ag80
ag82
ag69
ag76
ag86
ag119
atp4128
Rp4129
sg19
I00
sg20
g74
ssg1264
(dp4130
g3
g4
((lp4131
g550
ag1142
ag1263
ag587
ag561
ag614
ag1190
ag673
ag724
atp4132
Rp4133
sg19
I00
sg20
g1264
ssg1634
(dp4134
g3
g4
((lp4135
g1633
ag1174
ag1630
ag1606
ag1222
ag770
ag462
ag2101
ag255
ag1127
ag1728
ag1105
ag201
ag924
ag1631
ag1147
ag62
ag1579
ag1775
ag336
ag1158
ag1184
ag465
ag553
ag1491
ag990
atp4136
Rp4137
sg19
I00
sg20
g1634
ssg62
(dp4138
g3
g4
((lp4139
g48
ag61
ag52
ag522
ag1127
ag60
ag1026
ag51
ag1022
ag1728
ag1105
ag201
ag924
ag1147
ag1634
ag1579
ag1775
ag336
ag1158
ag1184
ag1174
ag54
atp4140
Rp4141
sg19
I00
sg20
g62
ssg1579
(dp4142
g3
g4
((lp4143
g906
ag1461
ag1127
ag741
ag1105
ag201
ag2127
ag924
ag732
ag1147
ag1634
ag62
ag1728
ag1775
ag336
ag1158
ag1184
ag2025
ag1174
atp4144
Rp4145
sg19
I00
sg20
g1579
ssg1775
(dp4146
g3
g4
((lp4147
g53
ag1728
ag1127
ag2846
ag1105
ag201
ag924
ag1722
ag1147
ag1634
ag62
ag1579
ag336
ag1158
ag1184
ag1174
atp4148
Rp4149
sg19
I00
sg20
g1775
ssg192
(dp4150
g3
g4
((lp4151
g2622
ag191
ag449
ag146
ag1932
ag3072
ag16
atp4152
Rp4153
sg19
I00
sg20
g192
ssg673
(dp4154
g3
g4
((lp4155
g665
ag666
ag667
ag656
ag432
ag668
ag669
ag670
ag550
ag1142
ag671
ag587
ag561
ag614
ag654
ag672
ag1264
ag724
ag674
ag441
ag164
ag928
ag531
ag232
atp4156
Rp4157
sg19
I00
sg20
g673
ssg3072
(dp4158
g3
g4
((lp4159
g2622
ag146
ag2273
ag192
atp4160
Rp4161
sg19
I00
sg20
g3072
ssg724
(dp4162
g3
g4
((lp4163
g1123
ag717
ag719
ag723
ag713
ag1125
ag715
ag718
ag720
ag722
ag550
ag1142
ag714
ag587
ag561
ag614
ag1264
ag673
ag412
ag1091
ag182
ag716
ag535
atp4164
Rp4165
sg19
I00
sg20
g724
ssg1174
(dp4166
g3
g4
((lp4167
g1168
ag57
ag1169
ag1170
ag309
ag1171
ag563
ag1873
ag809
ag804
ag1127
ag1728
ag1105
ag201
ag924
ag1147
ag1634
ag62
ag1579
ag1775
ag336
ag1158
ag1184
ag1172
ag1175
ag1094
ag512
atp4168
Rp4169
sg19
I00
sg20
g1174
ssg2797
(dp4170
g3
g4
((lp4171
g1585
ag2798
ag1147
ag2794
ag2799
atp4172
Rp4173
sg19
I00
sg20
g2797
ssg717
(dp4174
g3
g4
((lp4175
g713
ag1193
ag275
ag290
ag723
ag182
ag528
ag716
ag714
ag719
ag720
ag419
ag722
ag715
ag724
ag718
ag535
atp4176
Rp4177
sg19
I00
sg20
g717
ssg53
(dp4178
g3
g4
((lp4179
g48
ag2846
ag55
ag57
ag58
ag1775
ag468
ag65
ag66
atp4180
Rp4181
sg19
I00
sg20
g53
ssg745
(dp4182
g3
g4
((lp4183
g737
ag740
ag6
ag741
ag742
ag746
ag748
ag630
atp4184
Rp4185
sg19
I00
sg20
g745
ssg665
(dp4186
g3
g4
((lp4187
g585
ag667
ag656
ag671
ag432
ag668
ag669
ag540
ag672
ag670
ag719
ag228
ag531
ag918
ag673
ag435
ag666
ag1190
ag674
ag164
atp4188
Rp4189
sg19
I00
sg20
g665
ssg1584
(dp4190
g3
g4
((lp4191
g1585
ag2836
ag1032
ag1148
atp4192
Rp4193
sg19
I00
sg20
g1584
ssg1514
(dp4194
g3
g4
((lp4195
g1212
ag455
ag1769
ag399
ag419
ag1060
ag782
ag227
ag1217
atp4196
Rp4197
sg19
I00
sg20
g1514
ssg861
(dp4198
g3
g4
((lp4199
g798
ag73
ag1621
ag862
atp4200
Rp4201
sg19
I00
sg20
g861
ssg73
(dp4202
g3
g4
((lp4203
g78
ag861
ag75
ag9
ag80
ag74
ag82
ag69
ag76
ag86
atp4204
Rp4205
sg19
I00
sg20
g73
ssg1117
(dp4206
g3
g4
((lp4207
g602
ag82
ag174
atp4208
Rp4209
sg19
I00
sg20
g1117
ssg2155
(dp4210
g3
g4
((lp4211
g1574
ag144
ag1978
ag2794
atp4212
Rp4213
sg19
I00
sg20
g2155
ssg3246
(dp4214
g3
g4
((lp4215
S'ich'
p4216
ag3248
ag3281
ag1665
ag3185
ag3247
atp4217
Rp4218
sg19
I00
sg20
g3246
ssg1337
(dp4219
g3
g4
((lp4220
g1106
ag396
ag359
ag346
ag312
ag133
ag1055
ag2128
ag488
ag334
ag462
ag1324
ag2084
atp4221
Rp4222
sg19
I00
sg20
g1337
ssg4216
(dp4223
g3
g4
((lp4224
g3246
ag1665
ag3281
atp4225
Rp4226
sg19
I00
sg20
g4216
ssg1415
(dp4227
g3
g4
((lp4228
g179
ag1408
ag1416
ag1417
ag1418
ag186
atp4229
Rp4230
sg19
I00
sg20
g1415
ssg449
(dp4231
g3
g4
((lp4232
g445
ag1932
ag192
atp4233
Rp4234
sg19
I00
sg20
g449
ssg396
(dp4235
g3
g4
((lp4236
g395
ag1337
ag1424
ag1106
ag355
ag1728
ag359
ag312
ag1528
ag133
ag488
ag157
ag334
ag2074
ag403
ag462
ag2075
ag1324
ag1827
ag320
atp4237
Rp4238
sg19
I00
sg20
g396
ssg31
(dp4239
g3
g4
((lp4240
g217
ag922
ag221
ag666
ag231
ag216
ag213
ag431
ag218
ag230
ag21
ag32
ag36
ag33
ag34
ag224
ag37
ag228
ag38
ag39
ag229
ag40
ag41
ag42
ag220
ag219
ag226
ag658
ag1250
ag232
atp4241
Rp4242
sg19
I00
sg20
g31
ssg862
(dp4243
g3
g4
((lp4244
g861
ag729
ag562
ag1873
ag507
ag1500
ag1537
ag1958
ag798
ag1173
ag659
atp4245
Rp4246
sg19
I00
sg20
g862
ssg359
(dp4247
g3
g4
((lp4248
g1085
ag1337
ag352
ag1106
ag1088
ag396
ag269
ag1090
ag357
ag312
ag133
ag488
ag314
ag334
ag1095
ag462
ag1324
ag1065
atp4249
Rp4250
sg19
I00
sg20
g359
ssg312
(dp4251
g3
g4
((lp4252
g341
ag304
ag344
ag1106
ag396
ag1337
ag308
ag315
ag359
ag133
ag488
ag301
ag334
ag316
ag306
ag462
ag319
ag1324
ag348
ag349
atp4253
Rp4254
sg19
I00
sg20
g312
ssg3281
(dp4255
g3
g4
((lp4256
g3246
ag1665
ag4216
ag84
ag113
atp4257
Rp4258
sg19
I00
sg20
g3281
ssg34
(dp4259
g3
g4
((lp4260
g417
ag1317
ag794
ag471
ag21
ag32
ag33
ag723
ag31
ag36
ag37
ag38
ag39
ag2320
ag40
ag41
ag734
ag42
atp4261
Rp4262
sg19
I00
sg20
g34
ssg133
(dp4263
g3
g4
((lp4264
g1337
ag130
ag287
ag1106
ag396
ag131
ag359
ag312
ag132
ag488
ag134
ag334
ag579
ag135
ag462
ag1324
ag58
ag129
atp4265
Rp4266
sg19
I00
sg20
g133
ssg1665
(dp4267
g3
g4
((lp4268
g3246
ag4216
ag1662
ag3281
atp4269
Rp4270
sg19
I00
sg20
g1665
ssg488
(dp4271
g3
g4
((lp4272
g1337
ag1106
ag1019
ag396
ag359
ag312
ag369
ag133
ag489
ag334
ag462
ag1324
ag841
ag1180
ag1182
ag1183
ag1184
ag1181
ag588
ag495
ag1185
ag1096
atp4273
Rp4274
sg19
I00
sg20
g488
ssg37
(dp4275
g3
g4
((lp4276
g1323
ag31
ag21
ag32
ag1278
ag34
ag38
ag36
ag33
ag1375
ag1939
ag39
ag40
ag1318
ag41
ag42
atp4277
Rp4278
sg19
I00
sg20
g37
ssg706
(dp4279
g3
g4
((lp4280
g797
ag1417
ag707
ag702
ag1685
atp4281
Rp4282
sg19
I00
sg20
g706
ssg334
(dp4283
g3
g4
((lp4284
g326
ag55
ag331
ag325
ag1337
ag1106
ag396
ag329
ag359
ag312
ag313
ag615
ag133
ag488
ag462
ag1324
ag327
ag330
ag332
ag336
ag333
ag897
ag337
atp4285
Rp4286
sg19
I00
sg20
g334
ssg38
(dp4287
g3
g4
((lp4288
g806
ag743
ag1169
ag504
ag807
ag31
ag21
ag32
ag33
ag34
ag36
ag37
ag509
ag40
ag41
ag476
ag42
ag804
ag805
ag729
ag810
ag39
ag808
atp4289
Rp4290
sg19
I00
sg20
g38
ssg39
(dp4291
g3
g4
((lp4292
g292
ag291
ag573
ag295
ag287
ag289
ag31
ag21
ag32
ag33
ag34
ag36
ag225
ag37
ag297
ag38
ag40
ag41
ag138
ag286
ag288
ag293
ag296
ag1291
ag294
ag42
ag298
atp4293
Rp4294
sg19
I00
sg20
g39
ssg462
(dp4295
g3
g4
((lp4296
g1633
ag1337
ag1106
ag396
ag1606
ag359
ag312
ag133
ag1222
ag770
ag488
ag334
ag464
ag1630
ag1631
ag363
ag1634
ag553
ag1324
ag1491
ag249
ag454
ag990
atp4297
Rp4298
sg19
I00
sg20
g462
ssg40
(dp4299
g3
g4
((lp4300
g281
ag730
ag223
ag276
ag277
ag21
ag32
ag278
ag33
ag34
ag280
ag31
ag36
ag279
ag37
ag38
ag39
ag594
ag41
ag42
atp4301
Rp4302
sg19
I00
sg20
g40
ssg1324
(dp4303
g3
g4
((lp4304
g1337
ag1106
ag1375
ag396
ag359
ag312
ag1278
ag1371
ag133
ag488
ag334
ag1374
ag462
atp4305
Rp4306
sg19
I00
sg20
g1324
ssg41
(dp4307
g3
g4
((lp4308
g993
ag31
ag1196
ag21
ag32
ag999
ag34
ag996
ag36
ag37
ag33
ag1004
ag1878
ag38
ag39
ag40
ag747
ag42
atp4309
Rp4310
sg19
I00
sg20
g41
ssg42
(dp4311
g3
g4
((lp4312
g474
ag1670
ag31
ag21
ag32
ag33
ag34
ag36
ag1770
ag37
ag468
ag38
ag39
ag40
ag41
atp4313
Rp4314
sg19
I00
sg20
g42
ssg960
(dp4315
g3
g4
((lp4316
g541
ag254
ag542
ag59
ag328
ag884
ag1632
ag2110
ag625
ag840
ag2111
ag458
ag2112
ag660
ag771
ag454
ag2101
ag137
atp4317
Rp4318
sg19
I00
sg20
g960
ssg59
(dp4319
g3
g4
((lp4320
g960
ag48
ag328
ag824
ag885
ag56
ag840
ag626
ag137
ag2122
ag64
ag1657
ag63
ag1026
ag1014
ag1717
ag660
atp4321
Rp4322
sg19
I00
sg20
g59
ssg794
(dp4323
g3
g4
((lp4324
g708
ag471
ag791
ag79
ag34
ag796
ag1317
ag797
ag2320
ag799
atp4325
Rp4326
sg19
I00
sg20
g794
ssg667
(dp4327
g3
g4
((lp4328
g656
ag671
ag690
ag432
ag668
ag669
ag164
ag672
ag670
ag591
ag665
ag531
ag673
ag666
ag674
ag547
atp4329
Rp4330
sg19
I00
sg20
g667
ssg840
(dp4331
g3
g4
((lp4332
g481
ag836
ag960
ag837
ag274
ag59
ag328
ag730
ag845
ag495
ag842
ag660
ag843
ag592
ag589
ag281
ag137
ag832
atp4333
Rp4334
sg19
I00
sg20
g840
ssg347
(dp4335
g3
g4
((lp4336
g341
ag379
ag1977
ag345
atp4337
Rp4338
sg19
I00
sg20
g347
ssg137
(dp4339
g3
g4
((lp4340
g879
ag882
ag840
ag960
ag59
ag328
ag136
ag575
ag58
ag887
ag891
ag660
ag138
atp4341
Rp4342
sg19
I00
sg20
g137
ssg2836
(dp4343
g3
g4
((lp4344
g747
ag1584
ag149
atp4345
Rp4346
sg19
I00
sg20
g2836
ssg660
(dp4347
g3
g4
((lp4348
g650
ag651
ag960
ag59
ag328
ag652
ag653
ag840
ag221
ag137
ag655
ag428
ag654
ag657
ag629
ag658
ag65
ag659
atp4349
Rp4350
sg19
I00
sg20
g660
ssg1149
(dp4351
g3
g4
((lp4352
g1155
ag305
ag1143
ag1144
ag1146
ag1147
ag1148
ag1092
ag1150
atp4353
Rp4354
sg19
I00
sg20
g1149
ssg113
(dp4355
g3
g4
((lp4356
g111
ag112
ag114
ag115
ag9
ag3281
ag83
ag117
ag168
ag118
ag116
ag119
atp4357
Rp4358
sg19
I00
sg20
g113
ssS'obi'
p4359
(dp4360
g3
g4
((lp4361
g78
atp4362
Rp4363
sg19
I00
sg20
g4359
ssg78
(dp4364
g3
g4
((lp4365
g73
ag4359
ag75
ag80
ag74
ag82
ag69
ag76
ag86
atp4366
Rp4367
sg19
I00
sg20
g78
ssg64
(dp4368
g3
g4
((lp4369
g518
ag522
ag48
ag523
ag56
ag696
ag528
ag529
ag541
ag59
ag63
ag1569
ag592
ag567
ag338
ag533
ag534
ag1197
atp4370
Rp4371
sg19
I00
sg20
g64
ssg795
(dp4372
g3
g4
((lp4373
g791
ag1685
ag1881
ag181
ag1884
atp4374
Rp4375
sg19
I00
sg20
g795
ssg114
(dp4376
g3
g4
((lp4377
g111
ag112
ag601
ag113
ag1288
ag115
ag9
ag136
ag1287
ag1289
ag83
ag580
ag117
ag118
ag116
ag1290
ag1291
ag184
ag119
atp4378
Rp4379
sg19
I00
sg20
g114
ssg168
(dp4380
g3
g4
((lp4381
g163
ag113
ag164
ag165
ag166
ag167
ag169
ag14
atp4382
Rp4383
sg19
I00
sg20
g168
ssg780
(dp4384
g3
g4
((lp4385
g777
ag377
ag784
ag30
ag779
ag208
ag774
ag1430
ag398
ag822
ag199
ag785
ag2032
ag1659
ag761
ag781
ag786
ag778
ag782
ag26
ag783
atp4386
Rp4387
sg19
I00
sg20
g780
ssg694
(dp4388
g3
g4
((lp4389
g696
ag974
ag96
ag936
ag713
ag1599
ag690
ag668
ag1600
ag692
ag1601
ag612
ag697
ag699
ag890
ag549
ag534
ag636
ag689
ag698
ag691
ag532
atp4390
Rp4391
sg19
I00
sg20
g694
ssg1868
(dp4392
g3
g4
((lp4393
g75
ag1864
ag905
ag13
atp4394
Rp4395
sg19
I00
sg20
g1868
ssg144
(dp4396
g3
g4
((lp4397
g143
ag145
ag146
ag147
ag11
ag1574
ag148
ag149
ag2155
atp4398
Rp4399
sg19
I00
sg20
g144
ssg1168
(dp4400
g3
g4
((lp4401
g1170
ag326
ag1172
ag309
ag1171
ag57
ag2127
ag502
ag974
ag1128
ag929
ag1175
ag207
ag1095
ag316
ag2128
ag1169
ag1633
ag1094
ag809
ag1174
atp4402
Rp4403
sg19
I00
sg20
g1168
ssg75
(dp4404
g3
g4
((lp4405
g1868
ag1864
ag73
ag78
ag603
ag80
ag74
ag82
ag116
ag69
ag76
ag86
atp4406
Rp4407
sg19
I00
sg20
g75
ssg1245
(dp4408
g3
g4
((lp4409
g1145
ag348
ag1244
atp4410
Rp4411
sg19
I00
sg20
g1245
ssg2127
(dp4412
g3
g4
((lp4413
g326
ag1168
ag1461
ag934
ag1128
ag1633
ag974
ag732
ag2128
ag929
ag207
ag1579
ag316
ag1095
ag748
ag2025
atp4414
Rp4415
sg19
I00
sg20
g2127
ssg1633
(dp4416
g3
g4
((lp4417
g326
ag1168
ag2127
ag974
ag1128
ag2128
ag929
ag207
ag247
ag316
ag1095
ag1630
ag1606
ag884
ag1222
ag770
ag462
ag549
ag1699
ag1631
ag1634
ag553
ag1491
ag990
atp4418
Rp4419
sg19
I00
sg20
g1633
ssg974
(dp4420
g3
g4
((lp4421
g326
ag1168
ag2127
ag97
ag1633
ag1128
ag2128
ag929
ag207
ag316
ag1095
ag936
ag694
ag1106
ag1110
ag1107
ag1112
ag638
ag890
ag1111
ag1105
ag1109
ag1089
atp4422
Rp4423
sg19
I00
sg20
g974
ssg1128
(dp4424
g3
g4
((lp4425
g713
ag1122
ag326
ag1168
ag1127
ag1091
ag2127
ag1126
ag1633
ag974
ag2128
ag929
ag207
ag1095
ag316
ag721
ag1124
ag1129
atp4426
Rp4427
sg19
I00
sg20
g1128
ssg2128
(dp4428
g3
g4
((lp4429
g1337
ag326
ag1168
ag2127
ag1633
ag974
ag1128
ag929
ag207
ag316
ag1095
ag2084
ag937
atp4430
Rp4431
sg19
I00
sg20
g2128
ssg929
(dp4432
g3
g4
((lp4433
g326
ag1168
ag922
ag2127
ag1633
ag974
ag1128
ag217
ag2128
ag207
ag316
ag1095
ag65
ag429
ag668
ag918
ag919
ag920
ag921
ag317
ag923
ag924
ag925
ag926
ag927
ag928
ag675
atp4434
Rp4435
sg19
I00
sg20
g929
ssg207
(dp4436
g3
g4
((lp4437
g24
ag326
ag1168
ag25
ag2127
ag1633
ag974
ag1128
ag205
ag2128
ag929
ag316
ag1095
ag778
ag66
ag197
ag204
ag203
ag206
ag208
ag200
ag201
ag209
ag198
ag202
ag210
atp4438
Rp4439
sg19
I00
sg20
g207
ssg316
(dp4440
g3
g4
((lp4441
g1477
ag326
ag1168
ag2127
ag1633
ag974
ag375
ag2128
ag929
ag207
ag1095
ag306
ag1474
ag312
ag301
ag319
ag315
ag304
ag345
ag308
ag1478
ag1128
ag1481
atp4442
Rp4443
sg19
I00
sg20
g316
ssg1095
(dp4444
g3
g4
((lp4445
g1085
ag326
ag1168
ag1088
ag1090
ag1600
ag359
ag2127
ag266
ag974
ag1128
ag362
ag2128
ag314
ag207
ag316
ag1065
ag1633
ag269
ag929
atp4446
Rp4447
sg19
I00
sg20
g1095
ssg398
(dp4448
g3
g4
((lp4449
g154
ag394
ag406
ag393
ag355
ag407
ag780
ag397
ag402
ag1430
ag822
ag401
ag1659
ag399
ag377
ag404
ag400
ag405
ag2032
atp4450
Rp4451
sg19
I00
sg20
g398
ssg385
(dp4452
g3
g4
((lp4453
g755
ag386
ag344
ag307
ag2774
ag985
ag378
ag383
ag379
ag387
ag416
ag388
ag375
ag381
ag384
ag1071
ag439
ag377
ag382
ag380
ag376
atp4454
Rp4455
sg19
I00
sg20
g385
ssg216
(dp4456
g3
g4
((lp4457
g217
ag230
ag231
ag213
ag28
ag93
ag218
ag1317
ag31
ag224
ag264
ag1072
ag221
ag920
ag228
ag825
ag251
ag1318
ag671
ag220
ag655
ag219
ag226
ag229
ag156
ag436
ag232
atp4458
Rp4459
sg19
I00
sg20
g216
ssg463
(dp4460
g3
g4
((lp4461
g458
ag540
ag250
ag461
ag455
ag486
ag757
ag505
ag457
ag751
ag1222
ag381
ag358
ag761
ag435
ag421
ag400
ag252
ag765
ag456
ag363
ag465
ag459
ag460
ag1223
atp4462
Rp4463
sg19
I00
sg20
g463
ssg656
(dp4464
g3
g4
((lp4465
g665
ag666
ag590
ag667
ag432
ag668
ag669
ag670
ag577
ag564
ag617
ag317
ag671
ag220
ag438
ag672
ag548
ag673
ag674
ag164
ag691
ag629
ag531
atp4466
Rp4467
sg19
I00
sg20
g656
ssg93
(dp4468
g3
g4
((lp4469
g216
ag636
ag28
ag94
ag156
ag1317
ag32
ag95
ag264
ag1072
ag633
ag637
ag638
ag98
ag640
ag825
ag251
ag1318
ag100
atp4470
Rp4471
sg19
I00
sg20
g93
ssg1019
(dp4472
g3
g4
((lp4473
g325
ag1180
ag1182
ag921
ag276
ag492
ag588
ag1144
ag1112
ag488
ag206
ag1185
ag1183
ag841
ag1065
ag1181
ag1184
ag843
ag1096
atp4474
Rp4475
sg19
I00
sg20
g1019
ssg156
(dp4476
g3
g4
((lp4477
g216
ag28
ag93
ag155
ag1317
ag264
ag1072
ag33
ag157
ag825
ag251
ag1318
atp4478
Rp4479
sg19
I00
sg20
g156
ssg691
(dp4480
g3
g4
((lp4481
g636
ag656
ag690
ag689
ag692
ag694
ag696
ag1433
ag590
ag577
ag564
ag697
ag617
ag639
ag96
ag548
ag698
ag532
ag699
atp4482
Rp4483
sg19
I00
sg20
g691
ssg486
(dp4484
g3
g4
((lp4485
g585
ag481
ag482
ag483
ag496
ag463
ag484
ag757
ag505
ag751
ag487
ag381
ag358
ag761
ag490
ag1181
ag435
ag421
ag400
ag765
ag491
ag492
ag493
ag494
ag369
ag485
atp4486
Rp4487
sg19
I00
sg20
g486
ssg1769
(dp4488
g3
g4
((lp4489
g455
ag935
ag1716
ag1722
ag1770
ag399
ag419
ag1514
ag782
ag227
ag1217
atp4490
Rp4491
sg19
I00
sg20
g1769
ssg757
(dp4492
g3
g4
((lp4493
g463
ag289
ag985
ag942
ag486
ag505
ag751
ag886
ag820
ag1214
ag1289
ag1550
ag135
ag381
ag358
ag761
ag1551
ag435
ag421
ag400
ag765
atp4494
Rp4495
sg19
I00
sg20
g757
ssg505
(dp4496
g3
g4
((lp4497
g501
ag502
ag503
ag1537
ag463
ag807
ag486
ag757
ag506
ag751
ag509
ag381
ag358
ag761
ag435
ag421
ag400
ag765
ag511
ag508
ag512
ag513
ag370
ag514
ag515
atp4498
Rp4499
sg19
I00
sg20
g505
ssg264
(dp4500
g3
g4
((lp4501
g263
ag216
ag265
ag28
ag93
ag156
ag1317
ag1072
ag222
ag266
ag267
ag268
ag825
ag251
ag1318
atp4502
Rp4503
sg19
I00
sg20
g264
ssg1072
(dp4504
g3
g4
((lp4505
g216
ag854
ag28
ag93
ag156
ag1317
ag310
ag264
ag388
ag1073
ag1071
ag1002
ag825
ag251
ag319
ag1318
ag349
atp4506
Rp4507
sg19
I00
sg20
g1072
ssg1978
(dp4508
g3
g4
((lp4509
g2155
ag2141
ag1478
ag2794
ag381
ag1973
atp4510
Rp4511
sg19
I00
sg20
g1978
ssg590
(dp4512
g3
g4
((lp4513
g585
ag586
ag656
ag275
ag691
ag587
ag526
ag593
ag594
ag591
ag577
ag564
ag617
ag592
ag494
ag548
ag489
atp4514
Rp4515
sg19
I00
sg20
g590
ssg577
(dp4516
g3
g4
((lp4517
g574
ag656
ag691
ag525
ag290
ag573
ag590
ag576
ag564
ag617
ag296
ag579
ag548
ag1551
ag578
atp4518
Rp4519
sg19
I00
sg20
g577
ssg564
(dp4520
g3
g4
((lp4521
g559
ag560
ag656
ag691
ag524
ag309
ag561
ag548
ag563
ag590
ag577
ag565
ag617
ag510
ag810
ag566
ag567
ag513
ag568
atp4522
Rp4523
sg19
I00
sg20
g564
ssg617
(dp4524
g3
g4
((lp4525
g590
ag656
ag609
ag610
ag691
ag616
ag608
ag614
ag527
ag313
ag615
ag612
ag577
ag564
ag548
ag338
ag764
atp4526
Rp4527
sg19
I00
sg20
g617
ssg921
(dp4528
g3
g4
((lp4529
g922
ag440
ag929
ag65
ag325
ag1019
ag918
ag1144
ag919
ag670
ag920
ag206
ag317
ag1065
ag923
ag924
ag925
ag226
ag926
ag1112
ag927
ag928
ag675
atp4530
Rp4531
sg19
I00
sg20
g921
ssg358
(dp4532
g3
g4
((lp4533
g463
ag352
ag365
ag361
ag366
ag757
ag505
ag368
ag751
ag486
ag362
ag367
ag381
ag761
ag435
ag421
ag400
ag364
ag765
atp4534
Rp4535
sg19
I00
sg20
g358
ssg399
(dp4536
g3
g4
((lp4537
g419
ag154
ag394
ag455
ag400
ag393
ag355
ag407
ag397
ag402
ag227
ag398
ag401
ag1769
ag406
ag404
ag1514
ag782
ag405
ag1217
atp4538
Rp4539
sg19
I00
sg20
g399
ssg548
(dp4540
g3
g4
((lp4541
g245
ag540
ag541
ag656
ag691
ag543
ag544
ag545
ag577
ag590
ag546
ag564
ag617
ag547
ag464
ag549
ag550
ag456
ag551
ag256
ag552
ag521
ag625
ag554
atp4542
Rp4543
sg19
I00
sg20
g548
ssg251
(dp4544
g3
g4
((lp4545
g248
ag246
ag250
ag247
ag216
ag28
ag93
ag156
ag1317
ag249
ag264
ag1072
ag36
ag825
ag1318
ag253
ag1632
ag255
ag256
ag552
ag257
ag1606
ag258
atp4546
Rp4547
sg19
I00
sg20
g251
ssg435
(dp4548
g3
g4
((lp4549
g427
ag428
ag665
ag228
ag429
ag430
ag431
ag486
ag918
ag757
ag505
ag751
ag434
ag381
ag358
ag761
ag436
ag400
ag227
ag765
ag437
ag463
ag438
ag360
ag439
ag440
ag433
ag441
ag421
ag442
atp4550
Rp4551
sg19
I00
sg20
g435
ssg1318
(dp4552
g3
g4
((lp4553
g817
ag216
ag28
ag93
ag156
ag1317
ag2464
ag264
ag1072
ag1278
ag37
ag1323
ag825
ag251
atp4554
Rp4555
sg19
I00
sg20
g1318
ssg782
(dp4556
g3
g4
((lp4557
g1217
ag205
ag777
ag455
ag784
ag30
ag779
ag780
ag774
ag761
ag199
ag785
ag781
ag1769
ag399
ag419
ag1514
ag786
ag778
ag227
ag783
atp4558
Rp4559
sg19
I00
sg20
g782
ssg227
(dp4560
g3
g4
((lp4561
g427
ag428
ag429
ag430
ag213
ag455
ag1769
ag434
ag399
ag419
ag435
ag1514
ag782
ag1217
ag437
ag438
ag360
ag439
ag440
ag431
ag433
ag441
ag436
ag442
atp4562
Rp4563
sg19
I00
sg20
g227
ssg1217
(dp4564
g3
g4
((lp4565
g1209
ag455
ag1514
ag1769
ag227
ag399
ag419
ag1215
ag782
ag937
atp4566
Rp4567
sg19
I00
sg20
g1217
ssg680
(dp4568
g3
g4
((lp4569
g304
ag1229
ag1123
ag654
ag387
ag1073
ag2112
ag2122
ag899
ag318
ag845
ag1173
atp4570
Rp4571
sg19
I00
sg20
g680
ssg837
(dp4572
g3
g4
((lp4573
g586
ag836
ag730
ag1352
ag843
ag2110
ag840
ag589
ag495
ag842
ag657
ag1183
ag490
ag274
ag845
ag832
atp4574
Rp4575
sg19
I00
sg20
g837
ssg1229
(dp4576
g3
g4
((lp4577
g680
ag406
ag1423
ag1958
ag1123
ag1226
ag654
ag2112
ag158
ag2122
ag899
ag403
ag845
ag1173
atp4578
Rp4579
sg19
I00
sg20
g1229
ssg1123
(dp4580
g3
g4
((lp4581
g680
ag412
ag1350
ag1229
ag1091
ag1125
ag654
ag845
ag1351
ag1352
ag2112
ag2122
ag899
ag724
ag1173
ag734
atp4582
Rp4583
sg19
I00
sg20
g1123
ssg1235
(dp4584
g3
g4
((lp4585
g925
ag77
ag708
ag165
ag74
ag434
ag1380
ag659
atp4586
Rp4587
sg19
I00
sg20
g1235
ssg2110
(dp4588
g3
g4
((lp4589
g771
ag254
ag960
ag837
ag542
ag543
ag884
ag1632
ag625
ag2111
ag1352
ag2112
ag657
ag454
ag2101
atp4590
Rp4591
sg19
I00
sg20
g2110
ssg654
(dp4592
g3
g4
((lp4593
g652
ag899
ag659
ag650
ag651
ag1173
ag680
ag1229
ag1123
ag653
ag655
ag2112
ag657
ag2122
ag658
ag673
ag845
ag660
ag441
ag928
ag629
ag232
atp4594
Rp4595
sg19
I00
sg20
g654
ssg1352
(dp4596
g3
g4
((lp4597
g837
ag1350
ag1123
ag2110
ag1351
ag657
ag734
atp4598
Rp4599
sg19
I00
sg20
g1352
ssg2112
(dp4600
g3
g4
((lp4601
g2111
ag542
ag884
ag2101
ag550
ag254
ag680
ag960
ag1229
ag1123
ag1632
ag2110
ag654
ag460
ag771
ag2122
ag899
ag845
ag1173
ag257
ag625
ag454
atp4602
Rp4603
sg19
I00
sg20
g2112
ssg657
(dp4604
g3
g4
((lp4605
g650
ag651
ag923
ag837
ag218
ag653
ag652
ag2110
ag654
ag655
ag1352
ag629
ag658
ag660
ag659
atp4606
Rp4607
sg19
I00
sg20
g657
ssg2122
(dp4608
g3
g4
((lp4609
g680
ag59
ag1229
ag1123
ag885
ag654
ag1717
ag1026
ag2112
ag626
ag824
ag899
ag1657
ag1014
ag829
ag845
ag1173
atp4610
Rp4611
sg19
I00
sg20
g2122
ssg899
(dp4612
g3
g4
((lp4613
g731
ag680
ag883
ag896
ag1229
ag1123
ag613
ag614
ag654
ag328
ag2112
ag898
ag2122
ag844
ag897
ag337
ag900
ag845
ag1173
atp4614
Rp4615
sg19
I00
sg20
g899
ssg884
(dp4616
g3
g4
((lp4617
g1633
ag254
ag960
ag883
ag542
ag1632
ag890
ag2110
ag879
ag625
ag2111
ag771
ag2112
ag889
ag885
ag454
ag247
ag1699
ag2101
ag549
atp4618
Rp4619
sg19
I00
sg20
g884
ssg404
(dp4620
g3
g4
((lp4621
g154
ag394
ag406
ag393
ag1230
ag355
ag407
ag397
ag402
ag400
ag401
ag399
ag398
ag1215
ag433
ag405
atp4622
Rp4623
sg19
I00
sg20
g404
ssg1215
(dp4624
g3
g4
((lp4625
g1209
ag2273
ag2270
ag404
ag433
ag937
ag1217
atp4626
Rp4627
sg19
I00
sg20
g1215
ssg433
(dp4628
g3
g4
((lp4629
g427
ag430
ag441
ag435
ag431
ag437
ag436
ag438
ag1694
ag360
ag442
ag428
ag434
ag439
ag440
ag404
ag1215
ag227
ag429
atp4630
Rp4631
sg19
I00
sg20
g433
ssg1173
(dp4632
g3
g4
((lp4633
g680
ag1229
ag1123
ag561
ag1537
ag562
ag507
ag808
ag862
ag1873
ag514
ag1500
ag2112
ag654
ag2122
ag899
ag1094
ag845
ag729
atp4634
Rp4635
sg19
I00
sg20
g1173
ssg3406
(dp4636
g3
g4
((lp4637
g707
ag1467
atp4638
Rp4639
sg19
I00
sg20
g3406
ssg2294
(dp4640
g3
g4
((lp4641
g2839
ag124
ag85
ag1490
atp4642
Rp4643
sg19
I00
sg20
g2294
ssg953
(dp4644
g3
g4
((lp4645
g952
ag955
ag954
ag876
atp4646
Rp4647
sg19
I00
sg20
g953
ssg716
(dp4648
g3
g4
((lp4649
g713
ag1122
ag714
ag182
ag715
ag717
ag718
ag719
ag720
ag722
ag723
ag724
ag535
atp4650
Rp4651
sg19
I00
sg20
g716
ssg707
(dp4652
g3
g4
((lp4653
g3406
ag706
ag702
ag1881
atp4654
Rp4655
sg19
I00
sg20
g707
ssg887
(dp4656
g3
g4
((lp4657
g879
ag882
ag286
ag651
ag1423
ag973
ag575
ag137
ag1500
ag898
ag1014
ag891
atp4658
Rp4659
sg19
I00
sg20
g887
ssg885
(dp4660
g3
g4
((lp4661
g879
ag883
ag59
ag824
ag890
ag626
ag1657
ag889
ag2122
ag1026
ag884
ag1014
ag1717
ag534
atp4662
Rp4663
sg19
I00
sg20
g885
ssS'ohm'
p4664
(dp4665
g3
g4
((lp4666
g2798
ag799
atp4667
Rp4668
sg19
I00
sg20
g4664
ssg2798
(dp4669
g3
g4
((lp4670
g2797
ag4664
ag2794
ag1585
ag3083
ag2799
ag799
atp4671
Rp4672
sg19
I00
sg20
g2798
ssg245
(dp4673
g3
g4
((lp4674
g1196
ag1670
ag573
ag594
ag541
ag96
ag723
ag666
ag1734
ag543
ag544
ag545
ag546
ag36
ag540
ag547
ag548
ag464
ag549
ag252
ag550
ag254
ag551
ag552
ag1733
ag521
ag554
atp4675
Rp4676
sg19
I00
sg20
g245
ssg1196
(dp4677
g3
g4
((lp4678
g1193
ag245
ag1734
ag1670
ag573
ag594
ag1733
ag96
ag1878
ag723
ag666
ag41
ag1197
atp4679
Rp4680
sg19
I00
sg20
g1196
ssg1670
(dp4681
g3
g4
((lp4682
g1601
ag1672
ag245
ag573
ag1196
ag1770
ag594
ag1733
ag1671
ag96
ag723
ag666
ag1734
ag42
atp4683
Rp4684
sg19
I00
sg20
g1670
ssg573
(dp4685
g3
g4
((lp4686
g574
ag1733
ag245
ag290
ag525
ag1291
ag1670
ag594
ag1196
ag576
ag577
ag578
ag579
ag96
ag39
ag723
ag666
ag1734
atp4687
Rp4688
sg19
I00
sg20
g573
ssg1685
(dp4689
g3
g4
((lp4690
g706
ag1884
ag795
ag3862
ag1417
ag3247
ag797
ag1881
atp4691
Rp4692
sg19
I00
sg20
g1685
ssg1733
(dp4693
g3
g4
((lp4694
g2767
ag1600
ag1088
ag245
ag361
ag1196
ag357
ag1670
ag573
ag594
ag1756
ag1849
ag96
ag723
ag666
ag1734
atp4695
Rp4696
sg19
I00
sg20
g1733
ssg1306
(dp4697
g3
g4
((lp4698
g2376
ag1303
ag1307
ag1308
atp4699
Rp4700
sg19
I00
sg20
g1306
ssg3862
(dp4701
g3
g4
((lp4702
g1631
ag1685
ag3247
atp4703
Rp4704
sg19
I00
sg20
g3862
ssg3247
(dp4705
g3
g4
((lp4706
g3246
ag3862
ag3185
ag3248
ag1685
atp4707
Rp4708
sg19
I00
sg20
g3247
ssg96
(dp4709
g3
g4
((lp4710
g245
ag1196
ag1670
ag573
ag97
ag594
ag1733
ag723
ag666
ag1734
ag92
ag694
ag690
ag691
ag32
ag697
ag699
ag636
ag689
ag696
ag698
ag99
ag692
ag532
atp4711
Rp4712
sg19
I00
sg20
g96
ssg723
(dp4713
g3
g4
((lp4714
g245
ag1196
ag1670
ag573
ag594
ag1733
ag717
ag719
ag96
ag34
ag666
ag1734
ag713
ag417
ag715
ag718
ag720
ag722
ag714
ag724
ag734
ag182
ag716
ag535
atp4715
Rp4716
sg19
I00
sg20
g723
ssg666
(dp4717
g3
g4
((lp4718
g245
ag1196
ag922
ag1670
ag573
ag594
ag1733
ag665
ag96
ag723
ag1734
ag667
ag656
ag431
ag432
ag668
ag31
ag670
ag671
ag672
ag658
ag673
ag674
ag1250
ag164
ag669
ag531
atp4719
Rp4720
sg19
I00
sg20
g666
ssg1734
(dp4721
g3
g4
((lp4722
g245
ag1196
ag1670
ag573
ag594
ag1733
ag96
ag723
ag666
atp4723
Rp4724
sg19
I00
sg20
g1734
ssg799
(dp4725
g3
g4
((lp4726
g4664
ag2798
ag708
ag794
ag791
ag79
ag796
ag797
atp4727
Rp4728
sg19
I00
sg20
g799
ssg754
(dp4729
g3
g4
((lp4730
g755
ag484
ag611
ag942
ag616
ag943
ag2001
ag457
ag751
ag758
ag821
ag756
ag1431
ag900
ag781
ag760
ag330
ag762
ag382
ag763
ag764
atp4731
Rp4732
sg19
I00
sg20
g754
ssg1956
(dp4733
g3
g4
((lp4734
g1645
ag434
ag1957
ag2774
ag401
atp4735
Rp4736
sg19
I00
sg20
g1956
ssg52
(dp4737
g3
g4
((lp4738
g51
ag1658
ag48
ag54
ag1171
ag331
ag822
ag1630
ag61
ag1657
ag62
ag60
ag208
ag2084
atp4739
Rp4740
sg19
I00
sg20
g52
ssg1658
(dp4741
g3
g4
((lp4742
g1630
ag52
ag2150
ag1171
ag331
ag239
ag1659
ag208
ag2084
atp4743
Rp4744
sg19
I00
sg20
g1658
ssg484
(dp4745
g3
g4
((lp4746
g481
ag482
ag483
ag496
ag821
ag754
ag942
ag486
ag2001
ag457
ag487
ag1431
ag781
ag490
ag382
ag491
ag1182
ag493
ag494
ag369
ag492
ag485
atp4747
Rp4748
sg19
I00
sg20
g484
ssg942
(dp4749
g3
g4
((lp4750
g754
ag484
ag985
ag2001
ag292
ag457
ag820
ag886
ag821
ag1214
ag1431
ag1550
ag781
ag1551
ag382
ag757
atp4751
Rp4752
sg19
I00
sg20
g942
ssg669
(dp4753
g3
g4
((lp4754
g427
ag665
ag666
ag670
ag667
ag656
ag432
ag668
ag230
ag692
ag919
ag715
ag744
ag546
ag576
ag1672
ag671
ag653
ag672
ag673
ag674
ag164
ag531
atp4755
Rp4756
sg19
I00
sg20
g669
ssg3086
(dp4757
g3
g4
((lp4758
g3083
atp4759
Rp4760
sg19
I00
sg20
g3086
ssg2001
(dp4761
g3
g4
((lp4762
g817
ag754
ag1374
ag484
ag942
ag457
ag1983
ag2030
ag2031
ag821
ag2002
ag1431
ag781
ag1939
ag382
ag2033
ag2032
atp4763
Rp4764
sg19
I00
sg20
g2001
ssg1171
(dp4765
g3
g4
((lp4766
g560
ag1170
ag1658
ag1168
ag52
ag1172
ag309
ag57
ag331
ag1630
ag1175
ag208
ag1169
ag1094
ag2084
ag809
ag1174
atp4767
Rp4768
sg19
I00
sg20
g1171
ssg457
(dp4769
g3
g4
((lp4770
g754
ag463
ag455
ag484
ag942
ag458
ag2001
ag821
ag2111
ag456
ag1431
ag363
ag459
ag460
ag781
ag461
ag382
ag252
ag465
atp4771
Rp4772
sg19
I00
sg20
g457
ssg331
(dp4773
g3
g4
((lp4774
g325
ag1630
ag52
ag326
ag327
ag55
ag329
ag1171
ag330
ag313
ag332
ag333
ag334
ag208
ag336
ag337
ag1658
ag2084
atp4775
Rp4776
sg19
I00
sg20
g331
ssg821
(dp4777
g3
g4
((lp4778
g754
ag827
ag382
ag813
ag942
ag530
ag2001
ag523
ag457
ag1431
ag822
ag828
ag823
ag781
ag788
ag816
ag51
ag829
ag826
ag56
ag484
atp4779
Rp4780
sg19
I00
sg20
g821
ssg744
(dp4781
g3
g4
((lp4782
g905
ag737
ag906
ag907
ag669
ag692
ag715
ag12
ag546
ag576
ag909
ag1672
atp4783
Rp4784
sg19
I00
sg20
g744
ssg1431
(dp4785
g3
g4
((lp4786
g1213
ag1429
ag936
ag1296
ag754
ag484
ag942
ag2001
ag457
ag1430
ag821
ag92
ag781
ag640
ag382
ag765
ag1432
ag1433
ag695
ag698
ag1434
ag1108
ag787
atp4787
Rp4788
sg19
I00
sg20
g1431
ssg434
(dp4789
g3
g4
((lp4790
g427
ag428
ag429
ag1956
ag431
ag1957
ag401
ag659
ag436
ag227
ag1235
ag437
ag430
ag77
ag438
ag360
ag925
ag439
ag440
ag433
ag441
ag435
ag442
ag1380
atp4791
Rp4792
sg19
I00
sg20
g434
ssg781
(dp4793
g3
g4
((lp4794
g777
ag199
ag778
ag754
ag786
ag484
ag942
ag779
ag2001
ag457
ag821
ag1431
ag761
ag44
ag382
ag782
ag783
ag784
ag785
ag209
ag30
ag774
ag780
atp4795
Rp4796
sg19
I00
sg20
g781
ssg208
(dp4797
g3
g4
((lp4798
g25
ag331
ag205
ag207
ag26
ag66
ag1630
ag52
ag1658
ag197
ag1171
ag204
ag203
ag206
ag2084
ag200
ag210
ag201
ag209
ag198
ag202
ag780
atp4799
Rp4800
sg19
I00
sg20
g208
ssg576
(dp4801
g3
g4
((lp4802
g574
ag546
ag290
ag669
ag525
ag1288
ag692
ag293
ag573
ag744
ag1214
ag577
ag578
ag579
ag1552
ag715
ag129
ag1672
atp4803
Rp4804
sg19
I00
sg20
g576
ssg2084
(dp4805
g3
g4
((lp4806
g1630
ag52
ag1658
ag1337
ag1171
ag331
ag2128
ag208
atp4807
Rp4808
sg19
I00
sg20
g2084
ssg382
(dp4809
g3
g4
((lp4810
g375
ag376
ag754
ag377
ag484
ag378
ag379
ag2001
ag457
ag821
ag388
ag1431
ag781
ag381
ag344
ag307
ag383
ag384
ag385
ag380
ag386
ag942
ag387
atp4811
Rp4812
sg19
I00
sg20
g382
ssg1672
(dp4813
g3
g4
((lp4814
g744
ag669
ag1670
ag692
ag715
ag1601
ag546
ag1671
ag576
atp4815
Rp4816
sg19
I00
sg20
g1672
ssg816
(dp4817
g3
g4
((lp4818
g427
ag1209
ag1212
ag777
ag1213
ag393
ag413
ag56
ag368
ag503
ag1214
ag496
ag760
ag461
ag1032
ag1216
ag813
ag821
ag822
ag823
ag60
ag826
ag827
ag530
ag828
ag788
ag829
atp4819
Rp4820
sg19
I00
sg20
g816
ssg265
(dp4821
g3
g4
((lp4822
g263
ag471
ag264
ag95
ag267
ag472
ag221
ag266
ag335
ag473
ag364
ag63
ag268
ag468
ag222
ag475
ag281
ag476
ag138
atp4823
Rp4824
sg19
I00
sg20
g265
ssg2011
(dp4825
g3
g4
((lp4826
g955
ag705
atp4827
Rp4828
sg19
I00
sg20
g2011
ssg1106
(dp4829
g3
g4
((lp4830
g1109
ag638
ag396
ag1337
ag1089
ag1110
ag1105
ag359
ag312
ag97
ag1107
ag133
ag1112
ag488
ag974
ag334
ag1111
ag462
ag1324
atp4831
Rp4832
sg19
I00
sg20
g1106
ssg952
(dp4833
g3
g4
((lp4834
g953
ag115
ag147
ag876
ag954
ag1834
ag955
atp4835
Rp4836
sg19
I00
sg20
g952
ssg448
(dp4837
g3
g4
((lp4838
g445
ag825
ag813
ag824
ag533
atp4839
Rp4840
sg19
I00
sg20
g448
ssg115
(dp4841
g3
g4
((lp4842
g952
ag111
ag112
ag113
ag114
ag9
ag147
ag83
ag117
ag118
ag116
ag119
atp4843
Rp4844
sg19
I00
sg20
g115
ssg205
(dp4845
g3
g4
((lp4846
g131
ag782
ag198
ag200
ag25
ag197
ag201
ag204
ag202
ag203
ag206
ag207
ag208
ag209
ag269
ag210
ag66
atp4847
Rp4848
sg19
I00
sg20
g205
ssg1491
(dp4849
g3
g4
((lp4850
g1630
ag553
ag1606
ag1633
ag1631
ag1222
ag770
ag1634
ag1410
ag462
ag990
atp4851
Rp4852
sg19
I00
sg20
g1491
ssg147
(dp4853
g3
g4
((lp4854
g952
ag143
ag144
ag145
ag146
ag115
ag11
ag148
ag149
atp4855
Rp4856
sg19
I00
sg20
g147
ssg552
(dp4857
g3
g4
((lp4858
g636
ag245
ag540
ag541
ag1606
ag544
ag545
ag546
ag547
ag548
ag251
ag464
ag549
ag550
ag714
ag671
ag1632
ag1671
ag565
ag578
ag533
ag521
ag543
ag554
ag551
atp4859
Rp4860
sg19
I00
sg20
g552
ssg471
(dp4861
g3
g4
((lp4862
g265
ag1317
ag794
ag95
ag472
ag221
ag34
ag473
ag418
ag63
ag335
ag468
ag2320
ag475
ag281
ag476
ag138
atp4863
Rp4864
sg19
I00
sg20
g471
ss.