(dp0
S'all'
p1
(dp2
S'neighbors'
p3
c__builtin__
set
p4
((lp5
S'ell'
p6
aS'aal'
p7
aS'ill'
p8
aS'ale'
p9
aS'alb'
p10
aS'ala'
p11
aS'ail'
p12
aS'awl'
p13
aS'alt'
p14
aS'alp'
p15
atp16
Rp17
sS'visited'
p18
I00
sS'word'
p19
g1
ssS'pew'
p20
(dp21
g3
g4
((lp22
S'sew'
p23
aS'peg'
p24
aS'jew'
p25
aS'paw'
p26
aS'pet'
p27
aS'pow'
p28
aS'pep'
p29
aS'mew'
p30
aS'per'
p31
aS'dew'
p32
aS'few'
p33
aS'pen'
p34
aS'hew'
p35
aS'pee'
p36
aS'ped'
p37
aS'new'
p38
aS'pes'
p39
aS'pea'
p40
aS'yew'
p41
aS'tew'
p42
atp43
Rp44
sg18
I00
sg19
g20
ssS'ore'
p45
(dp46
g3
g4
((lp47
S'orc'
p48
aS'ole'
p49
aS'ope'
p50
aS'owe'
p51
aS'ose'
p52
aS'ort'
p53
aS'obe'
p54
aS'ors'
p55
aS'one'
p56
aS'ere'
p57
aS'oke'
p58
aS'are'
p59
aS'ire'
p60
aS'orb'
p61
aS'ode'
p62
aS'ora'
p63
atp64
Rp65
sg18
I00
sg19
g45
ssg29
(dp66
g3
g4
((lp67
S'pap'
p68
aS'hep'
p69
ag27
aS'rep'
p70
ag20
ag31
ag39
aS'pip'
p71
ag34
aS'pop'
p72
aS'yep'
p73
ag37
ag36
ag24
aS'pup'
p74
ag40
aS'kep'
p75
atp76
Rp77
sg18
I00
sg19
g29
ssS'edh'
p78
(dp79
g3
g4
((lp80
S'eth'
p81
atp82
Rp83
sg18
I00
sg19
g78
ssg9
(dp84
g3
g4
((lp85
S'ane'
p86
ag1
aS'ate'
p87
ag49
aS'ace'
p88
aS'aye'
p89
aS'age'
p90
ag10
ag11
ag59
aS'axe'
p91
aS'ave'
p92
ag14
aS'awe'
p93
ag15
aS'ape'
p94
atp95
Rp96
sg18
I00
sg19
g9
ssg10
(dp97
g3
g4
((lp98
g1
ag9
ag14
ag15
ag11
atp99
Rp100
sg18
I00
sg19
g10
ssS'roe'
p101
(dp102
g3
g4
((lp103
S'toe'
p104
aS'hoe'
p105
aS'voe'
p106
aS'rob'
p107
aS'roc'
p108
aS'rod'
p109
aS'doe'
p110
aS'foe'
p111
aS'joe'
p112
aS'woe'
p113
aS'row'
p114
aS'rot'
p115
aS'rye'
p116
aS'rue'
p117
aS'ree'
p118
atp119
Rp120
sg18
I00
sg19
g101
ssg11
(dp121
g3
g4
((lp122
S'aba'
p123
ag1
aS'aha'
p124
aS'ana'
p125
aS'ama'
p126
ag9
ag10
aS'aga'
p127
aS'awa'
p128
ag14
aS'ava'
p129
ag15
atp130
Rp131
sg18
I00
sg19
g11
ssg31
(dp132
g3
g4
((lp133
S'par'
p134
aS'ser'
p135
aS'her'
p136
ag27
ag20
ag29
ag39
ag34
aS'fer'
p137
ag37
ag36
ag24
ag40
aS'pur'
p138
atp139
Rp140
sg18
I00
sg19
g31
ssg14
(dp141
g3
g4
((lp142
g1
aS'art'
p143
aS'ait'
p144
ag9
ag10
aS'apt'
p145
ag11
aS'ant'
p146
aS'act'
p147
aS'aft'
p148
ag15
atp149
Rp150
sg18
I00
sg19
g14
ssg52
(dp151
g3
g4
((lp152
S'use'
p153
ag49
ag51
ag54
ag56
ag50
ag58
ag45
ag62
atp154
Rp155
sg18
I00
sg19
g52
ssg15
(dp156
g3
g4
((lp157
g1
aS'asp'
p158
ag9
ag10
ag11
aS'amp'
p159
ag14
atp160
Rp161
sg18
I00
sg19
g15
ssg114
(dp162
g3
g4
((lp163
S'wow'
p164
ag108
aS'tow'
p165
aS'cow'
p166
aS'raw'
p167
aS'mow'
p168
ag107
aS'jow'
p169
ag109
ag101
aS'bow'
p170
aS'how'
p171
aS'vow'
p172
aS'low'
p173
aS'sow'
p174
ag28
aS'yow'
p175
aS'now'
p176
ag115
aS'dow'
p177
atp178
Rp179
sg18
I00
sg19
g114
ssS'vet'
p180
(dp181
g3
g4
((lp182
S'het'
p183
aS'set'
p184
aS'jet'
p185
aS'met'
p186
ag27
aS'get'
p187
aS'ret'
p188
aS'vex'
p189
aS'veg'
p190
aS'fet'
p191
aS'vee'
p192
aS'let'
p193
aS'vat'
p194
aS'wet'
p195
aS'net'
p196
aS'yet'
p197
aS'bet'
p198
atp199
Rp200
sg18
I00
sg19
g180
ssS'auk'
p201
(dp202
g3
g4
((lp203
S'ask'
p204
aS'yuk'
p205
aS'ark'
p206
atp207
Rp208
sg18
I00
sg19
g201
ssg34
(dp209
g3
g4
((lp210
S'ten'
p211
aS'yen'
p212
aS'sen'
p213
aS'pin'
p214
aS'fen'
p215
ag20
ag29
aS'wen'
p216
ag31
ag39
ag37
ag36
aS'hen'
p217
ag24
ag40
aS'pan'
p218
aS'ken'
p219
aS'pun'
p220
aS'men'
p221
aS'ben'
p222
ag27
aS'den'
p223
atp224
Rp225
sg18
I00
sg19
g34
ssg189
(dp226
g3
g4
((lp227
S'dex'
p228
ag180
aS'hex'
p229
aS'rex'
p230
aS'sex'
p231
ag190
ag192
aS'kex'
p232
aS'lex'
p233
aS'vox'
p234
atp235
Rp236
sg18
I00
sg19
g189
ssg190
(dp237
g3
g4
((lp238
S'vug'
p239
ag180
aS'leg'
p240
aS'keg'
p241
aS'beg'
p242
ag189
aS'teg'
p243
ag192
ag24
atp244
Rp245
sg18
I00
sg19
g190
ssg192
(dp246
g3
g4
((lp247
g180
ag106
aS'cee'
p248
aS'fee'
p249
aS'lee'
p250
aS'wee'
p251
aS'vie'
p252
aS'zee'
p253
aS'nee'
p254
aS'tee'
p255
ag189
aS'bee'
p256
ag190
aS'see'
p257
aS'gee'
p258
aS'jee'
p259
ag36
aS'dee'
p260
ag118
atp261
Rp262
sg18
I00
sg19
g192
ssS'goy'
p263
(dp264
g3
g4
((lp265
S'boy'
p266
aS'goo'
p267
aS'toy'
p268
aS'gay'
p269
aS'coy'
p270
aS'god'
p271
aS'gey'
p272
aS'goa'
p273
aS'foy'
p274
aS'gob'
p275
aS'gox'
p276
aS'joy'
p277
aS'soy'
p278
aS'got'
p279
aS'guy'
p280
aS'hoy'
p281
aS'gor'
p282
atp283
Rp284
sg18
I00
sg19
g263
ssg107
(dp285
g3
g4
((lp286
S'lob'
p287
aS'sob'
p288
aS'hob'
p289
aS'rub'
p290
ag115
ag108
ag109
ag101
aS'nob'
p291
ag275
aS'job'
p292
aS'cob'
p293
aS'fob'
p294
aS'reb'
p295
aS'mob'
p296
aS'bob'
p297
aS'rib'
p298
ag114
atp299
Rp300
sg18
I00
sg19
g107
ssS'fly'
p301
(dp302
g3
g4
((lp303
S'fay'
p304
aS'sly'
p305
aS'flu'
p306
ag274
aS'ply'
p307
aS'fry'
p308
aS'fey'
p309
atp310
Rp311
sg18
I00
sg19
g301
ssS'fax'
p312
(dp313
g3
g4
((lp314
g304
aS'far'
p315
aS'fas'
p316
aS'fix'
p317
aS'fox'
p318
aS'fat'
p319
aS'pax'
p320
aS'sax'
p321
aS'fan'
p322
aS'rax'
p323
aS'zax'
p324
aS'wax'
p325
aS'lax'
p326
aS'tax'
p327
aS'fag'
p328
aS'fad'
p329
atp330
Rp331
sg18
I00
sg19
g312
ssg304
(dp332
g3
g4
((lp333
S'say'
p334
aS'ray'
p335
aS'yay'
p336
aS'jay'
p337
aS'pay'
p338
ag274
aS'day'
p339
ag315
aS'way'
p340
ag308
aS'nay'
p341
ag309
ag312
ag269
aS'may'
p342
ag316
ag319
ag322
aS'lay'
p343
aS'kay'
p344
ag328
ag329
ag301
aS'cay'
p345
aS'bay'
p346
aS'hay'
p347
atp348
Rp349
sg18
I00
sg19
g304
ssg315
(dp350
g3
g4
((lp351
S'tar'
p352
aS'mar'
p353
aS'fir'
p354
ag134
aS'for'
p355
aS'jar'
p356
aS'yar'
p357
ag137
ag329
aS'war'
p358
aS'oar'
p359
ag312
ag304
ag316
aS'gar'
p360
ag319
ag322
aS'fur'
p361
aS'ear'
p362
ag328
aS'lar'
p363
aS'bar'
p364
aS'car'
p365
atp366
Rp367
sg18
I00
sg19
g315
ssg316
(dp368
g3
g4
((lp369
g312
ag304
aS'bas'
p370
aS'tas'
p371
ag315
aS'gas'
p372
aS'mas'
p373
ag319
aS'kas'
p374
aS'pas'
p375
ag322
aS'ras'
p376
aS'aas'
p377
aS'vas'
p378
aS'has'
p379
aS'was'
p380
ag328
ag329
aS'las'
p381
atp382
Rp383
sg18
I00
sg19
g316
ssg319
(dp384
g3
g4
((lp385
S'tat'
p386
aS'rat'
p387
aS'sat'
p388
aS'pat'
p389
aS'fit'
p390
aS'eat'
p391
ag191
aS'oat'
p392
aS'wat'
p393
aS'hat'
p394
ag194
ag312
ag304
aS'mat'
p395
ag315
ag316
aS'gat'
p396
ag322
aS'kat'
p397
aS'lat'
p398
ag328
ag329
aS'bat'
p399
aS'cat'
p400
atp401
Rp402
sg18
I00
sg19
g319
ssg322
(dp403
g3
g4
((lp404
S'fun'
p405
ag312
ag304
aS'van'
p406
aS'gan'
p407
ag315
ag316
ag319
ag215
aS'ran'
p408
aS'can'
p409
ag218
aS'ban'
p410
aS'tan'
p411
aS'fon'
p412
aS'wan'
p413
aS'fin'
p414
ag328
ag329
aS'man'
p415
atp416
Rp417
sg18
I00
sg19
g322
ssS'rec'
p418
(dp419
g3
g4
((lp420
g230
aS'res'
p421
ag70
ag108
aS'rev'
p422
ag188
aS'rei'
p423
aS'sec'
p424
aS'rem'
p425
ag295
aS'ref'
p426
aS'red'
p427
ag118
atp428
Rp429
sg18
I00
sg19
g418
ssg328
(dp430
g3
g4
((lp431
S'rag'
p432
aS'zag'
p433
aS'sag'
p434
ag304
aS'nag'
p435
aS'bag'
p436
aS'wag'
p437
aS'hag'
p438
aS'fog'
p439
aS'fig'
p440
aS'jag'
p441
ag312
aS'dag'
p442
ag315
ag316
aS'lag'
p443
ag319
ag322
aS'mag'
p444
aS'gag'
p445
ag329
aS'fug'
p446
aS'tag'
p447
atp448
Rp449
sg18
I00
sg19
g328
ssg329
(dp450
g3
g4
((lp451
S'rad'
p452
aS'sad'
p453
aS'tad'
p454
aS'fed'
p455
aS'wad'
p456
aS'had'
p457
aS'fud'
p458
aS'lad'
p459
aS'pad'
p460
aS'fid'
p461
aS'dad'
p462
ag312
ag304
ag315
ag316
ag319
ag322
aS'mad'
p463
aS'gad'
p464
ag328
aS'bad'
p465
aS'cad'
p466
atp467
Rp468
sg18
I00
sg19
g329
ssS'dim'
p469
(dp470
g3
g4
((lp471
S'din'
p472
aS'mim'
p473
aS'nim'
p474
aS'dom'
p475
aS'did'
p476
aS'die'
p477
aS'dig'
p478
aS'dib'
p479
aS'vim'
p480
aS'aim'
p481
aS'rim'
p482
aS'dam'
p483
aS'dit'
p484
aS'dip'
p485
aS'him'
p486
aS'sim'
p487
atp488
Rp489
sg18
I00
sg19
g469
ssg472
(dp490
g3
g4
((lp491
g214
aS'win'
p492
aS'vin'
p493
aS'rin'
p494
aS'dun'
p495
aS'jin'
p496
aS'lin'
p497
aS'yin'
p498
aS'tin'
p499
aS'gin'
p500
ag414
aS'sin'
p501
aS'bin'
p502
aS'kin'
p503
aS'hin'
p504
ag469
aS'don'
p505
ag476
ag477
ag478
ag479
aS'ain'
p506
ag223
ag484
ag485
atp507
Rp508
sg18
I00
sg19
g472
ssg476
(dp509
g3
g4
((lp510
g462
ag469
ag472
aS'lid'
p511
aS'yid'
p512
ag477
aS'bid'
p513
ag478
aS'dud'
p514
aS'mid'
p515
ag479
aS'gid'
p516
aS'hid'
p517
ag461
ag484
aS'aid'
p518
aS'rid'
p519
ag485
aS'kid'
p520
atp521
Rp522
sg18
I00
sg19
g476
ssg477
(dp523
g3
g4
((lp524
S'pie'
p525
ag469
ag472
ag252
aS'lie'
p526
ag476
ag478
aS'due'
p527
ag479
ag110
aS'tie'
p528
aS'gie'
p529
aS'hie'
p530
aS'fie'
p531
ag484
aS'dye'
p532
ag485
ag260
atp533
Rp534
sg18
I00
sg19
g477
ssg478
(dp535
g3
g4
((lp536
S'wig'
p537
ag469
ag472
ag442
aS'jig'
p538
ag476
aS'big'
p539
aS'dog'
p540
ag479
aS'dug'
p541
aS'gig'
p542
aS'zig'
p543
ag440
ag477
ag484
aS'rig'
p544
aS'mig'
p545
aS'pig'
p546
ag485
atp547
Rp548
sg18
I00
sg19
g478
ssS'eve'
p549
(dp550
g3
g4
((lp551
S'eme'
p552
aS'eye'
p553
aS'eke'
p554
aS'ewe'
p555
ag57
ag92
atp556
Rp557
sg18
I00
sg19
g549
ssg479
(dp558
g3
g4
((lp559
g298
ag469
ag472
aS'mib'
p560
aS'jib'
p561
aS'lib'
p562
aS'dab'
p563
aS'sib'
p564
ag476
ag477
aS'dub'
p565
ag478
aS'bib'
p566
aS'fib'
p567
aS'nib'
p568
aS'gib'
p569
ag484
aS'deb'
p570
ag485
atp571
Rp572
sg18
I00
sg19
g479
ssS'gul'
p573
(dp574
g3
g4
((lp575
S'pul'
p576
aS'gun'
p577
aS'gum'
p578
aS'gal'
p579
aS'gut'
p580
ag280
aS'gel'
p581
atp582
Rp583
sg18
I00
sg19
g573
ssS'hyp'
p584
(dp585
g3
g4
((lp586
S'hip'
p587
ag69
aS'hup'
p588
aS'hop'
p589
aS'gyp'
p590
aS'hap'
p591
atp592
Rp593
sg18
I00
sg19
g584
ssg580
(dp594
g3
g4
((lp595
S'mut'
p596
aS'cut'
p597
ag187
aS'nut'
p598
ag396
aS'tut'
p599
ag577
aS'but'
p600
ag573
aS'hut'
p601
aS'git'
p602
ag578
aS'jut'
p603
aS'put'
p604
ag279
ag280
aS'rut'
p605
aS'out'
p606
atp607
Rp608
sg18
I00
sg19
g580
ssg484
(dp609
g3
g4
((lp610
g469
ag472
ag602
aS'hit'
p611
ag390
aS'sit'
p612
ag476
ag477
aS'pit'
p613
ag478
ag479
aS'kit'
p614
aS'lit'
p615
aS'tit'
p616
aS'wit'
p617
aS'nit'
p618
ag144
aS'bit'
p619
ag485
aS'dot'
p620
aS'uit'
p621
atp622
Rp623
sg18
I00
sg19
g484
ssg280
(dp624
g3
g4
((lp625
S'buy'
p626
ag269
ag272
ag577
ag578
ag573
ag263
ag580
atp627
Rp628
sg18
I00
sg19
g280
ssg118
(dp629
g3
g4
((lp630
g116
ag253
ag101
ag255
ag257
ag230
ag249
ag251
ag421
ag70
ag254
ag422
ag188
ag423
ag425
ag295
ag36
ag426
ag427
ag192
ag248
ag250
ag259
ag117
ag258
ag418
ag256
ag260
atp631
Rp632
sg18
I00
sg19
g118
ssg485
(dp633
g3
g4
((lp634
g587
ag469
ag472
aS'kip'
p635
aS'zip'
p636
aS'gip'
p637
ag476
ag477
ag478
aS'tip'
p638
ag479
aS'dup'
p639
ag71
aS'sip'
p640
aS'dap'
p641
aS'rip'
p642
ag484
aS'lip'
p643
aS'nip'
p644
aS'yip'
p645
atp646
Rp647
sg18
I00
sg19
g485
ssS'ups'
p648
(dp649
g3
g4
((lp650
S'upo'
p651
aS'uns'
p652
aS'uts'
p653
aS'ops'
p654
atp655
Rp656
sg18
I00
sg19
g648
ssg576
(dp657
g3
g4
((lp658
g220
aS'pud'
p659
ag74
aS'pug'
p660
aS'pub'
p661
ag573
aS'pol'
p662
ag604
aS'pal'
p663
ag138
aS'pus'
p664
atp665
Rp666
sg18
I00
sg19
g576
ssS'cap'
p667
(dp668
g3
g4
((lp669
S'tap'
p670
aS'rap'
p671
aS'sap'
p672
aS'zap'
p673
ag68
aS'cup'
p674
aS'yap'
p675
aS'nap'
p676
ag591
aS'wap'
p677
aS'map'
p678
aS'gap'
p679
ag641
aS'lap'
p680
aS'cop'
p681
ag345
ag365
aS'caw'
p682
ag400
ag409
aS'cam'
p683
aS'cab'
p684
ag466
atp685
Rp686
sg18
I00
sg19
g667
ssS'wab'
p687
(dp688
g3
g4
((lp689
S'nab'
p690
aS'kab'
p691
ag340
ag563
ag413
ag437
aS'sab'
p692
aS'wae'
p693
ag456
ag380
aS'lab'
p694
ag358
aS'web'
p695
aS'tab'
p696
ag325
aS'waw'
p697
ag684
ag393
aS'jab'
p698
aS'gab'
p699
ag677
atp700
Rp701
sg18
I00
sg19
g687
ssg211
(dp702
g3
g4
((lp703
g219
ag216
ag222
aS'tun'
p704
ag212
ag215
aS'tea'
p705
ag221
aS'ted'
p706
ag255
ag243
ag34
aS'ton'
p707
ag499
ag223
ag213
ag411
ag217
ag42
atp708
Rp709
sg18
I00
sg19
g211
ssg682
(dp710
g3
g4
((lp711
g345
aS'law'
p712
aS'maw'
p713
ag166
ag26
ag365
aS'yaw'
p714
ag667
aS'taw'
p715
ag400
ag167
aS'daw'
p716
ag409
ag683
aS'jaw'
p717
ag697
ag684
aS'haw'
p718
aS'saw'
p719
aS'vaw'
p720
ag466
atp721
Rp722
sg18
I00
sg19
g682
ssS'ods'
p723
(dp724
g3
g4
((lp725
S'ads'
p726
ag654
aS'oes'
p727
aS'ids'
p728
ag55
aS'oms'
p729
aS'ons'
p730
aS'odd'
p731
ag62
aS'ohs'
p732
atp733
Rp734
sg18
I00
sg19
g723
ssg706
(dp735
g3
g4
((lp736
g455
aS'led'
p737
aS'zed'
p738
ag211
aS'wed'
p739
ag705
ag255
aS'bed'
p740
ag243
ag454
aS'tod'
p741
aS'ged'
p742
ag37
ag427
ag42
atp743
Rp744
sg18
I00
sg19
g706
ssg255
(dp745
g3
g4
((lp746
g211
ag253
ag705
ag706
ag243
aS'tae'
p747
ag257
ag42
ag249
ag251
ag254
ag192
ag259
ag528
ag104
ag248
ag250
aS'tye'
p748
ag258
ag36
ag256
aS'the'
p749
ag118
ag260
atp750
Rp751
sg18
I00
sg19
g255
ssS'tug'
p752
(dp753
g3
g4
((lp754
S'tux'
p755
ag239
aS'hug'
p756
aS'jug'
p757
ag446
aS'tup'
p758
aS'tui'
p759
ag660
ag599
aS'rug'
p760
aS'tog'
p761
ag541
aS'mug'
p762
ag447
ag704
aS'lug'
p763
aS'tub'
p764
ag243
aS'bug'
p765
atp766
Rp767
sg18
I00
sg19
g752
ssg243
(dp768
g3
g4
((lp769
g211
ag240
ag241
ag705
ag706
ag242
ag752
ag255
ag190
ag447
ag24
ag761
ag42
atp770
Rp771
sg18
I00
sg19
g243
ssg32
(dp772
g3
g4
((lp773
g228
aS'dey'
p774
ag35
ag25
ag33
ag20
ag23
aS'des'
p775
aS'dev'
p776
ag177
aS'dei'
p777
ag30
ag716
aS'del'
p778
ag223
ag38
ag570
ag260
ag41
ag42
atp779
Rp780
sg18
I00
sg19
g32
ssg731
(dp781
g3
g4
((lp782
S'add'
p783
ag723
aS'old'
p784
ag62
aS'oud'
p785
atp786
Rp787
sg18
I00
sg19
g731
ssg62
(dp788
g3
g4
((lp789
g723
ag49
ag51
ag52
ag54
ag56
ag50
ag58
ag45
ag731
atp790
Rp791
sg18
I00
sg19
g62
ssg42
(dp792
g3
g4
((lp793
g23
ag715
ag25
ag211
ag165
ag705
ag20
ag706
ag255
ag32
ag33
ag30
ag35
ag38
ag243
ag41
atp794
Rp795
sg18
I00
sg19
g42
ssg123
(dp796
g3
g4
((lp797
g124
ag125
ag126
ag127
ag11
aS'aby'
p798
aS'abo'
p799
ag129
ag128
atp800
Rp801
sg18
I00
sg19
g123
ssS'sue'
p802
(dp803
g3
g4
((lp804
S'hue'
p805
aS'sub'
p806
aS'sun'
p807
aS'sum'
p808
ag527
aS'sae'
p809
ag117
ag257
aS'cue'
p810
aS'she'
p811
aS'sup'
p812
aS'kue'
p813
atp814
Rp815
sg18
I00
sg19
g802
ssg806
(dp816
g3
g4
((lp817
g802
ag288
aS'hub'
p818
ag290
ag692
ag565
ag812
ag661
ag564
aS'fub'
p819
aS'cub'
p820
ag807
aS'bub'
p821
ag764
aS'nub'
p822
ag808
atp823
Rp824
sg18
I00
sg19
g806
ssg12
(dp825
g3
g4
((lp826
S'til'
p827
ag1
aS'oil'
p828
aS'mil'
p829
aS'nil'
p830
ag7
aS'ais'
p831
aS'air'
p832
ag481
ag506
aS'fil'
p833
ag144
ag518
ag13
atp834
Rp835
sg18
I00
sg19
g12
ssg543
(dp836
g3
g4
((lp837
g537
ag538
ag636
ag433
ag478
ag545
ag546
ag542
ag440
ag539
ag544
atp838
Rp839
sg18
I00
sg19
g543
ssg115
(dp840
g3
g4
((lp841
g107
ag108
ag109
ag101
ag387
ag188
ag114
aS'wot'
p842
aS'tot'
p843
aS'hot'
p844
aS'lot'
p845
ag279
aS'pot'
p846
aS'jot'
p847
aS'mot'
p848
aS'oot'
p849
aS'not'
p850
ag605
aS'cot'
p851
aS'bot'
p852
ag620
aS'sot'
p853
atp854
Rp855
sg18
I00
sg19
g115
ssg719
(dp856
g3
g4
((lp857
g23
ag715
aS'sal'
p858
aS'sac'
p859
ag692
ag434
ag809
ag453
ag167
ag334
ag321
ag174
ag672
aS'sau'
p860
ag388
ag26
ag717
ag714
ag697
ag720
ag718
ag713
ag716
ag712
ag682
atp861
Rp862
sg18
I00
sg19
g719
ssg254
(dp863
g3
g4
((lp864
g248
ag249
ag250
ag251
aS'nae'
p865
ag36
ag253
aS'neb'
p866
ag255
ag256
ag257
ag192
ag258
ag259
ag38
ag196
ag260
ag118
atp867
Rp868
sg18
I00
sg19
g254
ssg866
(dp869
g3
g4
((lp870
g690
ag695
ag568
ag254
ag291
ag295
ag38
ag570
ag822
ag196
atp871
Rp872
sg18
I00
sg19
g866
ssg799
(dp873
g3
g4
((lp874
S'ago'
p875
ag123
aS'azo'
p876
aS'avo'
p877
ag798
aS'ado'
p878
atp879
Rp880
sg18
I00
sg19
g799
ssg290
(dp881
g3
g4
((lp882
S'run'
p883
ag806
ag818
aS'rum'
p884
ag298
ag107
ag760
ag661
ag117
ag821
ag819
ag820
ag295
ag764
ag822
ag565
ag605
atp885
Rp886
sg18
I00
sg19
g290
ssg812
(dp887
g3
g4
((lp888
g802
ag640
ag806
ag674
ag758
ag807
ag808
aS'sop'
p889
ag588
aS'yup'
p890
ag639
ag672
ag74
atp891
Rp892
sg18
I00
sg19
g812
ssg798
(dp893
g3
g4
((lp894
g123
aS'any'
p895
ag799
atp896
Rp897
sg18
I00
sg19
g798
ssg813
(dp898
g3
g4
((lp899
g805
ag802
aS'kae'
p900
ag527
ag117
ag810
atp901
Rp902
sg18
I00
sg19
g813
ssg409
(dp903
g3
g4
((lp904
g415
ag345
ag406
ag413
ag408
ag365
ag667
ag682
ag400
ag407
ag322
ag683
ag410
ag684
ag411
aS'con'
p905
ag218
ag466
atp906
Rp907
sg18
I00
sg19
g409
ssS'lea'
p908
(dp909
g3
g4
((lp910
g737
ag250
ag240
aS'yea'
p911
aS'lei'
p912
aS'lek'
p913
aS'kea'
p914
ag193
aS'leu'
p915
aS'lev'
p916
ag705
ag233
aS'ley'
p917
ag40
aS'sea'
p918
atp919
Rp920
sg18
I00
sg19
g908
ssg737
(dp921
g3
g4
((lp922
g511
ag908
ag455
ag739
ag250
ag738
ag240
ag459
ag912
ag913
ag706
ag740
ag37
ag193
ag915
ag916
ag742
ag233
ag917
ag427
atp923
Rp924
sg18
I00
sg19
g737
ssg683
(dp925
g3
g4
((lp926
S'tam'
p927
aS'lam'
p928
ag345
aS'ram'
p929
aS'ham'
p930
ag365
ag667
ag682
ag400
aS'yam'
p931
aS'gam'
p932
aS'jam'
p933
aS'cwm'
p934
ag409
ag483
ag684
aS'cum'
p935
aS'pam'
p936
ag466
atp937
Rp938
sg18
I00
sg19
g683
ssg240
(dp939
g3
g4
((lp940
g908
ag913
ag737
ag250
ag241
ag912
ag443
ag242
ag243
ag190
ag193
ag915
ag916
ag763
ag233
ag917
ag24
aS'log'
p941
atp942
Rp943
sg18
I00
sg19
g240
ssS'mem'
p944
(dp945
g3
g4
((lp946
g473
aS'mel'
p947
ag221
ag186
ag30
aS'mom'
p948
ag425
aS'mum'
p949
aS'hem'
p950
aS'gem'
p951
atp952
Rp953
sg18
I00
sg19
g944
ssg912
(dp954
g3
g4
((lp955
g908
ag737
ag250
ag240
ag913
ag777
ag423
ag193
ag915
ag916
ag233
ag917
aS'sei'
p956
atp957
Rp958
sg18
I00
sg19
g912
ssg913
(dp959
g3
g4
((lp960
g908
ag737
ag250
ag240
ag912
ag193
ag915
ag916
ag233
ag917
atp961
Rp962
sg18
I00
sg19
g913
ssg186
(dp963
g3
g4
((lp964
g183
ag596
ag180
ag184
ag395
ag185
ag187
ag944
ag947
ag221
ag30
ag188
ag848
ag27
ag191
ag193
ag195
ag196
ag197
ag198
atp965
Rp966
sg18
I00
sg19
g186
ssg30
(dp967
g3
g4
((lp968
g23
ag35
ag25
ag713
ag33
ag944
ag947
ag221
ag168
ag32
ag186
ag38
ag20
ag41
ag42
atp969
Rp970
sg18
I00
sg19
g30
ssg193
(dp971
g3
g4
((lp972
g184
ag398
ag197
ag183
ag180
ag185
ag27
ag187
ag188
ag615
ag191
ag845
ag195
ag196
ag908
ag737
ag250
ag240
ag912
ag913
ag186
ag915
ag916
ag233
ag917
ag198
atp973
Rp974
sg18
I00
sg19
g193
ssg915
(dp975
g3
g4
((lp976
g908
ag737
ag250
ag240
ag912
ag913
aS'jeu'
p977
aS'feu'
p978
ag193
ag916
ag233
ag917
atp979
Rp980
sg18
I00
sg19
g915
ssg916
(dp981
g3
g4
((lp982
g908
ag737
ag250
ag240
ag912
ag913
ag422
ag776
ag193
ag915
ag233
ag917
atp983
Rp984
sg18
I00
sg19
g916
ssg233
(dp985
g3
g4
((lp986
g228
ag908
ag230
ag737
ag250
ag240
aS'lux'
p987
ag912
ag913
ag229
ag189
ag231
ag193
ag915
ag916
ag232
ag326
ag917
aS'lox'
p988
atp989
Rp990
sg18
I00
sg19
g233
ssg917
(dp991
g3
g4
((lp992
S'key'
p993
ag908
ag737
ag250
ag240
ag912
ag343
ag913
aS'hey'
p994
ag774
aS'bey'
p995
ag193
ag915
ag916
ag233
ag272
ag309
atp996
Rp997
sg18
I00
sg19
g917
ssg570
(dp998
g3
g4
((lp999
g228
ag774
ag563
ag695
ag565
ag775
ag866
ag776
ag32
ag777
ag778
ag479
ag223
ag295
ag260
atp1000
Rp1001
sg18
I00
sg19
g570
ssS'box'
p1002
(dp1003
g3
g4
((lp1004
g266
ag318
ag234
aS'pox'
p1005
aS'bop'
p1006
aS'cox'
p1007
aS'bos'
p1008
ag852
ag170
ag276
aS'boo'
p1009
aS'boa'
p1010
ag297
aS'bod'
p1011
ag988
aS'sox'
p1012
aS'bog'
p1013
atp1014
Rp1015
sg18
I00
sg19
g1002
ssg266
(dp1016
g3
g4
((lp1017
g1002
ag626
ag1006
ag277
ag1008
ag852
ag274
ag170
ag270
ag995
ag263
ag281
ag268
ag1009
ag278
ag1010
ag297
ag346
ag1011
ag1013
atp1018
Rp1019
sg18
I00
sg19
g266
ssg1006
(dp1020
g3
g4
((lp1021
g1002
ag266
aS'mop'
p1022
aS'fop'
p1023
aS'wop'
p1024
ag681
aS'top'
p1025
ag1008
ag852
aS'kop'
p1026
ag72
ag170
ag889
aS'lop'
p1027
ag589
ag1009
ag1010
ag297
ag1011
ag1013
atp1028
Rp1029
sg18
I00
sg19
g1006
ssg554
(dp1030
g3
g4
((lp1031
g552
ag553
ag549
ag555
ag57
ag58
aS'uke'
p1032
atp1033
Rp1034
sg18
I00
sg19
g554
ssg1008
(dp1035
g3
g4
((lp1036
g1002
ag266
aS'cos'
p1037
ag370
ag1006
aS'bus'
p1038
aS'kos'
p1039
ag852
aS'bys'
p1040
aS'wos'
p1041
ag170
aS'sos'
p1042
aS'dos'
p1043
ag1009
ag1010
ag297
aS'nos'
p1044
ag1011
aS'bis'
p1045
ag1013
atp1046
Rp1047
sg18
I00
sg19
g1008
ssg852
(dp1048
g3
g4
((lp1049
g846
ag853
ag115
ag842
ag843
ag844
ag845
ag279
ag847
ag600
ag848
ag849
ag850
ag619
ag1002
ag266
ag399
ag851
ag1006
ag1008
ag170
ag198
ag1009
ag1010
ag297
ag1011
ag620
ag1013
atp1050
Rp1051
sg18
I00
sg19
g852
ssg170
(dp1052
g3
g4
((lp1053
g28
ag172
ag174
ag114
ag164
ag165
ag171
ag173
ag175
ag169
ag168
ag176
ag1002
ag266
ag166
ag1006
ag1008
ag852
ag1009
ag1010
ag297
ag1011
ag177
ag1013
atp1054
Rp1055
sg18
I00
sg19
g170
ssg1009
(dp1056
g3
g4
((lp1057
g1002
aS'bio'
p1058
ag267
aS'noo'
p1059
ag266
ag1006
ag1008
ag852
aS'loo'
p1060
ag170
aS'woo'
p1061
aS'moo'
p1062
aS'too'
p1063
ag1010
ag297
aS'zoo'
p1064
ag1011
aS'coo'
p1065
ag1013
atp1066
Rp1067
sg18
I00
sg19
g1009
ssg1010
(dp1068
g3
g4
((lp1069
g1002
ag266
ag1008
aS'zoa'
p1070
ag1006
ag273
aS'baa'
p1071
ag852
ag170
aS'koa'
p1072
ag1009
ag297
ag1011
aS'moa'
p1073
aS'bra'
p1074
ag1013
atp1075
Rp1076
sg18
I00
sg19
g1010
ssg297
(dp1077
g3
g4
((lp1078
g288
ag107
ag287
ag289
ag275
ag294
ag566
ag291
ag292
ag821
ag296
ag1002
ag266
ag1006
ag1008
ag852
ag170
ag293
ag1009
ag1010
ag1011
ag1013
atp1079
Rp1080
sg18
I00
sg19
g297
ssg1011
(dp1081
g3
g4
((lp1082
S'sod'
p1083
ag109
aS'pod'
p1084
aS'hod'
p1085
ag271
aS'yod'
p1086
ag741
aS'nod'
p1087
ag513
aS'bud'
p1088
aS'mod'
p1089
ag1002
ag266
ag1006
ag1008
ag852
ag740
ag170
ag465
aS'cod'
p1090
ag1009
ag1010
ag297
ag1013
atp1091
Rp1092
sg18
I00
sg19
g1011
ssg1013
(dp1093
g3
g4
((lp1094
g242
aS'hog'
p1095
ag941
ag439
ag761
ag539
aS'nog'
p1096
aS'jog'
p1097
aS'mog'
p1098
ag765
ag1002
ag266
ag1006
ag1008
ag852
ag540
ag170
ag436
aS'cog'
p1099
ag1009
ag1010
ag297
ag1011
atp1100
Rp1101
sg18
I00
sg19
g1013
ssg537
(dp1102
g3
g4
((lp1103
g538
ag437
ag539
ag478
ag545
ag546
ag542
ag543
ag617
aS'wis'
p1104
ag440
ag492
ag544
aS'wiz'
p1105
atp1106
Rp1107
sg18
I00
sg19
g537
ssS'via'
p1108
(dp1109
g3
g4
((lp1110
S'pia'
p1111
ag480
ag493
aS'vis'
p1112
ag252
atp1113
Rp1114
sg18
I00
sg19
g1108
ssS'tau'
p1115
(dp1116
g3
g4
((lp1117
g386
aS'tav'
p1118
ag715
ag670
ag352
ag371
ag327
ag454
ag747
ag447
ag860
ag696
ag927
ag411
aS'tao'
p1119
aS'eau'
p1120
aS'taj'
p1121
aS'vau'
p1122
atp1123
Rp1124
sg18
I00
sg19
g1115
ssg492
(dp1125
g3
g4
((lp1126
g537
ag214
ag493
ag494
ag617
ag1104
ag1105
ag413
ag496
ag497
ag498
ag216
ag499
aS'won'
p1127
ag500
ag414
ag501
ag502
ag503
ag504
ag472
ag506
atp1128
Rp1129
sg18
I00
sg19
g492
ssg493
(dp1130
g3
g4
((lp1131
g502
ag472
ag1108
ag406
ag214
ag252
ag496
aS'von'
p1132
ag497
ag498
ag480
ag494
ag1112
ag499
ag506
ag503
ag492
ag500
ag414
ag501
ag504
atp1133
Rp1134
sg18
I00
sg19
g493
ssg145
(dp1135
g3
g4
((lp1136
S'opt'
p1137
ag143
ag144
ag146
ag147
ag148
ag14
ag94
atp1138
Rp1139
sg18
I00
sg19
g145
ssg480
(dp1140
g3
g4
((lp1141
g469
ag1108
ag473
ag474
ag252
ag493
ag481
ag1112
ag482
ag486
ag487
atp1142
Rp1143
sg18
I00
sg19
g480
ssg604
(dp1144
g3
g4
((lp1145
g598
ag613
ag606
ag596
ag597
ag389
ag27
ag138
ag664
ag846
ag576
ag220
ag659
ag660
ag599
ag661
ag601
ag600
ag603
ag74
ag605
aS'pht'
p1146
ag580
atp1147
Rp1148
sg18
I00
sg19
g604
ssg715
(dp1149
g3
g4
((lp1150
g386
ag1115
ag1118
ag670
ag352
ag371
ag327
ag454
ag747
ag447
ag696
ag927
ag411
ag1119
ag719
ag1121
ag42
ag26
ag717
ag714
ag165
ag697
ag720
ag718
ag713
ag716
ag712
ag167
ag682
atp1151
Rp1152
sg18
I00
sg19
g715
ssg1104
(dp1153
g3
g4
((lp1154
g537
aS'sis'
p1155
aS'his'
p1156
ag492
ag831
aS'tis'
p1157
ag1112
ag617
ag1105
ag1041
aS'lis'
p1158
aS'xis'
p1159
aS'mis'
p1160
aS'pis'
p1161
ag380
ag1045
atp1162
Rp1163
sg18
I00
sg19
g1104
ssg1105
(dp1164
g3
g4
((lp1165
g537
ag492
ag617
ag1104
aS'fiz'
p1166
atp1167
Rp1168
sg18
I00
sg19
g1105
ssg1074
(dp1169
g3
g4
((lp1170
g1010
ag63
aS'era'
p1171
ag1071
atp1172
Rp1173
sg18
I00
sg19
g1074
ssg94
(dp1174
g3
g4
((lp1175
g86
ag87
ag88
ag89
ag90
ag9
ag145
ag50
ag59
ag91
ag92
ag93
atp1176
Rp1177
sg18
I00
sg19
g94
ssg455
(dp1178
g3
g4
((lp1179
g249
ag737
ag738
ag739
ag215
ag706
ag458
ag740
ag33
ag191
ag978
ag137
ag427
ag461
ag742
ag37
aS'fez'
p1180
ag329
ag309
atp1181
Rp1182
sg18
I00
sg19
g455
ssg249
(dp1183
g3
g4
((lp1184
g253
ag255
ag257
ag455
ag251
ag33
ag215
ag254
ag111
ag191
ag192
ag137
ag259
ag36
ag1180
ag118
ag248
ag250
ag978
ag531
ag258
ag256
ag309
ag260
atp1185
Rp1186
sg18
I00
sg19
g249
ssg553
(dp1187
g3
g4
((lp1188
g552
aS'lye'
p1189
ag89
ag748
ag554
ag116
ag549
ag555
ag57
aS'wye'
p1190
ag532
aS'bye'
p1191
aS'pye'
p1192
atp1193
Rp1194
sg18
I00
sg19
g553
ssg636
(dp1195
g3
g4
((lp1196
g587
ag640
ag637
ag635
ag638
ag642
ag543
ag643
ag645
ag71
ag644
ag485
ag673
atp1197
Rp1198
sg18
I00
sg19
g636
ssg215
(dp1199
g3
g4
((lp1200
g211
ag212
ag213
ag455
ag249
ag191
ag216
ag33
ag34
ag978
ag137
ag412
ag414
ag309
ag219
ag221
ag322
ag217
ag222
ag1180
ag223
ag405
atp1201
Rp1202
sg18
I00
sg19
g215
ssS'chi'
p1203
(dp1204
g3
g4
((lp1205
S'khi'
p1206
aS'phi'
p1207
aS'ghi'
p1208
atp1209
Rp1210
sg18
I00
sg19
g1203
ssg1032
(dp1211
g3
g4
((lp1212
g554
ag58
ag153
atp1213
Rp1214
sg18
I00
sg19
g1032
ssS'two'
p1215
(dp1216
g3
g4
((lp1217
S'tho'
p1218
aS'twa'
p1219
ag1119
ag1063
atp1220
Rp1221
sg18
I00
sg19
g1215
ssg33
(dp1222
g3
g4
((lp1223
g23
ag455
ag249
ag25
ag215
ag20
ag30
ag32
ag191
ag978
ag137
ag38
ag35
ag42
ag1180
ag41
ag309
atp1224
Rp1225
sg18
I00
sg19
g33
ssg191
(dp1226
g3
g4
((lp1227
g184
ag197
ag183
ag455
ag249
ag185
ag215
ag188
ag33
ag978
ag137
ag195
ag196
ag1180
ag309
ag187
ag180
ag319
ag186
ag193
ag390
ag27
ag198
atp1228
Rp1229
sg18
I00
sg19
g191
ssg978
(dp1230
g3
g4
((lp1231
S'fou'
p1232
ag455
ag249
ag977
ag215
ag306
ag33
ag191
ag137
ag915
ag1180
ag309
atp1233
Rp1234
sg18
I00
sg19
g978
ssg137
(dp1235
g3
g4
((lp1236
g354
ag455
ag249
ag361
ag136
ag355
ag33
ag215
ag31
ag135
ag315
ag191
ag978
ag1180
ag309
atp1237
Rp1238
sg18
I00
sg19
g137
ssg664
(dp1239
g3
g4
((lp1240
g576
ag220
ag375
aS'mus'
p1241
ag659
ag1038
ag660
aS'nus'
p1242
ag661
ag39
aS'jus'
p1243
ag604
ag1161
ag74
ag138
atp1244
Rp1245
sg18
I00
sg19
g664
ssg1180
(dp1246
g3
g4
((lp1247
g455
ag249
ag1166
ag215
ag33
ag191
ag978
ag137
ag309
atp1248
Rp1249
sg18
I00
sg19
g1180
ssS'ays'
p1250
(dp1251
g3
g4
((lp1252
S'ass'
p1253
aS'ars'
p1254
ag726
ag89
ag1040
ag831
ag377
atp1255
Rp1256
sg18
I00
sg19
g1250
ssg309
(dp1257
g3
g4
((lp1258
g301
ag774
ag455
ag249
ag215
ag978
ag272
ag274
ag994
ag33
ag191
ag304
ag137
ag993
ag917
ag308
ag995
ag1180
atp1259
Rp1260
sg18
I00
sg19
g309
ssg1070
(dp1261
g3
g4
((lp1262
g1072
ag1010
ag1073
ag273
ag1064
atp1263
Rp1264
sg18
I00
sg19
g1070
ssS'ooh'
p1265
(dp1266
g3
g4
((lp1267
S'foh'
p1268
aS'noh'
p1269
aS'poh'
p1270
ag849
atp1271
Rp1272
sg18
I00
sg19
g1265
ssg849
(dp1273
g3
g4
((lp1274
g1137
ag847
ag851
ag842
ag53
ag852
ag1265
ag843
ag848
ag844
ag845
ag853
aS'oft'
p1275
ag850
ag279
ag846
ag115
ag392
ag620
ag606
atp1276
Rp1277
sg18
I00
sg19
g849
ssg457
(dp1278
g3
g4
((lp1279
g452
ag453
ag454
aS'hah'
p1280
aS'haj'
p1281
ag930
ag456
aS'hae'
p1282
ag438
ag347
ag460
ag591
ag379
ag394
ag718
ag462
ag459
ag1085
ag517
ag463
ag464
ag329
ag465
ag466
atp1283
Rp1284
sg18
I00
sg19
g457
ssg228
(dp1285
g3
g4
((lp1286
g774
ag230
ag775
ag229
ag776
ag32
ag777
ag778
ag189
ag223
ag232
ag233
ag570
ag231
ag260
atp1287
Rp1288
sg18
I00
sg19
g228
ssg774
(dp1289
g3
g4
((lp1290
g228
aS'dry'
p1291
ag993
ag272
ag775
ag994
ag776
ag32
ag777
ag995
ag778
ag223
ag260
ag917
ag570
ag339
ag309
atp1292
Rp1293
sg18
I00
sg19
g774
ssg345
(dp1294
g3
g4
((lp1295
g667
ag334
ag400
ag335
ag336
ag337
ag338
ag347
ag340
ag341
ag304
ag269
ag342
ag343
ag344
ag339
ag270
ag365
aS'cry'
p1296
ag682
ag346
ag409
ag683
ag684
ag466
atp1297
Rp1298
sg18
I00
sg19
g345
ssS'err'
p1299
(dp1300
g3
g4
((lp1301
S'ers'
p1302
ag57
aS'erg'
p1303
ag1171
aS'ern'
p1304
ag362
atp1305
Rp1306
sg18
I00
sg19
g1299
ssg1302
(dp1307
g3
g4
((lp1308
g1303
ag1254
aS'ess'
p1309
ag1299
aS'efs'
p1310
ag55
ag57
aS'ens'
p1311
ag1171
aS'ems'
p1312
aS'els'
p1313
ag1304
atp1314
Rp1315
sg18
I00
sg19
g1302
ssg365
(dp1316
g3
g4
((lp1317
g345
ag353
ag364
aS'cur'
p1318
ag352
ag315
ag356
ag667
ag682
ag360
ag400
ag357
ag134
ag409
ag683
ag359
ag684
ag362
ag358
ag363
ag466
atp1319
Rp1320
sg18
I00
sg19
g365
ssg775
(dp1321
g3
g4
((lp1322
g228
ag774
aS'yes'
p1323
aS'hes'
p1324
ag727
ag421
ag776
ag32
ag777
ag778
ag223
ag1043
ag570
ag39
ag260
atp1325
Rp1326
sg18
I00
sg19
g775
ssg306
(dp1327
g3
g4
((lp1328
g301
ag1232
ag978
atp1329
Rp1330
sg18
I00
sg19
g306
ssg776
(dp1331
g3
g4
((lp1332
g228
ag774
ag916
ag775
ag422
ag32
ag777
ag778
ag223
ag570
ag260
atp1333
Rp1334
sg18
I00
sg19
g776
ssg400
(dp1335
g3
g4
((lp1336
g386
ag387
ag388
ag597
ag389
ag392
ag393
ag394
ag194
ag395
ag396
ag345
ag319
ag397
ag398
ag391
ag399
ag851
ag365
ag667
ag682
ag409
ag683
ag684
ag466
atp1337
Rp1338
sg18
I00
sg19
g400
ssg777
(dp1339
g3
g4
((lp1340
g228
ag774
aS'dui'
p1341
ag912
ag775
ag776
ag32
ag423
ag778
ag223
ag570
ag260
ag956
atp1342
Rp1343
sg18
I00
sg19
g777
ssg1303
(dp1344
g3
g4
((lp1345
g1299
aS'eng'
p1346
ag1302
ag57
ag1171
ag1304
aS'egg'
p1347
atp1348
Rp1349
sg18
I00
sg19
g1303
ssg778
(dp1350
g3
g4
((lp1351
g228
ag774
aS'dol'
p1352
aS'bel'
p1353
aS'eel'
p1354
ag947
ag775
ag776
ag32
ag777
ag223
ag570
aS'sel'
p1355
ag260
ag581
atp1356
Rp1357
sg18
I00
sg19
g778
ssg1171
(dp1358
g3
g4
((lp1359
g1299
ag1302
aS'eta'
p1360
ag57
ag1303
ag1304
ag1074
ag63
atp1361
Rp1362
sg18
I00
sg19
g1171
ssg223
(dp1363
g3
g4
((lp1364
g211
ag212
ag213
ag495
ag215
ag216
ag34
ag217
ag219
ag221
ag505
ag228
ag774
ag472
ag222
ag775
ag776
ag32
ag777
ag778
ag570
ag260
atp1365
Rp1366
sg18
I00
sg19
g223
ssS'sky'
p1367
(dp1368
g3
g4
((lp1369
S'spy'
p1370
ag305
aS'shy'
p1371
ag334
ag278
aS'ski'
p1372
aS'sty'
p1373
atp1374
Rp1375
sg18
I00
sg19
g1367
ssg684
(dp1376
g3
g4
((lp1377
g690
ag691
ag345
ag687
ag696
ag563
ag365
ag667
ag682
ag820
ag694
ag400
ag293
ag409
ag683
ag692
ag698
ag699
ag466
atp1378
Rp1379
sg18
I00
sg19
g684
ssg1304
(dp1380
g3
g4
((lp1381
g1299
ag1302
aS'urn'
p1382
aS'eon'
p1383
ag57
ag1303
ag1171
atp1384
Rp1385
sg18
I00
sg19
g1304
ssg260
(dp1386
g3
g4
((lp1387
g253
ag255
ag257
ag32
ag256
ag249
ag251
ag254
ag527
ag192
ag259
ag36
ag118
ag248
ag250
ag258
ag532
ag228
ag774
ag477
ag775
ag776
ag110
ag777
ag778
ag223
ag570
atp1388
Rp1389
sg18
I00
sg19
g260
ssg466
(dp1390
g3
g4
((lp1391
g452
ag453
ag454
ag456
ag457
aS'cud'
p1392
ag460
ag1090
ag462
ag459
ag463
ag464
ag329
ag345
ag365
ag667
ag682
ag400
ag465
ag409
ag683
ag684
atp1393
Rp1394
sg18
I00
sg19
g466
ssg386
(dp1395
g3
g4
((lp1396
g1115
ag1118
ag715
ag670
ag352
ag371
ag327
ag454
ag747
ag387
ag447
ag696
ag927
ag411
ag1119
ag1121
ag388
ag389
ag616
ag843
ag392
ag393
ag394
ag194
ag395
ag396
ag599
ag319
ag397
ag398
ag391
ag399
ag400
atp1397
Rp1398
sg18
I00
sg19
g386
ssg1370
(dp1399
g3
g4
((lp1400
g305
ag1371
ag1367
ag334
ag278
aS'spa'
p1401
ag1373
atp1402
Rp1403
sg18
I00
sg19
g1370
ssg1118
(dp1404
g3
g4
((lp1405
g386
ag1115
ag715
ag670
ag352
ag371
ag327
ag454
ag747
ag447
ag696
ag927
ag411
ag1119
aS'vav'
p1406
ag1121
atp1407
Rp1408
sg18
I00
sg19
g1118
ssS'sri'
p1409
(dp1410
g3
g4
((lp1411
g1372
ag956
atp1412
Rp1413
sg18
I00
sg19
g1409
ssg670
(dp1414
g3
g4
((lp1415
g386
ag1115
ag1118
ag715
ag696
ag352
ag371
ag327
ag454
ag747
ag447
ag671
ag927
ag411
ag672
ag1121
ag68
ag1119
ag1025
ag638
ag675
ag676
ag673
ag591
ag677
ag678
ag758
ag679
ag641
ag680
ag667
atp1416
Rp1417
sg18
I00
sg19
g670
ssg352
(dp1418
g3
g4
((lp1419
g386
ag1115
ag1118
ag715
ag670
ag371
ag327
ag454
ag747
ag447
ag696
ag927
ag411
ag1119
ag1121
ag134
aS'tor'
p1420
ag356
ag357
ag359
ag358
ag353
ag315
ag360
ag362
ag363
ag364
ag365
atp1421
Rp1422
sg18
I00
sg19
g352
ssg371
(dp1423
g3
g4
((lp1424
g386
ag1115
ag1118
ag715
ag670
ag352
ag327
ag454
ag747
ag447
ag376
ag696
ag927
ag411
ag1119
ag1121
ag375
ag1157
ag378
ag379
ag380
ag373
ag316
ag372
ag374
ag381
ag370
ag377
atp1425
Rp1426
sg18
I00
sg19
g371
ssg739
(dp1427
g3
g4
((lp1428
g695
ag455
ag737
ag738
ag251
aS'wud'
p1429
ag195
ag456
ag706
ag216
ag740
ag742
ag37
ag427
atp1430
Rp1431
sg18
I00
sg19
g739
ssg327
(dp1432
g3
g4
((lp1433
g386
ag1115
ag1118
ag715
ag670
ag324
ag352
ag371
ag454
ag747
ag447
ag696
ag927
ag411
ag1119
ag323
ag320
ag1121
ag325
ag755
ag312
ag326
ag321
atp1434
Rp1435
sg18
I00
sg19
g327
ssg454
(dp1436
g3
g4
((lp1437
g386
ag1115
ag452
ag715
ag670
ag352
ag371
ag327
ag1118
ag453
ag747
ag447
ag696
ag927
ag411
ag1119
ag1121
ag456
ag457
ag460
ag741
ag462
ag459
ag706
ag463
ag464
ag329
ag465
ag466
atp1438
Rp1439
sg18
I00
sg19
g454
ssg747
(dp1440
g3
g4
((lp1441
g386
ag1115
ag1118
ag715
ag670
ag352
ag371
ag327
ag255
ag809
ag454
ag447
ag696
ag927
ag411
ag1119
ag1121
ag865
ag693
ag1282
ag528
ag104
ag900
ag748
aS'mae'
p1442
aS'gae'
p1443
ag749
atp1444
Rp1445
sg18
I00
sg19
g747
ssg447
(dp1446
g3
g4
((lp1447
g386
ag432
ag1118
ag715
ag670
ag352
ag371
ag433
ag434
ag243
ag454
ag747
ag696
ag927
ag411
ag1119
ag1121
ag435
ag437
ag438
ag441
ag761
ag442
ag327
ag443
ag444
ag445
ag328
ag752
ag1115
ag436
atp1448
Rp1449
sg18
I00
sg19
g447
ssg195
(dp1450
g3
g4
((lp1451
g183
ag695
ag180
ag184
ag185
ag251
ag739
ag27
ag842
ag187
ag216
ag188
ag186
ag191
ag617
ag193
ag196
ag393
ag197
ag198
atp1452
Rp1453
sg18
I00
sg19
g195
ssg696
(dp1454
g3
g4
((lp1455
g386
ag1115
ag1118
ag715
ag670
ag352
ag371
ag692
ag327
ag454
ag747
ag447
ag927
ag411
ag1119
ag1121
ag690
ag687
ag698
ag691
ag563
ag694
ag764
ag699
ag684
atp1456
Rp1457
sg18
I00
sg19
g696
ssg544
(dp1458
g3
g4
((lp1459
g537
ag432
ag538
ag539
ag478
ag760
ag545
ag546
ag542
ag543
ag494
ag482
ag440
ag642
ag519
ag298
atp1460
Rp1461
sg18
I00
sg19
g544
ssg1401
(dp1462
g3
g4
((lp1463
g1370
ag918
atp1464
Rp1465
sg18
I00
sg19
g1401
ssg947
(dp1466
g3
g4
((lp1467
g829
ag1353
ag186
ag944
ag221
ag1354
ag30
ag778
aS'mol'
p1468
ag1355
ag581
atp1469
Rp1470
sg18
I00
sg19
g947
ssg1119
(dp1471
g3
g4
((lp1472
g386
ag1115
ag1118
ag715
ag670
ag352
ag371
ag327
ag1215
ag454
ag747
ag447
ag1218
ag696
ag927
ag411
ag1121
ag1063
atp1473
Rp1474
sg18
I00
sg19
g1119
ssg411
(dp1475
g3
g4
((lp1476
g386
ag1115
ag1118
ag715
ag670
ag352
ag371
ag408
ag327
ag454
ag747
ag447
ag696
ag927
ag1119
ag1121
ag413
ag406
ag211
ag499
ag707
ag218
ag407
ag322
ag704
ag415
ag409
ag410
atp1477
Rp1478
sg18
I00
sg19
g411
ssg1121
(dp1479
g3
g4
((lp1480
g386
ag1115
ag1281
ag715
ag670
ag352
ag371
ag327
aS'raj'
p1481
ag1118
ag454
ag747
ag447
ag696
ag927
ag411
ag1119
atp1482
Rp1483
sg18
I00
sg19
g1121
ssg1155
(dp1484
g3
g4
((lp1485
S'sir'
p1486
ag1156
ag1157
ag612
aS'six'
p1487
ag1112
ag831
ag1045
aS'sic'
p1488
ag564
ag1042
ag640
ag1104
ag1158
ag1159
ag1160
ag1161
ag501
ag487
atp1489
Rp1490
sg18
I00
sg19
g1155
ssg1095
(dp1491
g3
g4
((lp1492
g1085
ag105
ag289
ag589
ag1096
ag540
ag438
ag171
ag844
ag439
ag941
ag1099
ag1097
ag756
ag281
ag1098
ag761
ag1013
atp1493
Rp1494
sg18
I00
sg19
g1095
ssg1085
(dp1495
g3
g4
((lp1496
g1095
ag105
ag289
ag1083
ag1087
ag271
ag1086
ag457
ag109
ag171
ag844
ag517
ag1090
ag589
ag1084
ag1089
ag1011
ag741
ag281
atp1497
Rp1498
sg18
I00
sg19
g1085
ssg105
(dp1499
g3
g4
((lp1500
g1095
ag1085
ag289
ag171
ag112
ag101
ag1282
ag110
ag106
ag111
ag844
ag530
ag589
ag113
ag104
ag805
ag281
atp1501
Rp1502
sg18
I00
sg19
g105
ssS'end'
p1503
(dp1504
g3
g4
((lp1505
S'and'
p1506
ag1311
aS'eld'
p1507
ag1346
atp1508
Rp1509
sg18
I00
sg19
g1503
ssg1346
(dp1510
g3
g4
((lp1511
g1303
ag1347
ag1311
ag1503
atp1512
Rp1513
sg18
I00
sg19
g1346
ssg234
(dp1514
g3
g4
((lp1515
g1002
ag106
ag1005
ag1007
ag1132
ag318
ag189
ag172
ag276
ag1012
ag988
atp1516
Rp1517
sg18
I00
sg19
g234
ssS'aff'
p1518
(dp1519
g3
g4
((lp1520
g148
aS'off'
p1521
aS'eff'
p1522
aS'arf'
p1523
atp1524
Rp1525
sg18
I00
sg19
g1518
ssg116
(dp1526
g3
g4
((lp1527
g553
ag89
ag748
ag101
aS'rya'
p1528
ag1189
ag1190
ag532
ag1191
ag1192
ag117
ag118
atp1529
Rp1530
sg18
I00
sg19
g116
ssS'ivy'
p1531
(dp1532
g3
g4
((lp1533
S'icy'
p1534
atp1535
Rp1536
sg18
I00
sg19
g1531
ssg1488
(dp1537
g3
g4
((lp1538
g1155
ag1486
ag640
ag612
ag859
aS'pic'
p1539
ag1487
ag564
aS'hic'
p1540
ag424
ag501
ag487
aS'tic'
p1541
atp1542
Rp1543
sg18
I00
sg19
g1488
ssg171
(dp1544
g3
g4
((lp1545
g28
ag172
ag174
ag114
ag1095
ag1085
ag105
ag289
ag164
ag165
ag844
ag173
ag589
ag175
ag281
ag169
ag168
ag35
ag176
ag166
ag170
ag718
ag177
atp1546
Rp1547
sg18
I00
sg19
g171
ssg844
(dp1548
g3
g4
((lp1549
g846
ag853
ag847
ag115
ag183
ag1095
ag1085
ag105
ag289
ag842
ag843
ag171
ag845
ag279
ag394
ag281
ag611
ag589
ag848
ag601
ag849
ag850
ag851
ag852
ag620
atp1550
Rp1551
sg18
I00
sg19
g844
ssg1311
(dp1552
g3
g4
((lp1553
g652
ag1503
ag1346
ag1302
ag1310
aS'ins'
p1554
ag1309
ag1312
ag730
ag1313
atp1555
Rp1556
sg18
I00
sg19
g1311
ssg589
(dp1557
g3
g4
((lp1558
g72
ag889
ag1095
ag1085
ag105
ag289
ag1025
ag1024
ag171
ag1027
ag69
ag591
ag1026
ag281
ag587
ag1022
ag588
ag1023
ag681
ag1006
ag844
ag584
atp1559
Rp1560
sg18
I00
sg19
g589
ssg148
(dp1561
g3
g4
((lp1562
g143
ag144
ag1518
aS'eft'
p1563
ag145
ag146
ag1275
ag147
ag14
atp1564
Rp1565
sg18
I00
sg19
g148
ssg501
(dp1566
g3
g4
((lp1567
g498
ag214
ag492
ag493
aS'son'
p1568
ag494
ag213
ag1155
ag1486
ag640
ag612
ag496
ag807
ag497
ag1487
ag1488
ag564
ag499
ag500
ag414
ag487
ag502
aS'syn'
p1569
ag503
ag504
ag472
ag506
atp1570
Rp1571
sg18
I00
sg19
g501
ssg487
(dp1572
g3
g4
((lp1573
g1155
ag469
ag640
ag473
ag612
ag564
ag1487
ag808
ag474
ag501
ag1488
ag481
ag482
ag1486
ag480
ag486
atp1574
Rp1575
sg18
I00
sg19
g487
ssg281
(dp1576
g3
g4
((lp1577
g266
ag1085
ag105
ag289
ag1095
ag270
ag277
ag274
ag994
ag171
ag844
ag268
ag263
ag347
ag589
ag278
atp1578
Rp1579
sg18
I00
sg19
g281
ssg1189
(dp1580
g3
g4
((lp1581
g526
ag553
ag250
ag89
ag748
ag116
ag1190
ag532
ag1191
ag1192
atp1582
Rp1583
sg18
I00
sg19
g1189
ssg928
(dp1584
g3
g4
((lp1585
g929
ag930
ag459
ag483
ag443
ag694
aS'lac'
p1586
ag931
ag932
ag933
ag326
ag343
ag683
ag927
ag398
ag936
ag712
ag680
aS'lum'
p1587
ag363
ag381
atp1588
Rp1589
sg18
I00
sg19
g928
ssg373
(dp1590
g3
g4
((lp1591
g371
ag376
ag415
ag375
ag1241
ag378
ag1160
ag379
ag380
ag678
ag353
ag395
ag713
ag342
ag316
ag372
ag374
aS'mac'
p1592
ag1442
ag463
ag444
ag381
ag370
ag377
atp1593
Rp1594
sg18
I00
sg19
g373
ssg353
(dp1595
g3
g4
((lp1596
g352
ag134
ag356
ag357
ag342
ag359
aS'mir'
p1597
ag358
ag678
ag373
ag395
ag713
ag315
aS'mor'
p1598
ag360
ag1592
ag1442
ag463
ag444
ag362
ag363
ag415
ag364
ag365
atp1599
Rp1600
sg18
I00
sg19
g353
ssg546
(dp1601
g3
g4
((lp1602
g544
ag538
aS'pix'
p1603
ag1539
ag214
ag539
ag537
ag478
ag1161
ag525
ag545
ag542
ag543
ag440
ag1111
ag71
ag660
ag24
ag613
aS'piu'
p1604
atp1605
Rp1606
sg18
I00
sg19
g546
ssg395
(dp1607
g3
g4
((lp1608
g386
ag387
ag388
ag596
ag389
ag392
ag393
ag394
ag194
ag678
ag373
ag353
ag713
ag342
ag396
ag319
ag848
ag186
ag1592
ag1442
ag463
ag444
ag397
ag398
ag391
ag415
ag399
ag400
atp1609
Rp1610
sg18
I00
sg19
g395
ssg713
(dp1611
g3
g4
((lp1612
g715
ag167
ag719
ag26
ag717
ag714
ag697
ag720
ag718
ag678
ag373
ag353
ag395
ag342
ag168
ag30
ag716
ag1442
ag463
ag444
ag712
ag415
ag682
ag1592
atp1613
Rp1614
sg18
I00
sg19
g713
ssg1486
(dp1615
g3
g4
((lp1616
g354
ag1155
ag640
ag135
ag612
ag1487
ag832
ag1488
ag564
ag1597
ag501
ag487
atp1617
Rp1618
sg18
I00
sg19
g1486
ssg459
(dp1619
g3
g4
((lp1620
g452
ag453
ag454
ag511
ag464
ag456
ag457
ag460
ag329
ag462
ag928
ag737
ag443
ag694
ag1586
ag326
ag463
ag398
ag712
ag680
ag363
ag381
ag465
ag466
ag343
atp1621
Rp1622
sg18
I00
sg19
g459
ssg443
(dp1623
g3
g4
((lp1624
g432
ag433
ag434
ag445
ag447
ag941
ag437
ag438
ag763
ag441
ag381
ag928
ag442
ag240
ag459
ag694
ag1586
ag326
ag343
ag444
ag398
ag712
ag680
ag328
ag363
ag435
ag436
atp1625
Rp1626
sg18
I00
sg19
g443
ssg694
(dp1627
g3
g4
((lp1628
g690
ag928
ag692
ag696
ag287
ag562
ag687
ag698
ag691
ag563
ag459
ag443
ag1586
ag326
ag343
ag398
ag712
ag680
ag699
ag363
ag381
ag684
atp1629
Rp1630
sg18
I00
sg19
g694
ssg1586
(dp1631
g3
g4
((lp1632
g928
ag459
ag443
ag694
ag859
ag1592
aS'pac'
p1633
ag326
ag343
ag398
ag712
ag680
ag363
ag381
atp1634
Rp1635
sg18
I00
sg19
g1586
ssg1592
(dp1636
g3
g4
((lp1637
g678
ag373
ag353
ag395
ag713
ag342
ag1586
ag859
ag1633
ag1442
ag463
ag444
ag415
atp1638
Rp1639
sg18
I00
sg19
g1592
ssS'ova'
p1640
(dp1641
g3
g4
((lp1642
S'oka'
p1643
aS'oca'
p1644
ag129
ag63
atp1645
Rp1646
sg18
I00
sg19
g1640
ssg326
(dp1647
g3
g4
((lp1648
g928
ag312
ag320
ag323
ag459
ag443
ag327
ag694
ag1586
ag325
ag233
ag321
ag343
ag324
ag987
ag398
ag988
ag712
ag680
ag363
ag381
atp1649
Rp1650
sg18
I00
sg19
g326
ssg343
(dp1651
g3
g4
((lp1652
g334
ag335
ag336
ag337
ag338
ag459
ag340
ag341
ag928
ag304
ag269
ag342
ag443
ag694
ag1586
ag326
ag398
ag917
ag344
ag712
ag680
ag339
ag363
ag381
ag345
ag346
ag347
atp1653
Rp1654
sg18
I00
sg19
g343
ssg444
(dp1655
g3
g4
((lp1656
g432
ag433
ag434
ag353
ag435
ag437
ag545
ag438
ag762
ag441
ag678
ag373
ag442
ag395
ag713
ag342
ag443
ag1592
ag1442
ag463
ag445
ag1098
ag328
ag415
ag436
ag447
atp1657
Rp1658
sg18
I00
sg19
g444
ssg398
(dp1659
g3
g4
((lp1660
g386
ag387
ag388
ag389
ag319
ag615
ag392
ag845
ag393
ag394
ag194
ag928
ag443
ag395
ag459
ag396
ag694
ag1586
ag326
ag343
ag397
ag712
ag680
ag391
ag363
ag381
ag399
ag400
ag193
atp1661
Rp1662
sg18
I00
sg19
g398
ssg289
(dp1663
g3
g4
((lp1664
g287
ag1095
ag1085
ag105
ag589
ag818
ag107
ag292
ag291
ag275
ag171
ag844
ag293
ag294
ag288
ag296
ag297
ag281
atp1665
Rp1666
sg18
I00
sg19
g289
ssg712
(dp1667
g3
g4
((lp1668
g715
ag167
ag719
ag26
ag717
ag714
ag173
ag697
ag720
ag718
ag928
ag713
ag459
ag443
ag694
ag1586
ag716
ag326
ag343
ag398
ag680
ag363
ag381
ag682
atp1669
Rp1670
sg18
I00
sg19
g712
ssg680
(dp1671
g3
g4
((lp1672
g670
ag678
ag675
ag671
ag672
ag673
ag68
ag1027
ag676
ag643
ag591
ag677
ag928
ag459
ag443
ag694
ag1586
ag641
ag343
ag398
ag712
ag363
ag381
ag667
ag679
ag326
atp1673
Rp1674
sg18
I00
sg19
g680
ssg363
(dp1675
g3
g4
((lp1676
g352
ag134
ag362
ag356
ag357
ag459
ag359
ag358
ag928
ag353
ag315
ag443
ag360
ag694
ag1586
ag326
ag343
ag398
ag712
ag680
ag381
ag364
ag365
atp1677
Rp1678
sg18
I00
sg19
g363
ssg381
(dp1679
g3
g4
((lp1680
g371
ag376
ag375
ag1158
ag378
ag379
ag380
ag928
ag373
ag459
ag316
ag443
ag372
ag694
ag1586
ag374
ag326
ag343
ag398
ag712
ag680
ag363
ag370
ag377
atp1681
Rp1682
sg18
I00
sg19
g381
ssg612
(dp1683
g3
g4
((lp1684
g184
ag617
ag853
ag613
ag388
ag1155
ag1486
ag602
ag390
ag616
ag1487
ag1488
ag564
ag501
ag487
ag615
ag611
ag614
ag640
ag619
ag618
ag144
ag484
ag621
atp1685
Rp1686
sg18
I00
sg19
g612
ssS'ego'
p1687
(dp1688
g3
g4
((lp1689
g875
ag1347
atp1690
Rp1691
sg18
I00
sg19
g1687
ssg1347
(dp1692
g3
g4
((lp1693
g1303
ag1687
ag1346
atp1694
Rp1695
sg18
I00
sg19
g1347
ssg1208
(dp1696
g3
g4
((lp1697
g1203
ag1207
ag1206
atp1698
Rp1699
sg18
I00
sg19
g1208
ssg1487
(dp1700
g3
g4
((lp1701
g1155
ag1486
ag1603
ag640
ag612
ag317
ag231
ag1488
ag564
aS'nix'
p1702
ag321
ag1012
aS'mix'
p1703
ag501
ag487
atp1704
Rp1705
sg18
I00
sg19
g1487
ssg738
(dp1706
g3
g4
((lp1707
g455
ag737
ag739
ag253
ag706
ag740
ag742
ag37
ag427
atp1708
Rp1709
sg18
I00
sg19
g738
ssg253
(dp1710
g3
g4
((lp1711
g248
ag249
ag251
ag738
ag254
ag255
ag256
ag250
ag257
ag192
ag258
ag259
ag36
ag260
ag118
atp1712
Rp1713
sg18
I00
sg19
g253
ssS'own'
p1714
(dp1715
g3
g4
((lp1716
g51
aS'awn'
p1717
aS'owl'
p1718
atp1719
Rp1720
sg18
I00
sg19
g1714
ssg1429
(dp1721
g3
g4
((lp1722
g739
ag659
ag456
ag514
ag785
aS'mud'
p1723
ag458
ag1392
ag1088
atp1724
Rp1725
sg18
I00
sg19
g1429
ssg1528
(dp1726
g3
g4
((lp1727
S'pya'
p1728
ag116
atp1729
Rp1730
sg18
I00
sg19
g1528
ssS'its'
p1731
(dp1732
g3
g4
((lp1733
g653
ag1554
ag728
aS'ifs'
p1734
atp1735
Rp1736
sg18
I00
sg19
g1731
ssg354
(dp1737
g3
g4
((lp1738
g1486
ag361
ag355
ag390
ag315
ag317
ag832
ag567
ag1166
ag137
ag440
ag461
ag531
ag1597
ag414
ag833
atp1739
Rp1740
sg18
I00
sg19
g354
ssg538
(dp1741
g3
g4
((lp1742
g544
ag537
ag561
ag757
ag496
ag539
ag478
ag545
ag546
ag542
ag543
ag440
ag1097
ag441
atp1743
Rp1744
sg18
I00
sg19
g538
ssg561
(dp1745
g3
g4
((lp1746
g538
ag562
ag564
ag496
ag298
ag560
ag566
ag479
ag567
ag568
ag292
ag569
ag698
atp1747
Rp1748
sg18
I00
sg19
g561
ssS'tsk'
p1749
(dp1750
g3
g4
((lp1751
g204
atp1752
Rp1753
sg18
I00
sg19
g1749
ssg390
(dp1754
g3
g4
((lp1755
g617
ag621
ag613
ag354
ag567
ag602
ag612
ag1166
ag317
ag615
ag191
ag440
ag461
ag531
ag414
ag833
ag611
ag319
ag614
ag619
ag618
ag144
ag616
ag484
atp1756
Rp1757
sg18
I00
sg19
g390
ssg564
(dp1758
g3
g4
((lp1759
g1155
ag1488
ag640
ag561
ag612
ag562
ag1486
ag568
ag692
ag1487
ag560
ag566
ag479
ag567
ag288
ag569
ag298
ag501
ag487
ag806
atp1760
Rp1761
sg18
I00
sg19
g564
ssg1166
(dp1762
g3
g4
((lp1763
g354
ag390
ag1180
ag317
ag567
ag440
ag461
ag531
ag414
ag1105
ag833
atp1764
Rp1765
sg18
I00
sg19
g1166
ssg317
(dp1766
g3
g4
((lp1767
g354
ag1603
ag312
ag390
ag1166
ag1487
ag318
ag567
ag1703
ag1702
ag440
ag461
ag531
ag414
ag833
atp1768
Rp1769
sg18
I00
sg19
g317
ssg1040
(dp1770
g3
g4
((lp1771
g370
ag1038
ag1008
ag1191
ag1045
ag1250
atp1772
Rp1773
sg18
I00
sg19
g1040
ssg567
(dp1774
g3
g4
((lp1775
g354
ag562
ag561
ag294
ag390
ag564
ag1166
ag298
ag317
ag560
ag566
ag479
ag568
ag819
ag440
ag461
ag531
ag414
ag833
ag569
atp1776
Rp1777
sg18
I00
sg19
g567
ssS'imp'
p1778
(dp1779
g3
g4
((lp1780
g159
aS'ump'
p1781
atp1782
Rp1783
sg18
I00
sg19
g1778
ssg1633
(dp1784
g3
g4
((lp1785
g68
ag134
ag375
ag389
ag26
ag320
ag338
ag1539
ag1586
ag859
ag1592
ag460
aS'pah'
p1786
ag663
ag936
ag218
atp1787
Rp1788
sg18
I00
sg19
g1633
ssg440
(dp1789
g3
g4
((lp1790
g354
ag542
ag390
ag538
ag1166
ag539
ag317
ag478
ag543
ag545
ag546
ag567
ag446
ag439
ag537
ag461
ag531
ag544
ag414
ag328
ag833
atp1791
Rp1792
sg18
I00
sg19
g440
ssg461
(dp1793
g3
g4
((lp1794
g519
ag354
ag512
ag455
ag390
ag1166
ag317
ag515
ag567
ag516
ag440
ag531
ag414
ag833
ag511
ag513
ag517
ag329
ag520
ag476
ag458
ag518
atp1795
Rp1796
sg18
I00
sg19
g461
ssg531
(dp1797
g3
g4
((lp1798
g354
ag526
ag249
ag390
ag252
ag1166
ag477
ag317
ag525
ag567
ag111
ag529
ag440
ag461
ag528
ag414
ag833
ag530
atp1799
Rp1800
sg18
I00
sg19
g531
ssg1191
(dp1801
g3
g4
((lp1802
g553
ag89
ag748
ag116
ag1040
ag256
ag1189
ag1190
ag532
ag1192
atp1803
Rp1804
sg18
I00
sg19
g1191
ssg414
(dp1805
g3
g4
((lp1806
g214
ag492
ag493
ag494
ag354
ag390
ag496
ag317
ag498
ag567
ag499
ag440
ag461
ag531
ag500
ag412
ag501
ag833
ag502
ag1166
ag322
ag503
ag504
ag472
ag215
ag506
ag405
ag497
atp1807
Rp1808
sg18
I00
sg19
g414
ssg833
(dp1809
g3
g4
((lp1810
g354
ag827
ag828
ag829
ag390
ag1166
ag317
ag567
ag12
ag830
ag440
ag461
ag531
ag414
atp1811
Rp1812
sg18
I00
sg19
g833
ssS'wry'
p1813
(dp1814
g3
g4
((lp1815
g1291
ag1296
aS'try'
p1816
ag340
ag308
aS'pry'
p1817
aS'why'
p1818
atp1819
Rp1820
sg18
I00
sg19
g1813
ssg462
(dp1821
g3
g4
((lp1822
g452
ag457
ag453
ag454
ag456
ag514
ag460
ag442
ag563
ag459
ag483
aS'dah'
p1823
aS'dak'
p1824
ag716
ag641
ag463
ag464
ag339
ag329
ag476
ag465
ag466
atp1825
Rp1826
sg18
I00
sg19
g462
ssS'nom'
p1827
(dp1828
g3
g4
((lp1829
S'yom'
p1830
ag1059
ag1269
ag474
ag1087
ag1096
ag291
aS'tom'
p1831
ag948
ag475
ag850
ag176
aS'nor'
p1832
ag1044
atp1833
Rp1834
sg18
I00
sg19
g1827
ssg248
(dp1835
g3
g4
((lp1836
g249
ag250
ag251
ag253
ag254
ag257
ag256
ag255
ag810
ag192
ag258
ag259
ag36
ag260
ag118
atp1837
Rp1838
sg18
I00
sg19
g248
ssg442
(dp1839
g3
g4
((lp1840
g432
ag433
ag434
ag447
ag541
ag435
ag437
ag438
ag441
ag339
ag462
ag563
ag483
ag443
ag1823
ag1824
ag716
ag641
ag444
ag445
ag328
ag478
ag540
ag436
atp1841
Rp1842
sg18
I00
sg19
g442
ssg1269
(dp1843
g3
g4
((lp1844
g1827
ag1059
ag1087
ag1096
ag1265
ag291
aS'nth'
p1845
ag1270
ag850
ag176
ag1268
ag1832
ag1044
atp1846
Rp1847
sg18
I00
sg19
g1269
ssg563
(dp1848
g3
g4
((lp1849
g462
ag691
ag442
ag696
ag483
ag565
ag1823
ag690
ag479
ag1824
ag687
ag716
ag641
ag694
ag699
ag692
ag684
ag570
ag698
ag339
atp1850
Rp1851
sg18
I00
sg19
g563
ssg651
(dp1852
g3
g4
((lp1853
S'udo'
p1854
ag648
atp1855
Rp1856
sg18
I00
sg19
g651
ssg1087
(dp1857
g3
g4
((lp1858
g1827
ag1085
ag1059
ag1269
ag1083
ag741
ag271
ag1096
ag109
ag1086
ag291
ag176
ag1090
ag850
ag1084
ag1044
ag1011
ag1832
ag1089
atp1859
Rp1860
sg18
I00
sg19
g1087
ssg483
(dp1861
g3
g4
((lp1862
g462
ag469
ag442
ag930
ag563
ag475
ag929
ag1823
ag933
ag1824
ag931
ag932
ag716
ag641
ag683
ag927
ag936
ag928
ag339
atp1863
Rp1864
sg18
I00
sg19
g483
ssg1096
(dp1865
g3
g4
((lp1866
g1095
ag176
ag1059
ag1269
ag941
ag1827
ag1087
ag540
ag291
ag439
ag1099
ag1097
ag850
ag435
ag1044
ag1098
ag761
ag1832
ag1013
atp1867
Rp1868
sg18
I00
sg19
g1096
ssg1823
(dp1869
g3
g4
((lp1870
g462
ag1280
ag442
ag563
ag483
aS'aah'
p1871
aS'rah'
p1872
ag1824
ag716
ag641
aS'yah'
p1873
ag1786
ag339
aS'bah'
p1874
atp1875
Rp1876
sg18
I00
sg19
g1823
ssg291
(dp1877
g3
g4
((lp1878
g288
ag1827
ag107
ag822
ag287
ag289
ag866
ag275
ag1087
ag294
ag690
ag1059
ag1269
ag568
ag1096
ag292
ag850
ag296
ag176
ag1832
ag1044
ag293
ag297
atp1879
Rp1880
sg18
I00
sg19
g291
ssg1824
(dp1881
g3
g4
((lp1882
g462
ag442
ag563
ag483
aS'oak'
p1883
ag1823
ag716
ag641
aS'yak'
p1884
ag339
atp1885
Rp1886
sg18
I00
sg19
g1824
ssg1643
(dp1887
g3
g4
((lp1888
g1644
ag1640
ag58
ag63
atp1889
Rp1890
sg18
I00
sg19
g1643
ssg716
(dp1891
g3
g4
((lp1892
g715
ag167
ag719
ag563
ag26
ag717
ag714
ag697
ag720
ag718
ag462
ag442
ag713
ag483
ag1823
ag1824
ag641
ag712
ag339
ag682
ag32
ag177
atp1893
Rp1894
sg18
I00
sg19
g716
ssg641
(dp1895
g3
g4
((lp1896
g670
ag671
ag672
ag673
ag68
ag675
ag676
ag591
ag677
ag462
ag678
ag442
ag563
ag483
ag1823
ag1824
ag639
ag716
ag679
ag680
ag339
ag667
ag485
atp1897
Rp1898
sg18
I00
sg19
g641
ssg850
(dp1899
g3
g4
((lp1900
g598
ag853
ag847
ag115
ag842
ag843
ag844
ag1832
ag845
ag279
ag196
ag846
ag1827
ag1059
ag1269
ag1087
ag1096
ag291
ag848
ag849
ag176
ag618
ag1044
ag851
ag852
ag620
atp1901
Rp1902
sg18
I00
sg19
g850
ssg176
(dp1903
g3
g4
((lp1904
g28
ag172
ag174
ag114
ag164
ag165
ag171
ag173
ag175
ag38
ag1827
ag1059
ag1269
ag169
ag1087
ag1096
ag168
ag291
ag850
ag1832
ag1044
ag166
ag170
ag177
atp1905
Rp1906
sg18
I00
sg19
g176
ssg339
(dp1907
g3
g4
((lp1908
g334
ag304
ag335
ag336
ag563
ag337
ag338
ag347
ag340
ag341
ag462
ag442
ag269
ag342
ag483
ag1823
ag1824
ag716
ag641
ag343
ag344
ag1291
ag774
ag345
ag346
atp1909
Rp1910
sg18
I00
sg19
g339
ssg1832
(dp1911
g3
g4
((lp1912
g1827
ag176
ag1059
ag1269
ag355
ag1087
ag1598
ag1096
ag291
ag1420
ag850
aS'dor'
p1913
ag1044
aS'kor'
p1914
ag282
atp1915
Rp1916
sg18
I00
sg19
g1832
ssg1044
(dp1917
g3
g4
((lp1918
g1827
ag1037
ag1008
ag1269
ag1087
ag1096
ag1242
ag291
ag1042
ag1059
ag1041
ag850
ag1043
ag1039
ag176
ag1832
atp1919
Rp1920
sg18
I00
sg19
g1044
ssS'yon'
p1921
(dp1922
g3
g4
((lp1923
g1830
ag1086
ag505
ag212
ag1132
ag498
ag1383
ag1568
aS'ion'
p1924
ag1127
ag707
aS'mon'
p1925
ag175
ag412
aS'you'
p1926
ag905
atp1927
Rp1928
sg18
I00
sg19
g1921
ssg165
(dp1929
g3
g4
((lp1930
g715
ag28
ag172
ag174
ag164
ag114
ag268
ag1420
ag1025
ag843
ag171
ag707
ag173
ag1831
ag175
ag42
ag761
ag741
ag104
ag169
ag168
ag1063
ag176
ag166
ag170
ag177
atp1931
Rp1932
sg18
I00
sg19
g165
ssg1734
(dp1933
g3
g4
((lp1934
g1310
ag1731
ag728
ag1554
atp1935
Rp1936
sg18
I00
sg19
g1734
ssg415
(dp1937
g3
g4
((lp1938
g408
ag411
ag413
ag406
aS'mun'
p1939
ag218
ag678
ag373
ag353
ag395
ag713
ag342
ag221
ag407
ag1592
ag1442
ag1925
ag444
ag409
ag410
ag322
ag463
atp1940
Rp1941
sg18
I00
sg19
g415
ssg678
(dp1942
g3
g4
((lp1943
g670
ag671
ag672
ag673
ag68
ag675
ag676
ag591
ag677
ag373
ag353
ag395
ag713
ag342
ag1022
ag679
ag1592
ag641
ag463
ag444
ag680
ag415
ag667
ag1442
atp1944
Rp1945
sg18
I00
sg19
g678
ssg577
(dp1946
g3
g4
((lp1947
g220
ag883
ag495
ag807
aS'hun'
p1948
aS'jun'
p1949
ag578
ag573
aS'nun'
p1950
ag407
aS'bun'
p1951
ag704
ag580
ag405
ag500
ag280
ag1939
atp1952
Rp1953
sg18
I00
sg19
g577
ssg251
(dp1954
g3
g4
((lp1955
g695
ag248
ag249
ag250
ag739
ag253
ag195
ag693
ag254
ag255
ag256
ag1190
ag257
ag192
ag216
ag258
ag259
ag113
ag36
ag260
ag118
atp1956
Rp1957
sg18
I00
sg19
g251
ssg578
(dp1958
g3
g4
((lp1959
g884
aS'hum'
p1960
aS'gym'
p1961
ag580
ag577
ag573
ag808
ag1587
ag932
aS'bum'
p1962
ag949
ag935
ag280
ag951
atp1963
Rp1964
sg18
I00
sg19
g578
ssg288
(dp1965
g3
g4
((lp1966
g1083
ag692
ag107
aS'sol'
p1967
ag1568
ag889
ag1042
aS'sou'
p1968
ag853
ag174
ag278
ag1012
ag287
ag289
ag806
ag275
ag564
ag294
ag291
ag292
ag296
ag293
ag297
atp1969
Rp1970
sg18
I00
sg19
g288
ssS'our'
p1971
(dp1972
g3
g4
((lp1973
g361
ag1318
aS'bur'
p1974
ag785
ag359
ag138
ag606
atp1975
Rp1976
sg18
I00
sg19
g1971
ssg606
(dp1977
g3
g4
((lp1978
g1137
ag596
ag597
ag603
ag53
ag599
ag600
ag785
ag601
ag849
ag392
ag1275
ag580
ag604
ag1971
ag598
ag605
atp1979
Rp1980
sg18
I00
sg19
g606
ssg1816
(dp1981
g3
g4
((lp1982
g1291
ag268
aS'thy'
p1983
ag1296
ag308
ag1817
ag1813
atp1984
Rp1985
sg18
I00
sg19
g1816
ssg267
(dp1986
g3
g4
((lp1987
g1063
ag1059
ag271
ag273
ag1060
ag275
ag1062
ag1061
ag263
ag276
ag1009
ag279
ag1064
ag1065
ag282
atp1988
Rp1989
sg18
I00
sg19
g267
ssg1127
(dp1990
g3
g4
((lp1991
g413
ag1024
ag505
ag1921
ag492
ag1132
ag1383
ag216
ag1041
ag1568
ag1924
ag1061
ag707
ag1925
aS'wok'
p1992
ag842
ag113
ag412
ag164
ag905
atp1993
Rp1994
sg18
I00
sg19
g1127
ssg271
(dp1995
g3
g4
((lp1996
g267
ag1083
ag1087
ag109
ag1086
ag273
ag1085
ag275
ag276
ag516
ag263
ag1090
ag742
ag279
ag1089
ag464
ag1011
ag1084
ag741
ag282
atp1997
Rp1998
sg18
I00
sg19
g271
ssg70
(dp1999
g3
g4
((lp2000
g230
ag422
ag69
ag73
ag421
ag29
ag188
ag423
ag642
ag671
ag425
ag295
ag418
ag75
ag426
ag427
ag118
atp2001
Rp2002
sg18
I00
sg19
g70
ssg273
(dp2003
g3
g4
((lp2004
g1070
ag267
ag1072
ag271
ag275
ag263
ag276
ag1010
ag279
ag1073
ag282
atp2005
Rp2006
sg18
I00
sg19
g273
ssg188
(dp2007
g3
g4
((lp2008
g184
ag387
ag115
ag197
ag183
ag230
ag185
ag27
ag421
ag70
ag422
ag191
ag423
ag425
ag295
ag418
ag196
ag426
ag427
ag118
ag187
ag195
ag180
ag186
ag193
ag605
ag198
atp2009
Rp2010
sg18
I00
sg19
g188
ssg275
(dp2011
g3
g4
((lp2012
g287
ag267
ag288
ag289
ag271
ag107
ag273
ag291
ag276
ag292
ag293
ag263
ag569
ag294
ag296
ag279
ag297
ag699
ag282
atp2013
Rp2014
sg18
I00
sg19
g275
ssg342
(dp2015
g3
g4
((lp2016
g334
ag353
ag335
ag336
ag713
ag337
ag338
ag347
ag340
ag341
ag678
ag373
ag304
ag395
ag269
ag1592
ag1442
ag463
ag444
ag344
ag339
ag415
ag345
ag346
ag343
atp2017
Rp2018
sg18
I00
sg19
g342
ssg423
(dp2019
g3
g4
((lp2020
g230
ag421
ag912
ag70
ag422
ag188
ag777
ag956
ag425
ag295
ag418
ag426
ag427
ag118
atp2021
Rp2022
sg18
I00
sg19
g423
ssg934
(dp2023
g3
g4
((lp2024
g935
ag683
atp2025
Rp2026
sg18
I00
sg19
g934
ssg276
(dp2027
g3
g4
((lp2028
g1002
ag267
ag273
ag1005
ag271
ag318
ag275
ag263
ag1007
ag279
ag988
ag234
ag1012
ag282
atp2029
Rp2030
sg18
I00
sg19
g276
ssg425
(dp2031
g3
g4
((lp2032
g230
ag884
ag944
ag421
ag70
ag929
ag422
ag188
ag423
ag951
ag950
ag295
ag418
ag482
ag426
ag427
ag118
atp2033
Rp2034
sg18
I00
sg19
g425
ssg295
(dp2035
g3
g4
((lp2036
g298
ag695
ag230
ag422
ag290
ag421
ag70
ag866
ag188
ag423
ag425
ag418
ag570
ag426
ag107
ag427
ag118
atp2037
Rp2038
sg18
I00
sg19
g295
ssg279
(dp2039
g3
g4
((lp2040
g846
ag853
ag115
ag267
ag602
ag271
ag273
ag843
ag275
ag844
ag263
ag276
ag845
ag282
ag847
ag187
ag396
ag848
ag849
ag850
ag851
ag852
ag580
ag842
ag620
atp2041
Rp2042
sg18
I00
sg19
g279
ssg426
(dp2043
g3
g4
((lp2044
g230
ag421
aS'kef'
p2045
ag70
ag422
ag188
ag423
ag425
ag295
ag418
ag427
ag118
atp2046
Rp2047
sg18
I00
sg19
g426
ssg427
(dp2048
g3
g4
((lp2049
g452
ag738
ag109
ag519
ag455
ag739
ag421
ag70
ag422
ag188
ag423
ag425
ag37
ag418
ag426
ag118
ag737
ag706
ag230
ag295
ag742
ag740
atp2050
Rp2051
sg18
I00
sg19
g427
ssg282
(dp2052
g3
g4
((lp2053
g267
ag355
ag1420
ag271
ag273
ag360
ag275
ag263
ag276
ag1598
ag1913
ag279
ag1914
ag1832
atp2054
Rp2055
sg18
I00
sg19
g282
ssg1253
(dp2056
g3
g4
((lp2057
g158
ag1309
ag726
ag831
ag1254
ag377
ag204
aS'ash'
p2058
ag1250
atp2059
Rp2060
sg18
I00
sg19
g1253
ssg287
(dp2061
g3
g4
((lp2062
g288
ag289
ag941
ag562
ag107
ag845
ag1060
ag694
ag275
ag292
ag293
ag173
ag294
ag296
ag297
ag1027
ag291
ag988
atp2063
Rp2064
sg18
I00
sg19
g287
ssg220
(dp2065
g3
g4
((lp2066
g214
ag1950
ag495
ag807
ag34
ag1939
ag218
ag576
ag883
ag659
ag1948
ag660
ag1949
ag661
ag1951
ag704
ag604
ag74
ag138
ag664
ag577
ag405
atp2067
Rp2068
sg18
I00
sg19
g220
ssg158
(dp2069
g3
g4
((lp2070
g204
ag159
ag2058
ag1253
ag15
atp2071
Rp2072
sg18
I00
sg19
g158
ssg659
(dp2073
g3
g4
((lp2074
g576
ag220
ag604
ag660
ag514
ag661
ag785
ag1723
ag458
ag1392
ag460
ag138
ag1429
ag37
ag1084
ag74
ag1088
ag664
atp2075
Rp2076
sg18
I00
sg19
g659
ssg53
(dp2077
g3
g4
((lp2078
g1137
ag143
ag606
ag55
ag849
ag392
ag1275
ag45
ag61
ag48
ag63
atp2079
Rp2080
sg18
I00
sg19
g53
ssg660
(dp2081
g3
g4
((lp2082
g576
ag239
ag220
ag756
ag24
ag659
ag760
ag661
ag546
ag446
ag762
ag763
ag604
ag664
ag752
ag541
ag74
ag765
ag138
ag757
atp2083
Rp2084
sg18
I00
sg19
g660
ssg55
(dp2085
g3
g4
((lp2086
g1254
ag732
ag1302
ag727
ag654
ag723
ag729
ag730
ag53
ag45
ag61
ag48
ag63
atp2087
Rp2088
sg18
I00
sg19
g55
ssg661
(dp2089
g3
g4
((lp2090
g576
ag220
ag806
ag818
ag659
ag74
ag565
ag660
ag290
ag604
ag819
ag820
ag821
ag764
ag822
ag138
ag664
atp2091
Rp2092
sg18
I00
sg19
g661
ssS'qua'
p2093
(dp2094
g3
g4
((lp2095
tp2096
Rp2097
sg18
I00
sg19
g2093
ssg1845
(dp2098
g3
g4
((lp2099
g81
ag1269
atp2100
Rp2101
sg18
I00
sg19
g1845
ssS'ecu'
p2102
(dp2103
g3
g4
((lp2104
S'emu'
p2105
ag1120
atp2106
Rp2107
sg18
I00
sg19
g2102
ssg602
(dp2108
g3
g4
((lp2109
g617
ag621
ag613
ag542
ag390
ag612
ag616
ag615
ag529
ag516
ag569
ag279
ag611
ag187
ag396
ag614
ag500
ag619
ag618
ag144
ag637
ag580
ag484
atp2110
Rp2111
sg18
I00
sg19
g602
ssg204
(dp2112
g3
g4
((lp2113
g1253
ag158
ag1749
ag2058
ag201
ag206
atp2114
Rp2115
sg18
I00
sg19
g204
ssg406
(dp2116
g3
g4
((lp2117
g413
ag194
ag408
ag1132
ag493
ag407
ag322
ag409
ag410
ag378
ag411
ag1122
ag1406
ag720
ag218
ag415
atp2118
Rp2119
sg18
I00
sg19
g406
ssg2058
(dp2120
g3
g4
((lp2121
g204
ag1253
ag158
ag1871
atp2122
Rp2123
sg18
I00
sg19
g2058
ssg61
(dp2124
g3
g4
((lp2125
g53
ag55
ag45
ag48
ag63
atp2126
Rp2127
sg18
I00
sg19
g61
ssg48
(dp2128
g3
g4
((lp2129
g53
ag55
aS'arc'
p2130
ag45
ag61
ag63
atp2131
Rp2132
sg18
I00
sg19
g48
ssg138
(dp2133
g3
g4
((lp2134
g576
ag220
ag361
ag1318
ag659
ag660
ag134
ag31
ag1974
ag661
ag604
ag1971
ag74
ag664
atp2135
Rp2136
sg18
I00
sg19
g138
ssg63
(dp2137
g3
g4
((lp2138
g1644
ag53
ag55
ag1643
ag1640
ag1171
ag45
ag61
ag48
ag1074
atp2139
Rp2140
sg18
I00
sg19
g63
ssg87
(dp2141
g3
g4
((lp2142
g86
ag88
ag89
ag90
ag9
ag59
ag91
ag92
ag93
ag94
atp2143
Rp2144
sg18
I00
sg19
g87
ssg890
(dp2145
g3
g4
((lp2146
g674
ag758
ag675
ag205
ag588
ag645
ag812
ag639
ag73
ag74
atp2147
Rp2148
sg18
I00
sg19
g890
ssg1324
(dp2149
g3
g4
((lp2150
g183
ag35
ag69
ag136
ag727
ag421
ag775
ag229
ag994
ag39
ag1156
ag950
ag217
ag379
ag1323
atp2151
Rp2152
sg18
I00
sg19
g1324
ssg1420
(dp2153
g3
g4
((lp2154
g104
ag741
ag355
ag352
ag1598
ag1025
ag165
ag843
ag268
ag707
ag1063
ag1831
ag1913
ag1914
ag761
ag1832
ag282
atp2155
Rp2156
sg18
I00
sg19
g1420
ssg205
(dp2157
g3
g4
((lp2158
g890
ag201
ag1884
atp2159
Rp2160
sg18
I00
sg19
g205
ssS'ism'
p2161
(dp2162
g3
g4
((lp2163
tp2164
Rp2165
sg18
I00
sg19
g2161
ssg1442
(dp2166
g3
g4
((lp2167
g678
ag373
ag353
ag395
ag900
ag865
ag713
ag693
ag1282
ag809
ag747
ag342
ag1592
ag463
ag444
ag1443
ag415
atp2168
Rp2169
sg18
I00
sg19
g1442
ssg463
(dp2170
g3
g4
((lp2171
g452
ag453
ag454
ag456
ag457
ag515
ag1723
ag460
ag1089
ag462
ag678
ag373
ag353
ag342
ag395
ag713
ag459
ag1592
ag1442
ag444
ag464
ag329
ag415
ag465
ag466
atp2172
Rp2173
sg18
I00
sg19
g463
ssg433
(dp2174
g3
g4
((lp2175
g432
ag442
ag435
ag543
ag437
ag443
ag434
ag438
ag436
ag324
ag447
ag444
ag445
ag441
ag328
ag673
atp2176
Rp2177
sg18
I00
sg19
g433
ssg1318
(dp2178
g3
g4
((lp2179
g597
ag361
ag674
ag1974
ag365
ag810
ag1392
ag820
ag1971
ag935
ag138
atp2180
Rp2181
sg18
I00
sg19
g1318
ssg1060
(dp2182
g3
g4
((lp2183
g287
ag267
ag1059
ag941
ag1061
ag1064
ag1027
ag1062
ag173
ag845
ag1009
ag988
ag1065
ag1063
atp2184
Rp2185
sg18
I00
sg19
g1060
ssg184
(dp2186
g3
g4
((lp2187
g23
ag135
ag231
ag257
ag424
ag853
ag918
ag213
ag1355
ag197
ag956
ag388
ag183
ag180
ag185
ag612
ag27
ag188
ag191
ag195
ag196
ag187
ag186
ag193
ag198
atp2188
Rp2189
sg18
I00
sg19
g184
ssg324
(dp2190
g3
g4
((lp2191
g312
ag320
ag433
ag327
ag321
ag326
ag323
ag325
ag673
atp2192
Rp2193
sg18
I00
sg19
g324
ssg730
(dp2194
g3
g4
((lp2195
g652
ag654
ag727
ag723
ag55
ag56
ag729
ag1311
ag1554
ag732
atp2196
Rp2197
sg18
I00
sg19
g730
ssg673
(dp2198
g3
g4
((lp2199
g68
ag678
ag670
ag324
ag636
ag433
ag667
ag675
ag679
ag676
ag641
ag671
ag591
ag672
ag680
ag677
atp2200
Rp2201
sg18
I00
sg19
g673
ssg512
(dp2202
g3
g4
((lp2203
g511
ag1086
ag476
ag513
ag498
ag515
ag516
ag517
ag645
ag461
ag518
ag519
ag520
atp2204
Rp2205
sg18
I00
sg19
g512
ssg268
(dp2206
g3
g4
((lp2207
g266
ag1983
ag1420
ag277
ag1025
ag165
ag843
ag274
ag1816
ag270
ag263
ag1063
ag1831
ag278
ag707
ag104
ag761
ag741
ag281
atp2208
Rp2209
sg18
I00
sg19
g268
ssg25
(dp2210
g3
g4
((lp2211
g23
ag35
ag20
ag185
ag977
ag717
ag169
ag32
ag33
ag30
ag259
ag38
ag41
ag42
atp2212
Rp2213
sg18
I00
sg19
g25
ssg185
(dp2214
g3
g4
((lp2215
g183
ag180
ag184
ag847
ag25
ag977
ag27
ag195
ag187
ag188
ag186
ag191
ag193
ag603
ag259
ag196
ag197
ag198
atp2216
Rp2217
sg18
I00
sg19
g185
ssg977
(dp2218
g3
g4
((lp2219
g915
ag978
ag25
ag185
ag259
atp2220
Rp2221
sg18
I00
sg19
g977
ssg1072
(dp2222
g3
g4
((lp2223
g1070
ag273
ag914
ag1026
ag1010
ag1039
ag1914
ag1073
atp2224
Rp2225
sg18
I00
sg19
g1072
ssg1025
(dp2226
g3
g4
((lp2227
g670
ag72
ag1024
ag889
ag268
ag1023
ag1420
ag638
ag165
ag843
ag1027
ag707
ag1063
ag589
ag1831
ag1026
ag761
ag741
ag104
ag758
ag1022
ag681
ag1006
atp2228
Rp2229
sg18
I00
sg19
g1025
ssg498
(dp2230
g3
g4
((lp2231
g502
ag512
ag472
ag214
ag212
ag496
ag492
ag497
ag493
ag494
ag1921
ag499
ag506
ag503
ag500
ag414
ag501
ag504
ag645
atp2232
Rp2233
sg18
I00
sg19
g498
ssg1027
(dp2234
g3
g4
((lp2235
g287
ag681
ag1023
ag941
ag1006
ag1025
ag1022
ag1060
ag72
ag1024
ag889
ag845
ag643
ag173
ag589
ag1026
ag988
ag680
atp2236
Rp2237
sg18
I00
sg19
g1027
ssg843
(dp2238
g3
g4
((lp2239
g386
ag846
ag853
ag115
ag268
ag1420
ag842
ag1025
ag165
ag844
ag707
ag1063
ag845
ag1831
ag279
ag761
ag741
ag104
ag847
ag599
ag848
ag849
ag850
ag851
ag852
ag616
ag620
atp2240
Rp2241
sg18
I00
sg19
g843
ssg1159
(dp2242
g3
g4
((lp2243
g1155
ag1156
ag831
ag1157
ag1112
ag1104
ag1158
ag1160
ag1161
ag1045
atp2244
Rp2245
sg18
I00
sg19
g1159
ssg707
(dp2246
g3
g4
((lp2247
g211
ag1132
ag1568
ag411
ag1921
ag268
ag1420
ag1025
ag165
ag843
ag499
ag1127
ag1063
ag1831
ag412
ag761
ag741
ag104
ag1924
ag1925
ag704
ag505
ag1383
ag905
atp2248
Rp2249
sg18
I00
sg19
g707
ssg1063
(dp2250
g3
g4
((lp2251
g1215
ag267
ag1059
ag1064
ag1420
ag1025
ag1831
ag1060
ag843
ag165
ag1218
ag1061
ag268
ag707
ag1065
ag1009
ag1062
ag1119
ag761
ag741
ag104
atp2252
Rp2253
sg18
I00
sg19
g1063
ssg259
(dp2254
g3
g4
((lp2255
g251
ag248
ag249
ag25
ag185
ag977
ag253
ag254
ag255
ag256
ag257
ag192
ag112
ag258
ag36
ag118
ag260
ag250
atp2256
Rp2257
sg18
I00
sg19
g259
ssg1026
(dp2258
g3
g4
((lp2259
g681
ag1022
ag1023
ag889
ag1006
ag1025
ag635
ag1024
ag72
ag1072
ag1027
ag589
ag1039
ag1914
ag75
atp2260
Rp2261
sg18
I00
sg19
g1026
ssg1039
(dp2262
g3
g4
((lp2263
g1037
ag1072
ag1008
ag1041
ag374
ag1042
ag1043
ag1026
ag1914
ag1044
atp2264
Rp2265
sg18
I00
sg19
g1039
ssg1914
(dp2266
g3
g4
((lp2267
g355
ag1072
ag1598
ag1420
ag1913
ag1026
ag1039
ag1832
ag282
atp2268
Rp2269
sg18
I00
sg19
g1914
ssg761
(dp2270
g3
g4
((lp2271
g243
ag447
ag1095
ag268
ag941
ag1420
ag1025
ag165
ag843
ag439
ag707
ag1063
ag1831
ag741
ag104
ag1096
ag1097
ag1098
ag752
ag540
ag1099
ag1013
atp2272
Rp2273
sg18
I00
sg19
g761
ssg741
(dp2274
g3
g4
((lp2275
g1083
ag706
ag454
ag1084
ag1085
ag268
ag1420
ag271
ag1025
ag1086
ag165
ag843
ag707
ag1063
ag1831
ag761
ag104
ag1087
ag109
ag1089
ag1090
ag1011
atp2276
Rp2277
sg18
I00
sg19
g741
ssg173
(dp2278
g3
g4
((lp2279
g287
ag176
ag941
ag166
ag169
ag28
ag164
ag168
ag1060
ag170
ag171
ag1027
ag172
ag845
ag175
ag165
ag988
ag712
ag174
ag177
ag114
atp2280
Rp2281
sg18
I00
sg19
g173
ssg805
(dp2282
g3
g4
((lp2283
g802
ag105
ag818
ag1960
ag1948
aS'huh'
p2284
ag1282
ag527
ag601
ag810
ag756
ag588
ag530
ag813
ag117
atp2285
Rp2286
sg18
I00
sg19
g805
ssg756
(dp2287
g3
g4
((lp2288
g1095
ag239
ag757
ag818
ag805
ag1960
ag1948
ag660
ag2284
ag760
ag541
ag601
ag446
ag762
ag588
ag763
ag438
ag765
ag752
atp2289
Rp2290
sg18
I00
sg19
g756
ssg340
(dp2291
g3
g4
((lp2292
g334
ag335
ag413
ag336
ag337
ag437
ag338
ag693
ag456
ag687
ag1818
ag347
ag325
ag697
ag393
ag380
ag358
ag677
ag304
ag269
ag342
ag343
ag344
ag339
ag345
ag341
ag346
ag1813
atp2293
Rp2294
sg18
I00
sg19
g340
ssg818
(dp2295
g3
g4
((lp2296
g805
ag756
ag289
ag806
ag290
ag1960
ag565
ag2284
ag661
ag601
ag819
ag820
ag821
ag588
ag764
ag822
ag1948
atp2297
Rp2298
sg18
I00
sg19
g818
ssg1960
(dp2299
g3
g4
((lp2300
g805
ag756
ag930
ag818
ag884
ag808
ag1948
ag2284
ag578
ag1587
ag601
ag588
ag1962
ag949
ag950
ag935
ag486
atp2301
Rp2302
sg18
I00
sg19
g1960
ssg1961
(dp2303
g3
g4
((lp2304
g932
ag578
ag951
ag590
atp2305
Rp2306
sg18
I00
sg19
g1961
ssg1831
(dp2307
g3
g4
((lp2308
g1827
ag1830
ag268
ag475
ag1420
ag1025
ag165
ag843
ag707
ag1063
ag948
ag927
ag761
ag741
ag104
atp2309
Rp2310
sg18
I00
sg19
g1831
ssg2284
(dp2311
g3
g4
((lp2312
g1280
ag805
ag756
ag818
ag1960
ag1948
ag601
ag588
atp2313
Rp2314
sg18
I00
sg19
g2284
ssg601
(dp2315
g3
g4
((lp2316
g183
ag805
ag756
ag611
ag818
ag596
ag1960
ag1948
ag2284
ag600
ag599
ag844
ag597
ag588
ag603
ag580
ag604
ag394
ag598
ag605
ag606
atp2317
Rp2318
sg18
I00
sg19
g601
ssg588
(dp2319
g3
g4
((lp2320
g587
ag805
ag584
ag756
ag69
ag818
ag674
ag758
ag1960
ag1948
ag890
ag2284
ag601
ag591
ag589
ag812
ag639
ag74
atp2321
Rp2322
sg18
I00
sg19
g588
ssg590
(dp2323
g3
g4
((lp2324
g584
ag1961
ag679
ag637
atp2325
Rp2326
sg18
I00
sg19
g590
ssg1521
(dp2327
g3
g4
((lp2328
S'oaf'
p2329
ag1518
ag1275
ag1522
atp2330
Rp2331
sg18
I00
sg19
g1521
ssg231
(dp2332
g3
g4
((lp2333
g228
ag23
ag230
ag184
ag135
ag1012
ag1487
ag229
ag189
ag257
ag321
ag424
ag918
ag232
ag233
ag213
ag1355
ag956
atp2334
Rp2335
sg18
I00
sg19
g231
ssg988
(dp2336
g3
g4
((lp2337
g1002
ag287
ag941
ag1005
ag987
ag1007
ag318
ag1060
ag1027
ag326
ag276
ag845
ag233
ag1012
ag234
ag173
atp2338
Rp2339
sg18
I00
sg19
g988
ssg222
(dp2340
g3
g4
((lp2341
g502
ag219
ag211
ag1353
ag212
ag215
ag221
ag242
ag740
ag256
ag34
ag995
ag1951
ag223
ag410
ag213
ag217
ag216
ag198
atp2342
Rp2343
sg18
I00
sg19
g222
ssg1353
(dp2344
g3
g4
((lp2345
g222
ag947
ag242
ag740
ag256
ag1354
ag995
ag778
aS'bal'
p2346
ag1355
ag198
ag581
atp2347
Rp2348
sg18
I00
sg19
g1353
ssg7
(dp2349
g3
g4
((lp2350
g1
ag858
ag579
ag1871
ag12
ag13
ag377
ag2346
ag663
atp2351
Rp2352
sg18
I00
sg19
g7
ssg1871
(dp2353
g3
g4
((lp2354
g1280
ag7
ag1823
ag1872
ag1873
ag377
ag1786
ag2058
ag1874
atp2355
Rp2356
sg18
I00
sg19
g1871
ssg740
(dp2357
g3
g4
((lp2358
g455
ag222
ag738
ag1353
ag739
ag513
ag706
ag242
ag256
ag465
ag995
ag1088
ag742
ag37
ag737
ag1011
ag198
ag427
atp2359
Rp2360
sg18
I00
sg19
g740
ssg256
(dp2361
g3
g4
((lp2362
g251
ag192
ag248
ag249
ag222
ag250
ag1353
ag253
ag254
ag242
ag740
ag255
ag257
ag995
ag258
ag259
ag36
ag1191
ag260
ag198
ag118
atp2363
Rp2364
sg18
I00
sg19
g256
ssg995
(dp2365
g3
g4
((lp2366
g266
ag626
ag222
ag994
ag1353
ag774
ag272
ag242
ag740
ag256
ag993
ag917
ag346
ag198
ag309
atp2367
Rp2368
sg18
I00
sg19
g995
ssg377
(dp2369
g3
g4
((lp2370
g1253
ag373
ag1254
ag726
ag371
ag7
ag372
ag1871
ag831
ag374
ag375
ag376
ag381
ag316
ag378
ag379
ag380
ag1250
ag370
atp2371
Rp2372
sg18
I00
sg19
g377
ssg104
(dp2373
g3
g4
((lp2374
g106
ag101
ag747
ag105
ag1420
ag1025
ag165
ag843
ag111
ag707
ag1063
ag1831
ag113
ag528
ag761
ag741
ag748
ag255
ag268
ag112
ag110
ag749
atp2375
Rp2376
sg18
I00
sg19
g104
ssg1373
(dp2377
g3
g4
((lp2378
g1370
ag305
ag1371
ag1367
ag334
ag278
atp2379
Rp2380
sg18
I00
sg19
g1373
ssg198
(dp2381
g3
g4
((lp2382
g184
ag197
ag183
ag180
ag185
ag27
ag188
ag191
ag195
ag196
ag187
ag600
ag186
ag193
ag619
ag399
ag222
ag1353
ag852
ag242
ag740
ag256
ag995
atp2383
Rp2384
sg18
I00
sg19
g198
ssg1506
(dp2385
g3
g4
((lp2386
g86
ag1503
ag125
aS'ani'
p2387
ag146
ag783
ag518
ag895
atp2388
Rp2389
sg18
I00
sg19
g1506
ssg86
(dp2390
g3
g4
((lp2391
g1506
ag87
ag125
ag88
ag89
ag90
ag9
ag2387
ag56
ag146
ag59
ag91
ag92
ag93
ag895
ag94
atp2392
Rp2393
sg18
I00
sg19
g86
ssg452
(dp2394
g3
g4
((lp2395
g432
ag408
ag929
ag1481
ag1872
ag453
ag454
ag167
ag387
ag376
ag671
ag519
ag323
ag335
ag456
ag457
ag460
ag427
ag462
ag459
ag109
ag463
ag464
ag329
ag465
ag466
atp2396
Rp2397
sg18
I00
sg19
g452
ssg125
(dp2398
g3
g4
((lp2399
g1506
ag123
ag124
ag86
ag126
ag2387
ag127
ag11
ag146
ag129
ag895
ag128
atp2400
Rp2401
sg18
I00
sg19
g125
ssg858
(dp2402
g3
g4
((lp2403
g321
ag1355
ag859
ag7
ag719
ag434
ag1967
ag809
ag453
ag334
ag579
ag692
ag2346
ag672
ag663
ag860
ag388
atp2404
Rp2405
sg18
I00
sg19
g858
ssg408
(dp2406
g3
g4
((lp2407
g432
ag452
ag929
ag1481
ag1872
ag494
ag167
ag387
ag376
ag671
ag411
ag323
ag335
ag413
ag406
ag218
ag883
ag407
ag322
ag415
ag409
ag410
atp2408
Rp2409
sg18
I00
sg19
g408
ssg692
(dp2410
g3
g4
((lp2411
g288
ag858
ag859
ag434
ag809
ag453
ag334
ag321
ag696
ag672
ag719
ag860
ag388
ag690
ag806
ag687
ag564
ag698
ag691
ag563
ag694
ag699
ag684
atp2412
Rp2413
sg18
I00
sg19
g692
ssS'pro'
p2414
(dp2415
g3
g4
((lp2416
g1817
aS'fro'
p2417
atp2418
Rp2419
sg18
I00
sg19
g2414
ssg929
(dp2420
g3
g4
((lp2421
g432
ag452
ag408
ag1481
ag1872
ag167
ag387
ag482
ag376
ag671
ag927
ag323
ag335
ag930
ag931
ag933
ag425
ag936
ag928
ag884
ag483
ag932
ag683
atp2422
Rp2423
sg18
I00
sg19
g929
ssg1481
(dp2424
g3
g4
((lp2425
g432
ag452
ag408
ag929
ag1281
ag1872
ag167
ag387
ag376
ag671
ag1121
ag323
ag335
atp2426
Rp2427
sg18
I00
sg19
g1481
ssg2387
(dp2428
g3
g4
((lp2429
g1506
ag86
ag125
ag146
aS'ami'
p2430
ag895
atp2431
Rp2432
sg18
I00
sg19
g2387
ssg1872
(dp2433
g3
g4
((lp2434
g1280
ag432
ag452
ag1873
ag323
ag408
ag1481
ag929
ag1823
ag1871
ag167
ag387
ag376
ag671
ag1786
ag1874
ag335
atp2435
Rp2436
sg18
I00
sg19
g1872
ssg453
(dp2437
g3
g4
((lp2438
g452
ag1083
ag858
ag859
ag692
ag434
ag809
ag454
ag334
ag321
ag672
ag719
ag860
ag388
ag456
ag457
ag460
ag462
ag459
ag463
ag464
ag329
ag465
ag466
atp2439
Rp2440
sg18
I00
sg19
g453
ssg146
(dp2441
g3
g4
((lp2442
g1506
ag86
ag143
ag125
ag144
ag2387
ag145
ag147
ag148
ag14
ag895
atp2443
Rp2444
sg18
I00
sg19
g146
ssg167
(dp2445
g3
g4
((lp2446
g432
ag452
ag715
ag408
ag929
ag1481
ag1872
ag387
ag376
ag671
ag719
ag323
ag114
ag26
ag717
ag714
ag697
ag335
ag720
ag718
ag713
ag716
ag712
ag682
atp2447
Rp2448
sg18
I00
sg19
g167
ssg387
(dp2449
g3
g4
((lp2450
g386
ag432
ag452
ag408
ag929
ag1481
ag1872
ag167
ag376
ag671
ag115
ag323
ag335
ag389
ag188
ag392
ag388
ag394
ag194
ag395
ag396
ag319
ag397
ag398
ag391
ag605
ag399
ag393
ag400
atp2451
Rp2452
sg18
I00
sg19
g387
ssg321
(dp2453
g3
g4
((lp2454
g312
ag1487
ag858
ag859
ag692
ag231
ag434
ag809
ag453
ag320
ag334
ag326
ag860
ag324
ag325
ag1012
ag327
ag672
ag719
ag323
ag388
atp2455
Rp2456
sg18
I00
sg19
g321
ssg376
(dp2457
g3
g4
((lp2458
g432
ag452
ag371
ag408
ag929
ag1481
ag1872
ag167
ag387
ag671
ag323
ag335
ag375
ag421
ag378
ag379
ag380
ag373
ag316
ag372
ag374
ag381
ag370
ag377
atp2459
Rp2460
sg18
I00
sg19
g376
ssg671
(dp2461
g3
g4
((lp2462
g432
ag452
ag670
ag408
ag929
ag1481
ag1872
ag167
ag387
ag376
ag672
ag323
ag335
ag68
ag70
ag675
ag676
ag673
ag591
ag677
ag678
ag679
ag641
ag642
ag680
ag667
atp2463
Rp2464
sg18
I00
sg19
g671
ssg672
(dp2465
g3
g4
((lp2466
g670
ag858
ag859
ag692
ag434
ag809
ag453
ag889
ag334
ag321
ag671
ag719
ag860
ag388
ag68
ag640
ag675
ag676
ag673
ag812
ag591
ag677
ag678
ag679
ag641
ag680
ag667
atp2467
Rp2468
sg18
I00
sg19
g672
ssg1817
(dp2469
g3
g4
((lp2470
g1291
ag338
ag2414
ag1296
ag307
ag1816
ag308
ag1813
atp2471
Rp2472
sg18
I00
sg19
g1817
ssg895
(dp2473
g3
g4
((lp2474
g1506
ag86
ag125
ag2387
ag146
ag798
atp2475
Rp2476
sg18
I00
sg19
g895
ssg323
(dp2477
g3
g4
((lp2478
g432
ag312
ag320
ag324
ag408
ag327
ag929
ag1481
ag452
ag1872
ag167
ag387
ag321
ag326
ag376
ag671
ag230
ag325
ag335
atp2479
Rp2480
sg18
I00
sg19
g323
ssg335
(dp2481
g3
g4
((lp2482
g432
ag452
ag408
ag929
ag1481
ag1872
ag167
ag387
ag376
ag671
ag323
ag336
ag337
ag338
ag347
ag340
ag341
ag304
ag269
ag342
ag343
ag344
ag339
ag345
ag334
ag346
atp2483
Rp2484
sg18
I00
sg19
g335
ssg511
(dp2485
g3
g4
((lp2486
g526
ag737
ag562
ag512
ag476
ag513
ag515
ag615
ag459
ag516
ag517
ag461
ag1158
ag518
ag519
ag643
ag497
ag520
atp2487
Rp2488
sg18
I00
sg19
g511
ssg526
(dp2489
g3
g4
((lp2490
g511
ag250
ag562
ag252
ag477
ag497
ag1158
ag525
ag615
ag1189
ag529
ag643
ag530
ag531
ag528
atp2491
Rp2492
sg18
I00
sg19
g526
ssg1355
(dp2493
g3
g4
((lp2494
g23
ag184
ag135
ag1353
ag858
ag947
ag1967
ag231
ag1354
ag257
ag778
ag918
ag213
ag424
ag956
ag581
atp2495
Rp2496
sg18
I00
sg19
g1355
ssg473
(dp2497
g3
g4
((lp2498
g469
ag829
ag474
ag944
ag560
ag515
ag545
ag480
ag481
ag1703
ag482
ag948
ag949
ag1160
ag1597
ag486
ag487
atp2499
Rp2500
sg18
I00
sg19
g473
ssg829
(dp2501
g3
g4
((lp2502
g828
ag473
ag830
ag1703
ag947
ag560
ag515
ag545
ag827
ag12
ag1468
ag1160
ag1597
ag833
atp2503
Rp2504
sg18
I00
sg19
g829
ssg562
(dp2505
g3
g4
((lp2506
g511
ag526
ag615
ag561
ag287
ag568
ag497
ag560
ag566
ag694
ag567
ag564
ag643
ag479
ag1158
ag298
ag569
atp2507
Rp2508
sg18
I00
sg19
g562
ssg497
(dp2509
g3
g4
((lp2510
g511
ag526
ag472
ag214
ag562
ag496
ag492
ag498
ag493
ag499
ag615
ag494
ag506
ag643
ag503
ag1158
ag502
ag500
ag414
ag501
ag504
atp2511
Rp2512
sg18
I00
sg19
g497
ssg1310
(dp2513
g3
g4
((lp2514
g1309
ag1302
ag1734
ag1563
ag1311
ag1312
ag1313
ag1522
atp2515
Rp2516
sg18
I00
sg19
g1310
ssg1563
(dp2517
g3
g4
((lp2518
g148
ag1275
ag1310
ag391
ag1522
atp2519
Rp2520
sg18
I00
sg19
g1563
ssg515
(dp2521
g3
g4
((lp2522
g511
ag512
ag473
ag829
ag1723
ag476
ag513
ag560
ag545
ag1703
ag516
ag517
ag463
ag461
ag518
ag1160
ag1597
ag519
ag1089
ag520
atp2523
Rp2524
sg18
I00
sg19
g515
ssg545
(dp2525
g3
g4
((lp2526
g537
ag538
ag478
ag473
ag829
ag543
ag539
ag560
ag515
ag546
ag542
ag1703
ag762
ag440
ag444
ag544
ag1160
ag1597
ag1098
atp2527
Rp2528
sg18
I00
sg19
g545
ssg74
(dp2529
g3
g4
((lp2530
g576
ag68
ag220
ag674
ag659
ag604
ag660
ag29
ag661
ag71
ag890
ag588
ag72
ag812
ag639
ag758
ag138
ag664
atp2531
Rp2532
sg18
I00
sg19
g74
ssg615
(dp2533
g3
g4
((lp2534
g617
ag621
ag613
ag511
ag526
ag602
ag562
ag612
ag616
ag497
ag643
ag845
ag1158
ag611
ag614
ag193
ag398
ag619
ag618
ag390
ag144
ag484
atp2535
Rp2536
sg18
I00
sg19
g615
ssg1703
(dp2537
g3
g4
((lp2538
g1487
ag473
ag829
ag317
ag560
ag515
ag545
ag1603
ag1702
ag1160
ag1597
atp2539
Rp2540
sg18
I00
sg19
g1703
ssg643
(dp2541
g3
g4
((lp2542
g511
ag526
ag640
ag636
ag562
ag637
ag587
ag485
ag497
ag635
ag638
ag642
ag615
ag1027
ag645
ag1158
ag71
ag644
ag680
atp2543
Rp2544
sg18
I00
sg19
g643
ssg1158
(dp2545
g3
g4
((lp2546
g511
ag526
ag1156
ag562
ag497
ag831
ag1157
ag615
ag1112
ag1155
ag643
ag1104
ag1160
ag1161
ag1045
ag1159
ag381
atp2547
Rp2548
sg18
I00
sg19
g1158
ssg38
(dp2549
g3
g4
((lp2550
g23
ag35
ag25
ag254
ag866
ag32
ag33
ag30
ag196
ag176
ag20
ag41
ag42
atp2551
Rp2552
sg18
I00
sg19
g38
ssg1160
(dp2553
g3
g4
((lp2554
g1155
ag373
ag1156
ag473
ag829
ag1241
ag1112
ag560
ag1161
ag515
ag545
ag1157
ag1703
ag1159
ag1104
ag831
ag1158
ag1597
ag1045
atp2555
Rp2556
sg18
I00
sg19
g1160
ssg1597
(dp2557
g3
g4
((lp2558
g354
ag1486
ag353
ag473
ag829
ag1598
ag560
ag515
ag545
ag832
ag1703
ag1160
atp2559
Rp2560
sg18
I00
sg19
g1597
ssg1948
(dp2561
g3
g4
((lp2562
g805
ag220
ag756
ag883
ag495
ag818
ag1949
ag1960
ag1950
ag2284
ag577
ag601
ag1951
ag704
ag807
ag405
ag588
ag217
ag1939
ag504
atp2563
Rp2564
sg18
I00
sg19
g1948
ssg1522
(dp2565
g3
g4
((lp2566
S'elf'
p2567
ag1518
ag1310
ag1563
ag1521
atp2568
Rp2569
sg18
I00
sg19
g1522
ssS'pyx'
p2570
(dp2571
g3
g4
((lp2572
g320
ag1728
ag1603
ag1192
ag1005
atp2573
Rp2574
sg18
I00
sg19
g2570
ssg691
(dp2575
g3
g4
((lp2576
g690
ag563
ag900
ag692
ag687
ag694
ag374
ag696
ag397
ag684
ag344
ag698
ag699
atp2577
Rp2578
sg18
I00
sg19
g691
ssg358
(dp2579
g3
g4
((lp2580
g352
ag413
ag134
ag437
ag693
ag456
ag356
ag687
ag357
ag359
ag340
ag325
ag697
ag393
ag380
ag677
ag353
ag315
ag360
ag362
ag363
ag364
ag365
atp2581
Rp2582
sg18
I00
sg19
g358
ssg1554
(dp2583
g3
g4
((lp2584
g652
ag1734
ag728
aS'inn'
p2585
ag1311
aS'ink'
p2586
ag730
ag1731
atp2587
Rp2588
sg18
I00
sg19
g1554
ssS'wha'
p2589
(dp2590
g3
g4
((lp2591
g124
ag1818
aS'who'
p2592
atp2593
Rp2594
sg18
I00
sg19
g2589
ssg900
(dp2595
g3
g4
((lp2596
g691
ag865
ag693
ag813
ag1282
ag809
ag374
ag747
ag1442
ag397
ag1443
ag344
atp2597
Rp2598
sg18
I00
sg19
g900
ssg748
(dp2599
g3
g4
((lp2600
g553
ag1189
ag89
ag116
ag255
ag747
ag1190
ag528
ag532
ag749
ag1191
ag1192
ag104
atp2601
Rp2602
sg18
I00
sg19
g748
ssg2592
(dp2603
g3
g4
((lp2604
S'mho'
p2605
aS'oho'
p2606
ag2589
ag1218
ag1061
aS'rho'
p2607
ag1818
atp2608
Rp2609
sg18
I00
sg19
g2592
ssg374
(dp2610
g3
g4
((lp2611
g691
ag373
ag375
ag370
ag900
ag371
ag316
ag372
ag376
ag377
ag397
ag378
ag344
ag379
ag380
ag1039
ag381
atp2612
Rp2613
sg18
I00
sg19
g374
ssg1717
(dp2614
g3
g4
((lp2615
g1714
ag506
ag93
ag13
ag128
atp2616
Rp2617
sg18
I00
sg19
g1717
ssg13
(dp2618
g3
g4
((lp2619
g1718
ag1
ag12
ag7
ag1717
ag93
ag128
atp2620
Rp2621
sg18
I00
sg19
g13
ssg2607
(dp2622
g3
g4
((lp2623
g1218
ag2605
ag2606
ag2592
atp2624
Rp2625
sg18
I00
sg19
g2607
ssg397
(dp2626
g3
g4
((lp2627
g386
ag691
ag399
ag393
ag389
ag395
ag900
ag396
ag319
ag400
ag374
ag387
ag392
ag398
ag344
ag614
ag394
ag391
ag194
ag388
atp2628
Rp2629
sg18
I00
sg19
g397
ssg1728
(dp2630
g3
g4
((lp2631
g2570
ag1111
ag1528
ag40
ag1192
atp2632
Rp2633
sg18
I00
sg19
g1728
ssg93
(dp2634
g3
g4
((lp2635
g86
ag87
ag88
ag89
ag90
ag9
ag555
ag1717
ag13
ag59
ag91
ag51
ag92
ag128
ag94
atp2636
Rp2637
sg18
I00
sg19
g93
ssg1192
(dp2638
g3
g4
((lp2639
g2570
ag553
ag89
ag748
ag116
ag525
ag1189
ag1728
ag532
ag36
ag1191
ag1190
atp2640
Rp2641
sg18
I00
sg19
g1192
ssg128
(dp2642
g3
g4
((lp2643
g123
ag124
ag125
ag126
ag1219
ag127
ag11
ag1717
ag13
ag93
ag129
atp2644
Rp2645
sg18
I00
sg19
g128
ssS'urd'
p2646
(dp2647
g3
g4
((lp2648
g1382
atp2649
Rp2650
sg18
I00
sg19
g2646
ssg505
(dp2651
g3
g4
((lp2652
g1132
ag540
ag1921
ag495
ag1127
ag707
ag412
ag1924
ag1925
ag1568
ag472
ag1352
ag475
aS'doc'
p2653
ag1383
ag110
ag223
ag1913
ag1043
ag177
ag620
ag905
atp2654
Rp2655
sg18
I00
sg19
g505
ssg1352
(dp2656
g3
g4
((lp2657
g505
ag475
ag2653
ag177
ag540
ag110
ag662
ag778
ag1967
ag1468
ag1913
ag1043
aS'col'
p2658
ag620
atp2659
Rp2660
sg18
I00
sg19
g1352
ssg475
(dp2661
g3
g4
((lp2662
g469
ag1830
ag505
ag1352
ag1827
ag2653
ag1831
ag540
ag110
ag948
ag483
ag1913
ag1043
ag177
ag620
atp2663
Rp2664
sg18
I00
sg19
g475
ssg2653
(dp2665
g3
g4
((lp2666
g108
ag505
ag1352
ag475
aS'duc'
p2667
ag540
ag110
ag1913
ag1043
ag177
ag620
atp2668
Rp2669
sg18
I00
sg19
g2653
ssg1382
(dp2670
g3
g4
((lp2671
g2646
ag1304
atp2672
Rp2673
sg18
I00
sg19
g1382
ssg500
(dp2674
g3
g4
((lp2675
g214
ag492
ag493
ag494
ag602
ag637
ag496
ag497
ag498
ag529
ag542
ag499
ag516
ag569
ag414
ag501
ag502
ag407
ag503
ag504
ag472
ag577
ag506
atp2676
Rp2677
sg18
I00
sg19
g500
ssg110
(dp2678
g3
g4
((lp2679
g106
ag105
ag505
ag1352
ag475
ag477
ag101
ag540
ag177
ag111
ag527
ag532
ag2653
ag1913
ag1043
ag104
ag113
ag260
ag620
ag112
atp2680
Rp2681
sg18
I00
sg19
g110
ssg91
(dp2682
g3
g4
((lp2683
g86
ag87
ag88
ag89
ag90
ag9
ag59
ag92
ag93
ag94
atp2684
Rp2685
sg18
I00
sg19
g91
ssg1913
(dp2686
g3
g4
((lp2687
g505
ag355
ag1352
ag475
ag1420
ag2653
ag540
ag110
ag1832
ag1598
ag1043
ag1914
ag177
ag620
ag282
atp2688
Rp2689
sg18
I00
sg19
g1913
ssg1043
(dp2690
g3
g4
((lp2691
g1037
ag775
ag505
ag1352
ag475
ag2653
ag1008
ag540
ag1041
ag110
ag1042
ag1913
ag1039
ag177
ag620
ag1044
atp2692
Rp2693
sg18
I00
sg19
g1043
ssg177
(dp2694
g3
g4
((lp2695
g28
ag32
ag174
ag110
ag114
ag164
ag165
ag171
ag173
ag175
ag169
ag168
ag716
ag176
ag505
ag1352
ag166
ag475
ag2653
ag540
ag170
ag172
ag1913
ag1043
ag620
atp2696
Rp2697
sg18
I00
sg19
g177
ssg620
(dp2698
g3
g4
((lp2699
g846
ag853
ag115
ag842
ag843
ag844
ag845
ag279
ag847
ag848
ag849
ag850
ag484
ag505
ag851
ag1352
ag475
ag2653
ag852
ag540
ag110
ag1913
ag1043
ag177
atp2700
Rp2701
sg18
I00
sg19
g620
ssg1270
(dp2702
g3
g4
((lp2703
g1269
ag1005
ag28
ag846
ag1265
ag72
ag662
aS'poi'
p2704
ag1786
ag1084
ag1268
atp2705
Rp2706
sg18
I00
sg19
g1270
ssS'ugh'
p2707
(dp2708
g3
g4
((lp2709
tp2710
Rp2711
sg18
I00
sg19
g2707
ssg1024
(dp2712
g3
g4
((lp2713
g681
ag1023
ag1992
ag1006
ag842
ag1025
ag1022
ag1061
ag72
ag889
ag1027
ag1127
ag1041
ag589
ag113
ag1026
ag164
ag677
atp2714
Rp2715
sg18
I00
sg19
g1024
ssg1587
(dp2716
g3
g4
((lp2717
g928
ag884
ag987
ag1960
ag808
ag1962
ag578
ag763
ag949
ag935
atp2718
Rp2719
sg18
I00
sg19
g1587
ssg1041
(dp2720
g3
g4
((lp2721
g1037
ag1042
ag842
ag164
ag1008
ag1024
ag1061
ag1127
ag1104
ag1992
ag113
ag1043
ag1039
ag380
ag1044
atp2722
Rp2723
sg18
I00
sg19
g1041
ssg56
(dp2724
g3
g4
((lp2725
g86
ag49
ag51
ag54
ag50
ag58
ag730
ag45
ag52
ag62
atp2726
Rp2727
sg18
I00
sg19
g56
ssg337
(dp2728
g3
g4
((lp2729
g338
ag345
ag304
ag336
ag269
ag342
ag717
ag356
ag346
ag347
ag334
ag933
ag343
ag340
ag277
ag441
ag344
ag341
ag698
ag339
ag335
atp2730
Rp2731
sg18
I00
sg19
g337
ssg1644
(dp2732
g3
g4
((lp2733
g1643
ag1640
ag63
atp2734
Rp2735
sg18
I00
sg19
g1644
ssg717
(dp2736
g3
g4
((lp2737
g933
ag715
ag25
ag713
ag337
ag682
ag719
ag169
ag356
ag26
ag167
ag716
ag714
ag697
ag441
ag712
ag698
ag720
ag718
atp2738
Rp2739
sg18
I00
sg19
g717
ssg356
(dp2740
g3
g4
((lp2741
g134
ag353
ag364
ag352
ag337
ag315
ag365
ag360
ag357
ag933
ag359
ag717
ag441
ag362
ag698
ag358
ag363
atp2742
Rp2743
sg18
I00
sg19
g356
ssg1061
(dp2744
g3
g4
((lp2745
g267
ag1059
ag842
ag164
ag2592
ag1060
ag1041
ag1024
ag1127
ag1062
ag1063
ag1992
ag1009
ag113
ag1064
ag1065
atp2746
Rp2747
sg18
I00
sg19
g1061
ssg765
(dp2748
g3
g4
((lp2749
g1038
ag756
ag436
ag541
ag762
ag763
ag626
ag757
ag1974
ag539
ag660
ag760
ag600
ag1951
ag1962
ag821
ag1088
ag752
ag239
ag242
ag446
ag1013
atp2750
Rp2751
sg18
I00
sg19
g765
ssg933
(dp2752
g3
g4
((lp2753
g927
ag928
ag930
ag337
ag483
ag929
ag356
ag931
ag932
ag683
ag717
ag441
ag698
ag936
atp2754
Rp2755
sg18
I00
sg19
g933
ssg441
(dp2756
g3
g4
((lp2757
g432
ag538
ag442
ag757
ag337
ag437
ag717
ag434
ag443
ag356
ag433
ag438
ag436
ag933
ag444
ag1097
ag445
ag447
ag698
ag328
ag435
atp2758
Rp2759
sg18
I00
sg19
g441
ssg698
(dp2760
g3
g4
((lp2761
g690
ag691
ag561
ag563
ag337
ag717
ag356
ag687
ag694
ag692
ag292
ag933
ag696
ag441
ag684
ag699
atp2762
Rp2763
sg18
I00
sg19
g698
ssg587
(dp2764
g3
g4
((lp2765
g642
ag71
ag640
ag69
ag636
ag637
ag638
ag643
ag645
ag589
ag591
ag1156
ag611
ag635
ag1540
ag517
ag530
ag644
ag486
ag504
ag584
ag588
ag485
atp2766
Rp2767
sg18
I00
sg19
g587
ssg1156
(dp2768
g3
g4
((lp2769
g587
ag1155
ag1161
ag611
ag1157
ag1324
ag1159
ag831
ag1045
ag1112
ag1540
ag517
ag530
ag1158
ag1104
ag1160
ag379
ag486
ag504
atp2770
Rp2771
sg18
I00
sg19
g1156
ssg611
(dp2772
g3
g4
((lp2773
g617
ag621
ag613
ag183
ag602
ag390
ag612
ag616
ag615
ag844
ag504
ag394
ag587
ag1156
ag614
ag601
ag1540
ag517
ag530
ag619
ag486
ag618
ag144
ag484
atp2774
Rp2775
sg18
I00
sg19
g611
ssg1992
(dp2776
g3
g4
((lp2777
g842
ag164
ag1024
ag1041
ag1061
ag1127
ag113
atp2778
Rp2779
sg18
I00
sg19
g1992
ssg187
(dp2780
g3
g4
((lp2781
g184
ag197
ag183
ag180
ag602
ag185
ag27
ag188
ag191
ag195
ag279
ag196
ag272
ag396
ag186
ag193
ag258
ag742
ag951
ag581
ag580
ag198
atp2782
Rp2783
sg18
I00
sg19
g187
ssg272
(dp2784
g3
g4
((lp2785
g774
ag993
ag269
ag187
ag994
ag995
ag263
ag258
ag742
ag917
ag280
ag581
ag951
ag309
atp2786
Rp2787
sg18
I00
sg19
g272
ssg763
(dp2788
g3
g4
((lp2789
g239
ag756
ag941
ag660
ag240
ag987
ag443
ag760
ag541
ag446
ag762
ag1587
ag752
ag765
ag757
atp2790
Rp2791
sg18
I00
sg19
g763
ssg57
(dp2792
g3
g4
((lp2793
g552
ag553
ag1299
ag1302
ag554
ag549
ag555
ag1303
ag59
ag1304
ag45
ag60
ag1171
atp2794
Rp2795
sg18
I00
sg19
g57
ssg113
(dp2796
g3
g4
((lp2797
g106
ag105
ag1024
ag251
ag842
ag693
ag101
ag1041
ag110
ag111
ag1061
ag1127
ag112
ag1992
ag1190
ag164
ag104
atp2798
Rp2799
sg18
I00
sg19
g113
ssg1540
(dp2800
g3
g4
((lp2801
g587
ag1156
ag611
ag1539
ag1488
ag517
ag530
ag486
ag504
ag1541
atp2802
Rp2803
sg18
I00
sg19
g1540
ssg517
(dp2804
g3
g4
((lp2805
g587
ag511
ag1085
ag1156
ag611
ag512
ag476
ag513
ag457
ag515
ag1540
ag530
ag461
ag516
ag518
ag519
ag486
ag504
ag520
atp2806
Rp2807
sg18
I00
sg19
g517
ssg530
(dp2808
g3
g4
((lp2809
g587
ag805
ag105
ag1156
ag611
ag526
ag477
ag252
ag1282
ag525
ag529
ag1540
ag517
ag531
ag528
ag486
ag504
atp2810
Rp2811
sg18
I00
sg19
g530
ssg258
(dp2812
g3
g4
((lp2813
g248
ag249
ag250
ag251
ag187
ag253
ag272
ag259
ag257
ag256
ag255
ag529
ag192
ag254
ag742
ag36
ag1443
ag118
ag260
ag951
ag581
atp2814
Rp2815
sg18
I00
sg19
g258
ssg742
(dp2816
g3
g4
((lp2817
g455
ag737
ag738
ag187
ag271
ag272
ag739
ag706
ag740
ag516
ag427
ag258
ag37
ag464
ag951
ag581
atp2818
Rp2819
sg18
I00
sg19
g742
ssg532
(dp2820
g3
g4
((lp2821
g553
ag89
ag477
ag1192
ag116
ag527
ag110
ag1189
ag1190
ag748
ag1191
ag260
atp2822
Rp2823
sg18
I00
sg19
g532
ssg486
(dp2824
g3
g4
((lp2825
g587
ag469
ag1156
ag611
ag930
ag474
ag1960
ag482
ag480
ag481
ag1540
ag517
ag530
ag487
ag950
ag473
ag504
atp2826
Rp2827
sg18
I00
sg19
g486
ssg951
(dp2828
g3
g4
((lp2829
g187
ag944
ag272
ag425
ag578
ag932
ag258
ag742
ag950
ag1961
ag581
atp2830
Rp2831
sg18
I00
sg19
g951
ssg581
(dp2832
g3
g4
((lp2833
g1353
ag187
ag947
ag272
ag573
ag1354
ag579
ag778
ag258
ag742
ag1355
ag951
atp2834
Rp2835
sg18
I00
sg19
g581
ssg552
(dp2836
g3
g4
((lp2837
g553
ag554
ag549
ag555
ag2105
ag57
ag1312
atp2838
Rp2839
sg18
I00
sg19
g552
ssg399
(dp2840
g3
g4
((lp2841
g386
ag387
ag400
ag388
ag389
ag392
ag393
ag394
ag194
ag395
ag396
ag600
ag319
ag397
ag398
ag619
ag391
ag364
ag370
ag852
ag346
ag436
ag465
ag1874
ag1071
ag410
ag2346
ag198
atp2842
Rp2843
sg18
I00
sg19
g399
ssg364
(dp2844
g3
g4
((lp2845
g352
ag134
ag356
ag357
ag315
ag359
ag358
ag353
ag1974
ag360
ag362
ag363
ag399
ag370
ag365
ag346
ag436
ag465
ag1071
ag410
ag2346
ag1874
atp2846
Rp2847
sg18
I00
sg19
g364
ssg370
(dp2848
g3
g4
((lp2849
g371
ag376
ag375
ag1040
ag1038
ag378
ag379
ag380
ag373
ag316
ag372
ag374
ag1045
ag381
ag399
ag364
ag1008
ag346
ag436
ag465
ag377
ag1071
ag410
ag2346
ag1874
atp2850
Rp2851
sg18
I00
sg19
g370
ssg1371
(dp2852
g3
g4
((lp2853
g1370
ag305
ag1983
ag1367
ag1818
ag278
ag334
ag811
aS'shh'
p2854
ag1373
atp2855
Rp2856
sg18
I00
sg19
g1371
ssg1296
(dp2857
g3
g4
((lp2858
g1291
ag345
ag270
ag1816
ag308
ag1817
ag1813
atp2859
Rp2860
sg18
I00
sg19
g1296
ssg346
(dp2861
g3
g4
((lp2862
g334
ag304
ag335
ag336
ag337
ag338
ag347
ag340
ag341
ag626
ag269
ag342
ag345
ag343
ag344
ag339
ag266
ag399
ag364
ag370
ag436
ag465
ag995
ag1071
ag410
ag2346
ag1874
atp2863
Rp2864
sg18
I00
sg19
g346
ssg2105
(dp2865
g3
g4
((lp2866
g552
ag1120
ag2102
aS'amu'
p2867
ag1312
atp2868
Rp2869
sg18
I00
sg19
g2105
ssg436
(dp2870
g3
g4
((lp2871
g432
ag433
ag434
ag447
ag435
ag437
ag438
ag441
ag442
ag539
ag443
ag444
ag445
ag328
ag399
ag364
ag370
ag765
ag242
ag346
ag465
ag1071
ag410
ag2346
ag1874
ag1013
atp2872
Rp2873
sg18
I00
sg19
g436
ssg465
(dp2874
g3
g4
((lp2875
g452
ag453
ag454
ag456
ag457
ag460
ag1088
ag462
ag459
ag513
ag463
ag464
ag329
ag399
ag364
ag370
ag740
ag346
ag436
ag1071
ag410
ag2346
ag1011
ag1874
ag466
atp2876
Rp2877
sg18
I00
sg19
g465
ssg811
(dp2878
g3
g4
((lp2879
g802
ag1371
ag809
ag257
ag2854
ag749
atp2880
Rp2881
sg18
I00
sg19
g811
ssg1312
(dp2882
g3
g4
((lp2883
g552
ag729
ag1309
ag1302
ag1310
ag2105
ag1311
ag1313
atp2884
Rp2885
sg18
I00
sg19
g1312
ssg1071
(dp2886
g3
g4
((lp2887
g399
ag364
ag370
ag346
ag436
ag465
ag1074
ag410
ag1010
ag2346
ag1874
atp2888
Rp2889
sg18
I00
sg19
g1071
ssg410
(dp2890
g3
g4
((lp2891
g502
ag413
ag399
ag411
ag364
ag370
ag407
ag408
ag346
ag436
ag465
ag406
ag1951
ag409
ag1071
ag222
ag2346
ag218
ag322
ag1874
ag415
atp2892
Rp2893
sg18
I00
sg19
g410
ssg2346
(dp2894
g3
g4
((lp2895
g399
ag364
ag370
ag1353
ag858
ag7
ag346
ag436
ag465
ag579
ag1071
ag410
ag663
ag1874
atp2896
Rp2897
sg18
I00
sg19
g2346
ssg1874
(dp2898
g3
g4
((lp2899
g1280
ag399
ag1786
ag364
ag370
ag1823
ag1871
ag1872
ag346
ag436
ag465
ag1873
ag1071
ag410
ag2346
atp2900
Rp2901
sg18
I00
sg19
g1874
ssg23
(dp2902
g3
g4
((lp2903
g42
ag184
ag25
ag20
ag231
ag257
ag32
ag33
ag30
ag35
ag424
ag41
ag918
ag213
ag38
ag1355
ag719
ag174
ag956
ag135
atp2904
Rp2905
sg18
I00
sg19
g23
ssg1254
(dp2906
g3
g4
((lp2907
g1253
ag143
ag726
ag1302
ag377
ag831
ag55
ag2130
ag59
ag1523
ag206
aS'arm'
p2908
ag1250
atp2909
Rp2910
sg18
I00
sg19
g1254
ssg143
(dp2911
g3
g4
((lp2912
g1254
ag144
ag53
ag145
ag146
ag2130
ag59
ag1523
ag147
ag148
ag14
ag206
ag2908
atp2913
Rp2914
sg18
I00
sg19
g143
ssg135
(dp2915
g3
g4
((lp2916
g23
ag1486
ag184
ag136
ag31
ag231
ag257
ag424
ag918
ag213
ag137
ag1355
ag956
atp2917
Rp2918
sg18
I00
sg19
g135
ssS'ebb'
p2919
(dp2920
g3
g4
((lp2921
tp2922
Rp2923
sg18
I00
sg19
g2919
ssg598
(dp2924
g3
g4
((lp2925
g1950
ag597
ag596
ag599
ag1242
ag600
ag601
ag604
ag605
ag603
ag580
ag850
ag196
ag822
ag618
ag606
atp2926
Rp2927
sg18
I00
sg19
g598
ssg1242
(dp2928
g3
g4
((lp2929
g1241
ag1038
ag598
ag1950
ag1243
ag664
ag822
ag1044
atp2930
Rp2931
sg18
I00
sg19
g1242
ssg242
(dp2932
g3
g4
((lp2933
g222
ag190
ag1353
ag240
ag241
ag539
ag243
ag740
ag256
ag436
ag995
ag24
ag765
ag198
ag1013
atp2934
Rp2935
sg18
I00
sg19
g242
ssg1950
(dp2936
g3
g4
((lp2937
g220
ag883
ag495
ag807
ag1948
ag1949
ag577
ag1242
ag1951
ag704
ag405
ag1939
ag822
ag598
atp2938
Rp2939
sg18
I00
sg19
g1950
ssg257
(dp2940
g3
g4
((lp2941
g23
ag184
ag135
ag253
ag255
ag809
ag231
ag424
ag918
ag213
ag1355
ag956
ag802
ag249
ag251
ag254
ag192
ag259
ag36
ag118
ag248
ag250
ag258
ag256
ag811
ag260
atp2942
Rp2943
sg18
I00
sg19
g257
ssg2130
(dp2944
g3
g4
((lp2945
g1254
ag143
ag48
ag59
ag1523
ag206
ag2908
atp2946
Rp2947
sg18
I00
sg19
g2130
ssg424
(dp2948
g3
g4
((lp2949
g23
ag184
ag135
ag859
ag231
ag1488
ag257
ag918
ag213
ag418
ag1355
ag956
atp2950
Rp2951
sg18
I00
sg19
g424
ssg59
(dp2952
g3
g4
((lp2953
g86
ag1254
ag143
ag88
ag89
ag90
ag9
ag45
ag60
ag91
ag57
ag2130
ag1523
ag87
ag92
ag93
ag206
ag2908
ag94
atp2954
Rp2955
sg18
I00
sg19
g59
ssg1523
(dp2956
g3
g4
((lp2957
g1254
ag143
ag1518
ag2130
ag59
ag206
ag2908
atp2958
Rp2959
sg18
I00
sg19
g1523
ssg213
(dp2960
g3
g4
((lp2961
g23
ag184
ag135
ag211
ag212
ag1568
ag257
ag424
ag918
ag1355
ag956
ag215
ag807
ag216
ag34
ag217
ag501
ag219
ag221
ag1569
ag231
ag222
ag223
atp2962
Rp2963
sg18
I00
sg19
g213
ssg206
(dp2964
g3
g4
((lp2965
g1254
ag143
aS'irk'
p2966
ag201
ag2130
ag59
ag1523
ag204
ag2908
atp2967
Rp2968
sg18
I00
sg19
g206
ssg822
(dp2969
g3
g4
((lp2970
g690
ag806
ag818
ag568
ag565
ag661
ag866
ag1242
ag291
ag1950
ag290
ag819
ag820
ag821
ag764
ag598
atp2971
Rp2972
sg18
I00
sg19
g822
ssg2908
(dp2973
g3
g4
((lp2974
g1254
ag143
ag481
ag2130
ag59
ag1523
ag206
atp2975
Rp2976
sg18
I00
sg19
g2908
ssg956
(dp2977
g3
g4
((lp2978
g23
ag184
ag135
ag912
ag1409
ag231
ag777
ag257
ag423
ag424
ag918
ag213
ag1355
ag1372
atp2979
Rp2980
sg18
I00
sg19
g956
ssg250
(dp2981
g3
g4
((lp2982
g258
ag253
ag255
ag1189
ag257
ag526
ag249
ag251
ag254
ag192
ag259
ag36
ag118
ag908
ag248
ag737
ag240
ag912
ag913
ag193
ag915
ag916
ag233
ag917
ag256
ag260
atp2983
Rp2984
sg18
I00
sg19
g250
ssg596
(dp2985
g3
g4
((lp2986
g597
ag395
ag1241
ag1723
ag599
ag598
ag604
ag600
ag848
ag601
ag186
ag762
ag603
ag580
ag949
ag1939
ag605
ag606
atp2987
Rp2988
sg18
I00
sg19
g596
ssg1241
(dp2989
g3
g4
((lp2990
g596
ag373
ag1243
ag1038
ag1242
ag1723
ag762
ag949
ag1160
ag1939
ag664
atp2991
Rp2992
sg18
I00
sg19
g1241
ssg987
(dp2993
g3
g4
((lp2994
g755
ag326
ag763
ag233
ag988
ag1587
atp2995
Rp2996
sg18
I00
sg19
g987
ssg842
(dp2997
g3
g4
((lp2998
g846
ag617
ag1041
ag115
ag164
ag1024
ag843
ag1061
ag1127
ag845
ag195
ag113
ag279
ag393
ag847
ag1992
ag848
ag849
ag850
ag851
ag852
ag844
ag620
ag853
atp2999
Rp3000
sg18
I00
sg19
g842
ssg164
(dp3001
g3
g4
((lp3002
g28
ag165
ag172
ag174
ag114
ag842
ag1024
ag1041
ag171
ag1061
ag1127
ag173
ag1992
ag697
ag113
ag169
ag168
ag175
ag176
ag166
ag170
ag177
atp3003
Rp3004
sg18
I00
sg19
g164
ssg378
(dp3005
g3
g4
((lp3006
g1122
ag373
ag375
ag406
ag370
ag371
ag316
ag372
ag380
ag374
ag1112
ag376
ag377
ag379
ag1406
ag720
ag194
ag381
atp3007
Rp3008
sg18
I00
sg19
g378
ssg109
(dp3009
g3
g4
((lp3010
g1085
ag741
ag1083
ag1087
ag271
ag107
ag108
ag452
ag115
ag101
ag1086
ag1090
ag1084
ag114
ag1011
ag519
ag427
ag1089
atp3011
Rp3012
sg18
I00
sg19
g109
ssg197
(dp3013
g3
g4
((lp3014
g183
aS'yeh'
p3015
ag180
ag184
ag185
ag187
ag911
ag212
ag27
ag188
ag186
ag191
ag193
ag41
ag195
ag73
ag196
ag1323
ag198
atp3016
Rp3017
sg18
I00
sg19
g197
ssg1723
(dp3018
g3
g4
((lp3019
g596
ag1241
ag762
ag659
ag514
ag515
ag785
ag458
ag1392
ag463
ag1429
ag949
ag1939
ag1088
ag1089
atp3020
Rp3021
sg18
I00
sg19
g1723
ssg762
(dp3022
g3
g4
((lp3023
g596
ag756
ag757
ag1241
ag446
ag660
ag760
ag545
ag541
ag1723
ag239
ag444
ag763
ag949
ag1939
ag1098
ag765
ag752
atp3024
Rp3025
sg18
I00
sg19
g762
ssg2966
(dp3026
g3
g4
((lp3027
g206
ag2586
ag60
aS'ilk'
p3028
atp3029
Rp3030
sg18
I00
sg19
g2966
ssg645
(dp3031
g3
g4
((lp3032
g587
ag512
ag635
ag636
ag637
ag890
ag498
ag638
ag675
ag642
ag640
ag643
ag71
ag73
ag644
ag485
atp3033
Rp3034
sg18
I00
sg19
g645
ssg705
(dp3035
g3
g4
((lp3036
g908
ag1219
ag211
ag911
ag706
ag255
ag914
ag243
ag918
ag40
ag42
atp3037
Rp3038
sg18
I00
sg19
g705
ssg153
(dp3039
g3
g4
((lp3040
g1032
ag52
atp3041
Rp3042
sg18
I00
sg19
g153
ssg2045
(dp3043
g3
g4
((lp3044
g219
ag241
ag914
ag993
ag232
ag426
aS'kif'
p3045
ag75
atp3046
Rp3047
sg18
I00
sg19
g2045
ssg949
(dp3048
g3
g4
((lp3049
g596
ag473
ag1241
ag884
ag944
ag1960
ag808
ag578
ag1723
ag762
ag948
ag1962
ag935
ag1939
ag1587
atp3050
Rp3051
sg18
I00
sg19
g949
ssg1939
(dp3052
g3
g4
((lp3053
g405
ag220
ag883
ag1241
ag495
ag596
ag807
ag1948
ag221
ag1949
ag577
ag1950
ag1723
ag762
ag1951
ag1925
ag704
ag949
ag415
atp3054
Rp3055
sg18
I00
sg19
g1939
ssg60
(dp3056
g3
g4
((lp3057
g45
ag57
ag2966
ag59
aS'ice'
p3058
atp3059
Rp3060
sg18
I00
sg19
g60
ssg755
(dp3061
g3
g4
((lp3062
g987
ag327
ag599
ag759
ag704
ag764
ag758
ag752
atp3063
Rp3064
sg18
I00
sg19
g755
ssg219
(dp3065
g3
g4
((lp3066
g222
ag993
ag211
ag212
ag215
ag2045
ag221
ag216
ag914
ag241
ag34
ag503
ag223
ag232
ag213
ag217
ag75
atp3067
Rp3068
sg18
I00
sg19
g219
ssg221
(dp3069
g3
g4
((lp3070
g219
ag222
ag211
ag186
ag944
ag947
ag212
ag34
ag216
ag215
ag30
ag1925
ag223
ag213
ag217
ag1939
ag415
atp3071
Rp3072
sg18
I00
sg19
g221
ssg847
(dp3073
g3
g4
((lp3074
g851
ag185
ag169
ag277
ag846
ag842
ag852
ag844
ag843
ag848
ag849
ag292
ag845
ag112
ag603
ag1097
ag850
ag279
ag115
ag620
ag853
atp3075
Rp3076
sg18
I00
sg19
g847
ssg169
(dp3077
g3
g4
((lp3078
g847
ag25
ag166
ag114
ag717
ag164
ag168
ag165
ag170
ag171
ag292
ag172
ag112
ag174
ag1097
ag175
ag277
ag176
ag28
ag177
ag173
atp3079
Rp3080
sg18
I00
sg19
g169
ssg241
(dp3081
g3
g4
((lp3082
g219
ag240
ag2045
ag242
ag914
ag243
ag190
ag993
ag232
ag24
ag75
atp3083
Rp3084
sg18
I00
sg19
g241
ssg277
(dp3085
g3
g4
((lp3086
g266
ag268
ag847
ag337
ag270
ag169
ag274
ag292
ag263
ag112
ag1097
ag278
ag281
atp3087
Rp3088
sg18
I00
sg19
g277
ssg599
(dp3089
g3
g4
((lp3090
g386
ag596
ag597
ag603
ag758
ag598
ag755
ag843
ag601
ag759
ag616
ag600
ag704
ag580
ag604
ag764
ag606
ag605
ag752
atp3091
Rp3092
sg18
I00
sg19
g599
ssg914
(dp3093
g3
g4
((lp3094
g219
ag918
ag911
ag908
ag241
ag2045
ag1072
ag993
ag232
ag705
ag40
ag75
atp3095
Rp3096
sg18
I00
sg19
g914
ssg729
(dp3097
g3
g4
((lp3098
g654
ag727
ag723
ag55
ag1312
ag730
ag732
atp3099
Rp3100
sg18
I00
sg19
g729
ssg759
(dp3101
g3
g4
((lp3102
g755
ag1341
ag758
ag599
ag704
ag764
ag752
atp3103
Rp3104
sg18
I00
sg19
g759
ssg292
(dp3105
g3
g4
((lp3106
g287
ag288
ag561
ag296
ag169
ag277
ag107
ag291
ag275
ag293
ag847
ag112
ag294
ag1097
ag289
ag297
ag698
atp3107
Rp3108
sg18
I00
sg19
g292
ssg112
(dp3109
g3
g4
((lp3110
g106
ag105
ag847
ag169
ag277
ag259
ag101
ag110
ag111
ag292
ag1097
ag113
ag104
atp3111
Rp3112
sg18
I00
sg19
g112
ssg993
(dp3113
g3
g4
((lp3114
g774
ag219
ag241
ag2045
ag272
ag994
ag914
ag995
ag232
ag917
ag344
ag75
ag309
atp3115
Rp3116
sg18
I00
sg19
g993
ssg1097
(dp3117
g3
g4
((lp3118
g941
ag1095
ag1096
ag847
ag757
ag538
ag277
ag169
ag540
ag292
ag439
ag112
ag1099
ag441
ag1098
ag761
ag1013
atp3119
Rp3120
sg18
I00
sg19
g1097
ssg764
(dp3121
g3
g4
((lp3122
g704
ag755
ag806
ag818
ag290
ag565
ag599
ag661
ag759
ag819
ag820
ag696
ag821
ag758
ag822
ag752
atp3123
Rp3124
sg18
I00
sg19
g764
ssg930
(dp3125
g3
g4
((lp3126
g929
ag927
ag1280
ag1281
ag457
ag1282
ag438
ag931
ag347
ag933
ag1960
ag591
ag950
ag379
ag394
ag936
ag718
ag928
ag483
ag932
ag486
ag683
atp3127
Rp3128
sg18
I00
sg19
g930
ssg681
(dp3129
g3
g4
((lp3130
g667
ag72
ag889
ag1023
ag674
ag1025
ag1024
ag1027
ag589
ag1026
ag1022
ag1037
ag851
ag166
ag1006
ag1007
aS'coz'
p3131
ag270
ag293
ag1090
ag1099
ag2658
ag1065
ag905
atp3132
Rp3133
sg18
I00
sg19
g681
ssg1037
(dp3134
g3
g4
((lp3135
g681
ag3131
ag851
ag166
ag270
ag1007
ag1008
ag1041
ag1042
ag293
ag1090
ag1099
ag1043
ag1039
ag1044
ag2658
ag1065
ag905
atp3136
Rp3137
sg18
I00
sg19
g1037
ssg652
(dp3138
g3
g4
((lp3139
g730
ag1311
ag653
ag648
ag1554
atp3140
Rp3141
sg18
I00
sg19
g652
ssg851
(dp3142
g3
g4
((lp3143
g846
ag853
ag115
ag597
ag842
ag843
ag844
ag845
ag279
ag847
ag848
ag849
ag850
ag681
ag1037
ag166
ag270
ag1007
ag3131
ag852
ag400
ag1065
ag293
ag1090
ag1099
ag2658
ag620
ag905
atp3144
Rp3145
sg18
I00
sg19
g851
ssg166
(dp3146
g3
g4
((lp3147
g28
ag172
ag174
ag114
ag164
ag165
ag171
ag173
ag175
ag169
ag168
ag2658
ag176
ag681
ag1037
ag851
ag270
ag1007
ag3131
ag682
ag170
ag293
ag1090
ag1099
ag177
ag1065
ag905
atp3148
Rp3149
sg18
I00
sg19
g166
ssg270
(dp3150
g3
g4
((lp3151
g266
ag1037
ag1296
ag851
ag166
ag681
ag1007
ag3131
ag345
ag274
ag293
ag263
ag1090
ag1099
ag277
ag278
ag268
ag281
ag2658
ag1065
ag905
atp3152
Rp3153
sg18
I00
sg19
g270
ssg1007
(dp3154
g3
g4
((lp3155
g1002
ag681
ag1037
ag851
ag166
ag1005
ag270
ag3131
ag318
ag276
ag293
ag1090
ag1099
ag1012
ag988
ag234
ag2658
ag1065
ag905
atp3156
Rp3157
sg18
I00
sg19
g1007
ssg8
(dp3158
g3
g4
((lp3159
g1
ag3028
ag6
atp3160
Rp3161
sg18
I00
sg19
g8
ssS'elm'
p3162
(dp3163
g3
g4
((lp3164
S'elk'
p3165
ag2567
ag1507
ag6
ag1313
atp3166
Rp3167
sg18
I00
sg19
g3162
ssg3028
(dp3168
g3
g4
((lp3169
g3165
ag8
ag2966
ag2586
atp3170
Rp3171
sg18
I00
sg19
g3028
ssg677
(dp3172
g3
g4
((lp3173
g670
ag1024
ag671
ag672
ag673
ag68
ag413
ag437
ag693
ag456
ag687
ag676
ag675
ag340
ag325
ag697
ag393
ag380
ag358
ag678
ag679
ag591
ag641
ag680
ag667
atp3174
Rp3175
sg18
I00
sg19
g677
ssg496
(dp3176
g3
g4
((lp3177
g502
ag538
ag472
ag561
ag214
ag493
ag497
ag498
ag1949
ag494
ag499
ag506
ag503
ag492
ag500
ag414
ag501
ag504
atp3178
Rp3179
sg18
I00
sg19
g496
ssg1360
(dp3180
g3
g4
((lp3181
g81
aS'uta'
p3182
ag1171
atp3183
Rp3184
sg18
I00
sg19
g1360
ssg1090
(dp3185
g3
g4
((lp3186
g1083
ag109
ag1084
ag1085
ag271
ag1086
ag1392
ag741
ag1087
ag1089
ag681
ag1037
ag851
ag166
ag270
ag1007
ag3131
ag293
ag1099
ag905
ag1011
ag2658
ag1065
ag466
atp3187
Rp3188
sg18
I00
sg19
g1090
ssg1099
(dp3189
g3
g4
((lp3190
g941
ag681
ag1037
ag1096
ag851
ag166
ag439
ag270
ag1007
ag3131
ag540
ag761
ag1095
ag293
ag1090
ag1097
ag1013
ag1098
ag2658
ag1065
ag905
atp3191
Rp3192
sg18
I00
sg19
g1099
ssg81
(dp3193
g3
g4
((lp3194
g1845
ag78
ag1360
atp3195
Rp3196
sg18
I00
sg19
g81
ssg1372
(dp3197
g3
g4
((lp3198
g1409
ag1367
ag956
atp3199
Rp3200
sg18
I00
sg19
g1372
ssg2658
(dp3201
g3
g4
((lp3202
g681
ag1037
ag851
ag166
ag270
ag1007
ag3131
ag1967
ag662
ag293
ag1090
ag1099
ag1468
ag1352
ag1065
ag905
atp3203
Rp3204
sg18
I00
sg19
g2658
ssg1065
(dp3205
g3
g4
((lp3206
g681
ag1037
ag1059
ag851
ag166
ag270
ag1007
ag3131
ag267
ag1060
ag1061
ag293
ag1062
ag1090
ag1099
ag1009
ag1063
ag1064
ag2658
ag905
atp3207
Rp3208
sg18
I00
sg19
g1065
ssg905
(dp3209
g3
g4
((lp3210
g1132
ag1568
ag1921
ag1127
ag707
ag412
ag1090
ag1924
ag1925
ag681
ag1037
ag505
ag851
ag166
ag270
ag1007
ag3131
ag1383
ag293
ag409
ag1099
ag2658
ag1065
atp3211
Rp3212
sg18
I00
sg19
g905
ssg704
(dp3213
g3
g4
((lp3214
g755
ag220
ag883
ag495
ag211
ag758
ag807
ag1948
ag1949
ag577
ag1950
ag759
ag499
ag707
ag405
ag1951
ag411
ag1939
ag599
ag764
ag752
atp3215
Rp3216
sg18
I00
sg19
g704
ssg1005
(dp3217
g3
g4
((lp3218
g1002
ag2570
ag234
ag320
ag1007
ag846
ag318
ag72
ag1603
ag662
ag276
ag1270
ag2704
ag1012
ag988
ag28
ag1084
atp3219
Rp3220
sg18
I00
sg19
g1005
ssg432
(dp3221
g3
g4
((lp3222
g452
ag408
ag433
ag929
ag1481
ag1872
ag167
ag387
ag447
ag376
ag671
ag544
ag323
ag335
ag435
ag437
ag438
ag441
ag442
ag434
ag443
ag760
ag444
ag445
ag328
ag436
atp3223
Rp3224
sg18
I00
sg19
g432
ssg2567
(dp3225
g3
g4
((lp3226
g3165
ag6
ag3162
ag1507
ag1313
ag1522
atp3227
Rp3228
sg18
I00
sg19
g2567
ssg846
(dp3229
g3
g4
((lp3230
g1005
ag28
ag72
ag850
ag662
ag853
ag1270
ag2704
ag1084
ag613
ag389
ag27
ag115
ag843
ag844
ag845
ag279
ag847
ag848
ag849
ag604
ag1146
ag851
ag852
ag842
ag620
atp3231
Rp3232
sg18
I00
sg19
g846
ssg232
(dp3233
g3
g4
((lp3234
g228
ag219
ag230
ag241
ag2045
ag229
ag914
ag231
ag189
ag993
ag233
ag75
atp3235
Rp3236
sg18
I00
sg19
g232
ssg72
(dp3237
g3
g4
((lp3238
g68
ag681
ag1023
ag589
ag1005
ag1006
ag28
ag846
ag1022
ag29
ag662
ag1024
ag889
ag1027
ag1270
ag2704
ag71
ag1026
ag1084
ag74
ag1025
atp3239
Rp3240
sg18
I00
sg19
g72
ssg216
(dp3241
g3
g4
((lp3242
g212
ag219
ag222
ag211
ag251
ag739
ag215
ag492
ag221
ag34
ag1127
ag695
ag223
ag195
ag213
ag217
ag413
atp3243
Rp3244
sg18
I00
sg19
g216
ssg662
(dp3245
g3
g4
((lp3246
g576
ag1005
ag1352
ag28
ag846
ag1468
ag1967
ag72
ag1270
ag2704
ag1084
ag663
ag2658
atp3247
Rp3248
sg18
I00
sg19
g662
ssg1146
(dp3249
g3
g4
((lp3250
g1207
ag389
ag27
ag846
ag604
ag613
atp3251
Rp3252
sg18
I00
sg19
g1146
ssg2704
(dp3253
g3
g4
((lp3254
g1207
aS'psi'
p3255
ag1005
ag28
ag846
ag72
ag662
ag1270
ag1084
atp3256
Rp3257
sg18
I00
sg19
g2704
ssg1084
(dp3258
g3
g4
((lp3259
g1085
ag1086
ag1083
ag1005
ag1087
ag271
ag846
ag28
ag109
ag72
ag659
ag662
ag460
ag1090
ag1270
ag2704
ag37
ag1011
ag741
ag1089
atp3260
Rp3261
sg18
I00
sg19
g1084
ssg1341
(dp3262
g3
g4
((lp3263
g495
aS'duo'
p3264
ag565
ag2667
ag514
ag527
ag541
ag777
ag759
ag639
atp3265
Rp3266
sg18
I00
sg19
g1341
ssg336
(dp3267
g3
g4
((lp3268
g345
ag304
ag1873
ag269
ag337
ag342
ag338
ag714
ag675
ag346
ag931
ag347
ag334
ag1884
ag343
ag340
ag344
ag357
ag339
ag341
ag335
atp3269
Rp3270
sg18
I00
sg19
g336
ssg495
(dp3271
g3
g4
((lp3272
g1950
ag1341
ag3264
ag807
ag565
ag2667
ag514
ag527
ag541
ag639
ag1939
ag220
ag883
ag1948
ag1949
ag1951
ag704
ag472
ag505
ag577
ag223
ag405
atp3273
Rp3274
sg18
I00
sg19
g495
ssg3264
(dp3275
g3
g4
((lp3276
g1341
ag495
ag565
ag2667
ag514
ag527
ag541
ag639
atp3277
Rp3278
sg18
I00
sg19
g3264
ssg565
(dp3279
g3
g4
((lp3280
g661
ag1341
ag806
ag495
ag563
ag3264
ag290
ag2667
ag514
ag527
ag479
ag541
ag639
ag819
ag820
ag821
ag570
ag822
ag764
ag818
atp3281
Rp3282
sg18
I00
sg19
g565
ssg2667
(dp3283
g3
g4
((lp3284
g1341
ag495
ag3264
ag2653
ag565
ag514
ag527
ag541
ag639
atp3285
Rp3286
sg18
I00
sg19
g2667
ssg514
(dp3287
g3
g4
((lp3288
g462
ag1341
ag495
ag3264
ag476
ag565
ag2667
ag659
ag527
ag541
ag1723
ag458
ag1392
ag1429
ag639
ag785
ag1088
atp3289
Rp3290
sg18
I00
sg19
g514
ssg527
(dp3291
g3
g4
((lp3292
g1341
ag802
ag117
ag495
ag3264
ag477
ag565
ag2667
ag514
ag110
ag810
ag639
ag532
ag813
ag541
ag260
ag805
atp3293
Rp3294
sg18
I00
sg19
g527
ssg541
(dp3295
g3
g4
((lp3296
g1341
ag760
ag478
ag757
ag495
ag3264
ag565
ag2667
ag514
ag527
ag660
ag540
ag446
ag762
ag442
ag763
ag639
ag756
ag239
ag765
ag752
atp3297
Rp3298
sg18
I00
sg19
g541
ssg931
(dp3299
g3
g4
((lp3300
g928
ag1830
ag1884
ag336
ag930
ag483
ag714
ag929
ag675
ag357
ag932
ag933
ag1873
ag683
ag927
ag936
atp3301
Rp3302
sg18
I00
sg19
g931
ssg859
(dp3303
g3
g4
((lp3304
g321
ag672
ag858
ag692
ag434
ag334
ag809
ag453
ag1488
ag1592
ag1633
ag424
ag1586
ag719
ag860
ag388
atp3305
Rp3306
sg18
I00
sg19
g859
ssg1059
(dp3307
g3
g4
((lp3308
g1827
ag267
ag1269
ag1087
ag1063
ag1096
ag1060
ag291
ag1064
ag1061
ag1062
ag1832
ag1009
ag850
ag176
ag1065
ag1044
atp3309
Rp3310
sg18
I00
sg19
g1059
ssg1873
(dp3311
g3
g4
((lp3312
g1280
ag3015
ag336
ag714
ag1823
ag1871
ag1872
ag675
ag931
ag1884
ag1786
ag357
ag1874
atp3313
Rp3314
sg18
I00
sg19
g1873
ssg1884
(dp3315
g3
g4
((lp3316
g336
ag714
ag1883
ag675
ag357
ag931
ag205
ag1873
ag1824
atp3317
Rp3318
sg18
I00
sg19
g1884
ssg639
(dp3319
g3
g4
((lp3320
g1341
ag2667
ag495
ag674
ag758
ag74
ag565
ag3264
ag514
ag527
ag541
ag890
ag641
ag812
ag588
ag485
atp3321
Rp3322
sg18
I00
sg19
g639
ssg308
(dp3323
g3
g4
((lp3324
g1291
ag301
ag304
ag1296
ag2417
ag274
ag1816
ag1813
ag1817
ag309
atp3325
Rp3326
sg18
I00
sg19
g308
ssg75
(dp3327
g3
g4
((lp3328
g219
ag69
ag73
ag241
ag2045
ag70
ag635
ag29
ag914
ag993
ag232
ag1026
atp3329
Rp3330
sg18
I00
sg19
g75
ssg1291
(dp3331
g3
g4
((lp3332
g774
ag1296
ag1816
ag308
ag1817
ag339
ag1813
atp3333
Rp3334
sg18
I00
sg19
g1291
ssg269
(dp3335
g3
g4
((lp3336
g334
ag1443
ag335
ag336
ag337
ag338
ag339
ag347
ag263
ag340
ag341
ag304
ag342
ag272
ag396
ag372
ag360
ag679
ag407
ag932
ag579
ag343
ag445
ag344
ag464
ag699
ag345
ag346
ag280
atp3337
Rp3338
sg18
I00
sg19
g269
ssg239
(dp3339
g3
g4
((lp3340
g756
ag757
ag446
ag660
ag760
ag541
ag190
ag762
ag763
ag765
ag752
atp3341
Rp3342
sg18
I00
sg19
g239
ssg434
(dp3343
g3
g4
((lp3344
g432
ag858
ag859
ag692
ag809
ag453
ag334
ag321
ag672
ag719
ag860
ag388
ag435
ag437
ag438
ag433
ag441
ag442
ag443
ag444
ag445
ag328
ag436
ag447
atp3345
Rp3346
sg18
I00
sg19
g434
ssg396
(dp3347
g3
g4
((lp3348
g386
ag445
ag387
ag388
ag602
ag389
ag391
ag392
ag279
ag393
ag394
ag194
ag395
ag269
ag187
ag372
ag360
ag319
ag679
ag407
ag932
ag579
ag397
ag398
ag1443
ag464
ag699
ag399
ag400
ag580
atp3349
Rp3350
sg18
I00
sg19
g396
ssg372
(dp3351
g3
g4
((lp3352
g371
ag376
ag375
ag378
ag379
ag380
ag373
ag269
ag316
ag396
ag360
ag679
ag374
ag407
ag932
ag579
ag445
ag1443
ag464
ag699
ag381
ag370
ag377
atp3353
Rp3354
sg18
I00
sg19
g372
ssg360
(dp3355
g3
g4
((lp3356
g352
ag134
ag464
ag356
ag357
ag359
ag358
ag282
ag353
ag269
ag315
ag396
ag372
ag679
ag407
ag932
ag579
ag445
ag1443
ag362
ag699
ag363
ag364
ag365
atp3357
Rp3358
sg18
I00
sg19
g360
ssg679
(dp3359
g3
g4
((lp3360
g670
ag671
ag672
ag673
ag68
ag637
ag675
ag676
ag591
ag677
ag678
ag269
ag396
ag372
ag360
ag407
ag932
ag579
ag641
ag590
ag445
ag1443
ag464
ag680
ag699
ag667
atp3361
Rp3362
sg18
I00
sg19
g679
ssg407
(dp3363
g3
g4
((lp3364
g408
ag411
ag413
ag406
ag500
ag218
ag269
ag396
ag372
ag360
ag679
ag932
ag579
ag322
ag445
ag1443
ag464
ag699
ag415
ag577
ag409
ag410
atp3365
Rp3366
sg18
I00
sg19
g407
ssg932
(dp3367
g3
g4
((lp3368
g929
ag927
ag930
ag931
ag933
ag936
ag928
ag269
ag483
ag1961
ag396
ag372
ag360
ag679
ag407
ag579
ag445
ag1443
ag464
ag699
ag951
ag578
ag683
atp3369
Rp3370
sg18
I00
sg19
g932
ssg579
(dp3371
g3
g4
((lp3372
g573
ag269
ag858
ag7
ag396
ag372
ag360
ag699
ag679
ag407
ag932
ag445
ag1443
ag464
ag663
ag2346
ag581
atp3373
Rp3374
sg18
I00
sg19
g579
ssg809
(dp3375
g3
g4
((lp3376
g802
ag257
ag900
ag865
ag859
ag692
ag693
ag858
ag434
ag1282
ag453
ag747
ag334
ag321
ag1442
ag811
ag1443
ag672
ag719
ag860
ag388
atp3377
Rp3378
sg18
I00
sg19
g809
ssg1313
(dp3379
g3
g4
((lp3380
g3165
ag1302
ag1309
ag6
ag3162
ag1310
ag2567
ag1507
ag1311
ag1312
atp3381
Rp3382
sg18
I00
sg19
g1313
ssg445
(dp3383
g3
g4
((lp3384
g432
ag433
ag434
ag447
ag699
ag435
ag437
ag438
ag542
ag441
ag442
ag269
ag396
ag372
ag360
ag679
ag407
ag932
ag579
ag444
ag1443
ag464
ag328
ag443
ag436
atp3385
Rp3386
sg18
I00
sg19
g445
ssg675
(dp3387
g3
g4
((lp3388
g670
ag671
ag73
ag672
ag673
ag68
ag336
ag714
ag357
ag931
ag676
ag1873
ag1884
ag591
ag645
ag678
ag679
ag641
ag680
ag890
ag667
ag677
atp3389
Rp3390
sg18
I00
sg19
g675
ssg1443
(dp3391
g3
g4
((lp3392
g529
ag900
ag269
ag865
ag1282
ag693
ag396
ag372
ag360
ag809
ag679
ag747
ag407
ag932
ag579
ag1442
ag258
ag445
ag464
ag699
atp3393
Rp3394
sg18
I00
sg19
g1443
ssg464
(dp3395
g3
g4
((lp3396
g452
ag453
ag454
ag271
ag456
ag457
ag516
ag460
ag462
ag269
ag459
ag396
ag372
ag360
ag679
ag407
ag932
ag579
ag463
ag742
ag445
ag1443
ag699
ag329
ag465
ag466
atp3397
Rp3398
sg18
I00
sg19
g464
ssg699
(dp3399
g3
g4
((lp3400
g692
ag696
ag690
ag563
ag687
ag275
ag569
ag698
ag691
ag269
ag396
ag372
ag360
ag694
ag679
ag407
ag932
ag579
ag445
ag1443
ag464
ag684
atp3401
Rp3402
sg18
I00
sg19
g699
ssg361
(dp3403
g3
g4
((lp3404
g354
ag1318
ag355
ag1974
ag446
ag458
ag819
ag315
ag1971
ag405
ag137
ag138
atp3405
Rp3406
sg18
I00
sg19
g361
ssg305
(dp3407
g3
g4
((lp3408
g301
ag1370
ag1371
ag1367
ag307
ag334
ag278
ag1373
atp3409
Rp3410
sg18
I00
sg19
g305
ssS'gnu'
p3411
(dp3412
g3
g4
((lp3413
tp3414
Rp3415
sg18
I00
sg19
g3411
ssg144
(dp3416
g3
g4
((lp3417
g143
ag145
ag146
ag617
ag621
ag14
ag613
ag602
ag390
ag612
ag616
ag615
ag148
ag611
ag614
ag619
ag618
ag831
ag832
ag481
ag12
ag506
ag147
ag484
ag518
atp3418
Rp3419
sg18
I00
sg19
g144
ssg334
(dp3420
g3
g4
((lp3421
g1370
ag858
ag859
ag692
ag434
ag809
ag453
ag321
ag278
ag672
ag719
ag860
ag388
ag336
ag337
ag338
ag1367
ag347
ag340
ag335
ag304
ag269
ag342
ag343
ag344
ag339
ag345
ag341
ag305
ag1371
ag346
ag1373
atp3422
Rp3423
sg18
I00
sg19
g334
ssg831
(dp3424
g3
g4
((lp3425
g1253
ag1155
ag1156
ag1254
ag726
ag1112
ag144
ag1159
ag1157
ag832
ag481
ag12
ag506
ag1104
ag377
ag1158
ag518
ag1160
ag1161
ag1045
ag1250
atp3426
Rp3427
sg18
I00
sg19
g831
ssg832
(dp3428
g3
g4
((lp3429
g354
ag1486
ag144
ag831
ag481
ag12
ag506
ag518
ag1597
atp3430
Rp3431
sg18
I00
sg19
g832
ssg481
(dp3432
g3
g4
((lp3433
g469
ag486
ag474
ag144
ag482
ag831
ag832
ag480
ag12
ag506
ag518
ag473
ag2908
ag487
atp3434
Rp3435
sg18
I00
sg19
g481
ssg446
(dp3436
g3
g4
((lp3437
g239
ag760
ag756
ag361
ag757
ag660
ag762
ag328
ag541
ag458
ag439
ag819
ag440
ag763
ag405
ag765
ag752
atp3438
Rp3439
sg18
I00
sg19
g446
ssg458
(dp3440
g3
g4
((lp3441
g455
ag361
ag1723
ag659
ag514
ag785
ag446
ag1392
ag819
ag1088
ag461
ag1429
ag405
ag329
atp3442
Rp3443
sg18
I00
sg19
g458
ssg506
(dp3444
g3
g4
((lp3445
g214
ag492
ag493
ag494
ag496
ag497
ag498
ag499
ag500
ag414
ag501
ag502
ag1717
ag503
ag504
ag472
ag144
ag831
ag832
ag481
ag12
ag518
atp3446
Rp3447
sg18
I00
sg19
g506
ssg819
(dp3448
g3
g4
((lp3449
g405
ag361
ag806
ag818
ag290
ag565
ag661
ag567
ag446
ag458
ag820
ag294
ag821
ag764
ag822
atp3450
Rp3451
sg18
I00
sg19
g819
ssg405
(dp3452
g3
g4
((lp3453
g220
ag361
ag704
ag495
ag215
ag807
ag1948
ag1949
ag577
ag1950
ag446
ag458
ag819
ag883
ag1951
ag322
ag412
ag1939
ag414
atp3454
Rp3455
sg18
I00
sg19
g405
ssg518
(dp3456
g3
g4
((lp3457
g1506
ag511
ag512
ag476
ag144
ag513
ag515
ag831
ag832
ag481
ag12
ag783
ag506
ag517
ag461
ag516
ag519
ag520
atp3458
Rp3459
sg18
I00
sg19
g518
ssg2430
(dp3460
g3
g4
((lp3461
g126
ag159
ag2867
ag2387
atp3462
Rp3463
sg18
I00
sg19
g2430
ssg3131
(dp3464
g3
g4
((lp3465
g681
ag1037
ag851
ag166
ag270
ag1007
ag293
ag1090
ag1099
ag2658
ag1065
ag905
atp3466
Rp3467
sg18
I00
sg19
g3131
ssg1132
(dp3468
g3
g4
((lp3469
g106
ag406
ag1127
ag1921
ag493
ag1383
ag1568
ag1924
ag172
ag707
ag1925
ag505
ag412
ag234
ag905
atp3470
Rp3471
sg18
I00
sg19
g1132
ssg642
(dp3472
g3
g4
((lp3473
g587
ag640
ag636
ag637
ag298
ag70
ag635
ag638
ag494
ag482
ag643
ag645
ag671
ag71
ag544
ag519
ag485
ag644
atp3474
Rp3475
sg18
I00
sg19
g642
ssg494
(dp3476
g3
g4
((lp3477
g214
ag408
ag492
ag493
ag642
ag482
ag544
ag519
ag298
ag496
ag497
ag498
ag499
ag500
ag414
ag501
ag502
ag883
ag503
ag504
ag472
ag506
atp3478
Rp3479
sg18
I00
sg19
g494
ssg877
(dp3480
g3
g4
((lp3481
g875
ag876
ag799
ag878
ag92
ag129
atp3482
Rp3483
sg18
I00
sg19
g877
ssg92
(dp3484
g3
g4
((lp3485
g86
ag87
ag88
ag89
ag90
ag9
ag549
ag877
ag59
ag91
ag93
ag129
ag94
atp3486
Rp3487
sg18
I00
sg19
g92
ssg519
(dp3488
g3
g4
((lp3489
g511
ag512
ag452
ag476
ag109
ag513
ag482
ag515
ag642
ag494
ag516
ag517
ag461
ag544
ag518
ag298
ag427
ag520
atp3490
Rp3491
sg18
I00
sg19
g519
ssg298
(dp3492
g3
g4
((lp3493
g494
ag561
ag562
ag564
ag568
ag107
ag560
ag566
ag479
ag567
ag290
ag482
ag569
ag642
ag295
ag544
ag519
atp3494
Rp3495
sg18
I00
sg19
g298
ssg129
(dp3496
g3
g4
((lp3497
g123
ag124
ag125
ag126
ag127
ag11
ag877
ag1640
ag92
ag128
atp3498
Rp3499
sg18
I00
sg19
g129
ssg68
(dp3500
g3
g4
((lp3501
g670
ag72
ag671
ag71
ag672
ag673
ag134
ag375
ag389
ag26
ag320
ag338
ag29
ag675
ag676
ag1633
ag460
ag591
ag663
ag936
ag218
ag677
ag678
ag679
ag1786
ag641
ag680
ag74
ag667
atp3502
Rp3503
sg18
I00
sg19
g68
ssg134
(dp3504
g3
g4
((lp3505
g352
ag138
ag68
ag375
ag389
ag26
ag320
ag338
ag356
ag31
ag357
ag1633
ag460
ag359
ag1786
ag663
ag936
ag218
ag353
ag315
ag360
ag362
ag363
ag364
ag365
ag358
atp3506
Rp3507
sg18
I00
sg19
g134
ssg375
(dp3508
g3
g4
((lp3509
g371
ag376
ag1161
ag68
ag134
ag389
ag26
ag320
ag338
ag39
ag1633
ag460
ag1786
ag378
ag379
ag663
ag936
ag218
ag373
ag316
ag372
ag374
ag381
ag664
ag370
ag380
ag377
atp3510
Rp3511
sg18
I00
sg19
g375
ssg389
(dp3512
g3
g4
((lp3513
g386
ag846
ag604
ag387
ag613
ag388
ag68
ag134
ag375
ag26
ag320
ag338
ag392
ag460
ag1786
ag393
ag394
ag936
ag218
ag395
ag396
ag319
ag397
ag398
ag391
ag1146
ag399
ag663
ag1633
ag400
ag27
ag194
atp3514
Rp3515
sg18
I00
sg19
g389
ssg26
(dp3516
g3
g4
((lp3517
g715
ag28
ag167
ag719
ag68
ag134
ag375
ag389
ag320
ag717
ag714
ag20
ag1633
ag460
ag1786
ag663
ag936
ag218
ag718
ag713
ag697
ag716
ag712
ag682
ag720
ag338
atp3518
Rp3519
sg18
I00
sg19
g26
ssg320
(dp3520
g3
g4
((lp3521
g1005
ag327
ag1603
ag321
ag324
ag323
ag68
ag134
ag375
ag389
ag26
ag338
ag1633
ag460
ag325
ag1786
ag663
ag936
ag218
ag2570
ag312
ag326
atp3522
Rp3523
sg18
I00
sg19
g320
ssg338
(dp3524
g3
g4
((lp3525
g334
ag1817
ag335
ag68
ag134
ag375
ag389
ag337
ag320
ag347
ag1633
ag460
ag340
ag1786
ag341
ag663
ag936
ag218
ag304
ag269
ag342
ag307
ag343
ag336
ag344
ag339
ag345
ag26
ag346
atp3526
Rp3527
sg18
I00
sg19
g338
ssg555
(dp3528
g3
g4
((lp3529
g552
ag553
ag51
ag554
ag549
ag57
ag93
atp3530
Rp3531
sg18
I00
sg19
g555
ssg293
(dp3532
g3
g4
((lp3533
g288
ag107
ag287
ag289
ag275
ag820
ag294
ag291
ag292
ag296
ag681
ag1037
ag851
ag166
ag270
ag1007
ag3131
ag1090
ag1099
ag684
ag297
ag2658
ag1065
ag905
atp3534
Rp3535
sg18
I00
sg19
g293
ssg460
(dp3536
g3
g4
((lp3537
g452
ag453
ag454
ag1084
ag68
ag134
ag375
ag389
ag26
ag320
ag338
ag456
ag457
ag659
ag1633
ag37
ag663
ag936
ag218
ag462
ag459
ag1786
ag463
ag464
ag329
ag465
ag466
atp3538
Rp3539
sg18
I00
sg19
g460
ssg860
(dp3540
g3
g4
((lp3541
g1115
ag1122
ag858
ag859
ag692
ag719
ag434
ag809
ag453
ag334
ag321
ag1968
ag672
ag1120
ag388
atp3542
Rp3543
sg18
I00
sg19
g860
ssg1598
(dp3544
g3
g4
((lp3545
g353
ag355
ag1420
ag1022
ag168
ag1597
ag1832
ag848
ag1062
ag1925
ag948
ag1468
ag1913
ag296
ag1073
ag1914
ag1098
ag1089
ag282
atp3546
Rp3547
sg18
I00
sg19
g1598
ssg1786
(dp3548
g3
g4
((lp3549
g1280
ag68
ag134
ag375
ag389
ag26
ag320
ag338
ag1823
ag1871
ag1872
ag1633
ag460
ag218
ag1270
ag663
ag936
ag1874
ag1873
atp3550
Rp3551
sg18
I00
sg19
g1786
ssg695
(dp3552
g3
g4
((lp3553
g251
ag739
ag866
ag687
ag216
ag195
ag295
ag570
atp3554
Rp3555
sg18
I00
sg19
g695
ssg388
(dp3556
g3
g4
((lp3557
g386
ag184
ag858
ag859
ag692
ag434
ag809
ag453
ag387
ag321
ag853
ag672
ag719
ag860
ag389
ag612
ag392
ag393
ag394
ag194
ag395
ag396
ag319
ag397
ag398
ag391
ag399
ag334
ag400
atp3558
Rp3559
sg18
I00
sg19
g388
ssg663
(dp3560
g3
g4
((lp3561
g68
ag576
ag134
ag375
ag389
ag26
ag320
ag7
ag858
ag1633
ag662
ag579
ag460
ag338
ag1786
ag2346
ag936
ag218
atp3562
Rp3563
sg18
I00
sg19
g663
ssg936
(dp3564
g3
g4
((lp3565
g68
ag928
ag134
ag375
ag389
ag930
ag26
ag320
ag483
ag929
ag933
ag931
ag932
ag1633
ag460
ag683
ag338
ag1786
ag927
ag663
ag218
atp3566
Rp3567
sg18
I00
sg19
g936
ssg218
(dp3568
g3
g4
((lp3569
g214
ag408
ag411
ag68
ag413
ag134
ag375
ag389
ag26
ag320
ag338
ag34
ag1633
ag460
ag1786
ag663
ag936
ag220
ag407
ag322
ag406
ag415
ag409
ag410
atp3570
Rp3571
sg18
I00
sg19
g218
ssg1207
(dp3572
g3
g4
((lp3573
g3255
ag1203
ag1206
ag2704
ag1208
ag1146
atp3574
Rp3575
sg18
I00
sg19
g1207
ssg828
(dp3576
g3
g4
((lp3577
g1718
ag829
ag830
ag827
ag12
ag833
atp3578
Rp3579
sg18
I00
sg19
g828
ssg830
(dp3580
g3
g4
((lp3581
g828
ag829
ag474
ag568
ag827
ag12
ag1702
ag618
ag644
ag833
atp3582
Rp3583
sg18
I00
sg19
g830
ssg474
(dp3584
g3
g4
((lp3585
g469
ag473
ag830
ag1827
ag568
ag480
ag481
ag1702
ag482
ag487
ag644
ag486
ag618
atp3586
Rp3587
sg18
I00
sg19
g474
ssg568
(dp3588
g3
g4
((lp3589
g690
ag561
ag830
ag562
ag474
ag298
ag566
ag560
ag866
ag479
ag567
ag564
ag1702
ag822
ag569
ag644
ag291
ag618
atp3590
Rp3591
sg18
I00
sg19
g568
ssg168
(dp3592
g3
g4
((lp3593
g28
ag172
ag174
ag114
ag164
ag165
ag171
ag173
ag175
ag713
ag169
ag1598
ag1022
ag848
ag30
ag1062
ag1925
ag948
ag1468
ag296
ag1073
ag176
ag1098
ag1089
ag166
ag170
ag177
atp3594
Rp3595
sg18
I00
sg19
g168
ssg635
(dp3596
g3
g4
((lp3597
g587
ag640
ag636
ag637
ag645
ag638
ag642
ag614
ag643
ag503
ag71
ag1026
ag644
ag75
ag485
ag3045
ag520
atp3598
Rp3599
sg18
I00
sg19
g635
ssg1569
(dp3600
g3
g4
((lp3601
g213
ag807
ag501
ag1568
atp3602
Rp3603
sg18
I00
sg19
g1569
ssg614
(dp3604
g3
g4
((lp3605
g602
ag611
ag621
ag390
ag612
ag616
ag144
ag635
ag615
ag617
ag503
ag397
ag484
ag619
ag613
ag3045
ag618
ag520
atp3606
Rp3607
sg18
I00
sg19
g614
ssg106
(dp3608
g3
g4
((lp3609
g105
ag252
ag1132
ag172
ag101
ag110
ag111
ag192
ag112
ag113
ag234
ag104
atp3610
Rp3611
sg18
I00
sg19
g106
ssg1924
(dp3612
g3
g4
((lp3613
g1921
ag505
ag1132
ag1383
ag1568
ag2585
ag1127
ag707
ag1925
ag412
ag905
atp3614
Rp3615
sg18
I00
sg19
g1924
ssg1702
(dp3616
g3
g4
((lp3617
g830
ag474
ag568
ag317
ag1487
ag1603
ag1703
ag644
ag618
atp3618
Rp3619
sg18
I00
sg19
g1702
ssg503
(dp3620
g3
g4
((lp3621
g502
ag219
ag472
ag498
ag214
ag496
ag492
ag497
ag635
ag493
ag614
ag494
ag499
ag506
ag501
ag500
ag414
ag3045
ag504
ag520
atp3622
Rp3623
sg18
I00
sg19
g503
ssg644
(dp3624
g3
g4
((lp3625
g587
ag640
ag636
ag830
ag474
ag568
ag635
ag638
ag1702
ag642
ag637
ag676
ag643
ag645
ag71
ag485
ag618
atp3626
Rp3627
sg18
I00
sg19
g644
ssg758
(dp3628
g3
g4
((lp3629
g755
ag670
ag674
ag599
ag1025
ag890
ag638
ag759
ag588
ag704
ag812
ag639
ag764
ag74
ag752
atp3630
Rp3631
sg18
I00
sg19
g758
ssg3045
(dp3632
g3
g4
((lp3633
g2045
ag635
ag503
ag614
ag520
atp3634
Rp3635
sg18
I00
sg19
g3045
ssg618
(dp3636
g3
g4
((lp3637
g602
ag611
ag830
ag390
ag474
ag568
ag144
ag619
ag612
ag614
ag615
ag850
ag1702
ag616
ag621
ag598
ag617
ag484
ag644
ag613
ag196
atp3638
Rp3639
sg18
I00
sg19
g618
ssg520
(dp3640
g3
g4
((lp3641
g511
ag512
ag476
ag513
ag635
ag515
ag614
ag516
ag517
ag503
ag461
ag518
ag519
ag3045
atp3642
Rp3643
sg18
I00
sg19
g520
ssg196
(dp3644
g3
g4
((lp3645
g183
ag180
ag184
ag185
ag187
ag27
ag598
ag254
ag866
ag188
ag186
ag191
ag193
ag618
ag195
ag850
ag38
ag197
ag198
atp3646
Rp3647
sg18
I00
sg19
g196
ssg1983
(dp3648
g3
g4
((lp3649
g1816
ag268
ag1371
ag1218
ag749
ag1818
atp3650
Rp3651
sg18
I00
sg19
g1983
ssg1218
(dp3652
g3
g4
((lp3653
g2605
ag2606
ag1983
ag2592
ag1215
ag1063
ag2607
ag749
ag1119
atp3654
Rp3655
sg18
I00
sg19
g1218
ssg1190
(dp3656
g3
g4
((lp3657
g553
ag251
ag89
ag748
ag693
ag116
ag1189
ag113
ag532
ag1191
ag1192
atp3658
Rp3659
sg18
I00
sg19
g1190
ssg1275
(dp3660
g3
g4
((lp3661
g1137
ag1521
ag53
ag1563
ag849
ag392
ag148
ag606
atp3662
Rp3663
sg18
I00
sg19
g1275
ssg58
(dp3664
g3
g4
((lp3665
g49
ag51
ag554
ag54
ag56
ag1643
ag50
ag1032
ag45
ag52
ag62
atp3666
Rp3667
sg18
I00
sg19
g58
ssg749
(dp3668
g3
g4
((lp3669
g1983
ag748
ag255
ag1218
ag747
ag811
ag528
ag104
atp3670
Rp3671
sg18
I00
sg19
g749
ssg3015
(dp3672
g3
g4
((lp3673
g212
ag911
ag1873
ag73
ag1323
ag197
ag41
atp3674
Rp3675
sg18
I00
sg19
g3015
ssg560
(dp3676
g3
g4
((lp3677
g561
ag829
ag562
ag545
ag568
ag566
ag515
ag479
ag567
ag1703
ag564
ag569
ag296
ag473
ag1160
ag1597
ag298
atp3678
Rp3679
sg18
I00
sg19
g560
ssg212
(dp3680
g3
g4
((lp3681
g219
ag498
ag222
ag1921
ag211
ag3015
ag215
ag221
ag216
ag197
ag911
ag34
ag223
ag73
ag213
ag217
ag1323
ag41
atp3682
Rp3683
sg18
I00
sg19
g212
ssg911
(dp3684
g3
g4
((lp3685
g908
ag3015
ag705
ag212
ag914
ag197
ag918
ag73
ag1323
ag40
ag41
atp3686
Rp3687
sg18
I00
sg19
g911
ssg638
(dp3688
g3
g4
((lp3689
g587
ag640
ag670
ag636
ag637
ag616
ag1025
ag635
ag642
ag1157
ag827
ag758
ag499
ag643
ag645
ag71
ag528
ag644
ag485
ag1541
atp3690
Rp3691
sg18
I00
sg19
g638
ssg2854
(dp3692
g3
g4
((lp3693
g1371
ag811
atp3694
Rp3695
sg18
I00
sg19
g2854
ssg296
(dp3696
g3
g4
((lp3697
g288
ag107
ag287
ag289
ag560
ag275
ag294
ag1598
ag1022
ag168
ag291
ag848
ag292
ag1062
ag1925
ag948
ag1468
ag1073
ag1098
ag1089
ag293
ag297
atp3698
Rp3699
sg18
I00
sg19
g296
ssg73
(dp3700
g3
g4
((lp3701
g3015
ag69
ag212
ag911
ag890
ag70
ag29
ag675
ag645
ag1323
ag197
ag41
ag75
atp3702
Rp3703
sg18
I00
sg19
g73
ssg1323
(dp3704
g3
g4
((lp3705
g3015
ag212
ag911
ag421
ag775
ag727
ag39
ag1324
ag73
ag197
ag41
atp3706
Rp3707
sg18
I00
sg19
g1323
ssg1064
(dp3708
g3
g4
((lp3709
g1070
ag267
ag1059
ag1060
ag1061
ag1062
ag1063
ag1009
ag1065
atp3710
Rp3711
sg18
I00
sg19
g1064
ssg1073
(dp3712
g3
g4
((lp3713
g168
ag1070
ag1022
ag1072
ag1598
ag1468
ag273
ag848
ag1062
ag1925
ag948
ag296
ag1010
ag1098
ag1089
atp3714
Rp3715
sg18
I00
sg19
g1073
ssg41
(dp3716
g3
g4
((lp3717
g23
ag3015
ag35
ag25
ag212
ag911
ag714
ag20
ag32
ag33
ag30
ag73
ag175
ag38
ag1323
ag197
ag42
atp3718
Rp3719
sg18
I00
sg19
g41
ssg499
(dp3720
g3
g4
((lp3721
g214
ag492
ag493
ag494
ag411
ag211
ag496
ag497
ag498
ag638
ag1157
ag827
ag707
ag528
ag414
ag501
ag1541
ag502
ag503
ag704
ag500
ag504
ag472
ag616
ag506
atp3722
Rp3723
sg18
I00
sg19
g499
ssg1280
(dp3724
g3
g4
((lp3725
g1281
ag1786
ag930
ag1871
ag2284
ag457
ag1823
ag1282
ag1872
ag438
ag347
ag1873
ag591
ag379
ag394
ag1874
ag718
atp3726
Rp3727
sg18
I00
sg19
g1280
ssg3165
(dp3728
g3
g4
((lp3729
g6
ag3162
ag2567
ag3028
ag1507
ag1313
atp3730
Rp3731
sg18
I00
sg19
g3165
ssg1281
(dp3732
g3
g4
((lp3733
g1280
ag930
ag1481
ag457
ag1282
ag438
ag347
ag591
ag379
ag394
ag1121
ag718
atp3734
Rp3735
sg18
I00
sg19
g1281
ssg597
(dp3736
g3
g4
((lp3737
g596
ag1318
ag674
ag598
ag599
ag600
ag400
ag601
ag810
ag1392
ag820
ag603
ag580
ag604
ag935
ag606
ag605
ag851
atp3738
Rp3739
sg18
I00
sg19
g597
ssg726
(dp3740
g3
g4
((lp3741
g1253
ag1254
ag723
aS'adz'
p3742
ag728
ag831
ag783
ag377
ag878
ag1250
atp3743
Rp3744
sg18
I00
sg19
g726
ssg6
(dp3745
g3
g4
((lp3746
g3165
ag1
ag3162
ag8
ag2567
ag1507
ag1354
ag1313
atp3747
Rp3748
sg18
I00
sg19
g6
ssg674
(dp3749
g3
g4
((lp3750
g681
ag597
ag1318
ag758
ag890
ag667
ag810
ag1392
ag588
ag820
ag812
ag639
ag935
ag74
atp3751
Rp3752
sg18
I00
sg19
g674
ssg1098
(dp3753
g3
g4
((lp3754
g948
ag1097
ag1095
ag941
ag545
ag762
ag439
ag761
ag1022
ag1598
ag1096
ag168
ag848
ag1062
ag1925
ag444
ag1468
ag296
ag1073
ag1089
ag540
ag1099
ag1013
atp3755
Rp3756
sg18
I00
sg19
g1098
ssg252
(dp3757
g3
g4
((lp3758
g526
ag1108
ag106
ag477
ag493
ag525
ag480
ag1112
ag529
ag192
ag530
ag531
ag528
atp3759
Rp3760
sg18
I00
sg19
g252
ssg3742
(dp3761
g3
g4
((lp3762
g878
ag783
ag726
atp3763
Rp3764
sg18
I00
sg19
g3742
ssg1282
(dp3765
g3
g4
((lp3766
g1280
ag805
ag1281
ag105
ag930
ag900
ag865
ag693
ag457
ag809
ag438
ag747
ag347
ag1442
ag530
ag591
ag1443
ag379
ag394
ag718
atp3767
Rp3768
sg18
I00
sg19
g1282
ssg1507
(dp3769
g3
g4
((lp3770
g3165
ag1503
ag6
ag3162
ag2567
ag784
ag1313
atp3771
Rp3772
sg18
I00
sg19
g1507
ssg438
(dp3773
g3
g4
((lp3774
g432
ag433
ag434
ag756
ag1280
ag1095
ag1281
ag930
ag437
ag457
ag1282
ag347
ag591
ag441
ag379
ag394
ag718
ag442
ag443
ag444
ag445
ag328
ag435
ag436
ag447
atp3775
Rp3776
sg18
I00
sg19
g438
ssg347
(dp3777
g3
g4
((lp3778
g994
ag334
ag335
ag1280
ag1281
ag336
ag930
ag337
ag338
ag457
ag1282
ag438
ag340
ag591
ag379
ag394
ag281
ag304
ag269
ag342
ag343
ag344
ag339
ag345
ag341
ag346
ag718
atp3779
Rp3780
sg18
I00
sg19
g347
ssg783
(dp3781
g3
g4
((lp3782
g1506
ag726
ag3742
ag518
ag878
ag731
atp3783
Rp3784
sg18
I00
sg19
g783
ssg1392
(dp3785
g3
g4
((lp3786
g1090
ag1318
ag674
ag659
ag514
ag458
ag785
ag1723
ag810
ag597
ag820
ag1429
ag935
ag1088
ag466
atp3787
Rp3788
sg18
I00
sg19
g1392
ssg820
(dp3789
g3
g4
((lp3790
g597
ag1318
ag818
ag674
ag290
ag565
ag661
ag1392
ag810
ag293
ag819
ag821
ag684
ag935
ag822
ag764
ag806
atp3791
Rp3792
sg18
I00
sg19
g820
ssg28
(dp3793
g3
g4
((lp3794
g174
ag1005
ag846
ag72
ag662
ag172
ag1270
ag2704
ag1084
ag114
ag26
ag164
ag20
ag165
ag171
ag173
ag175
ag169
ag168
ag176
ag166
ag170
ag177
atp3795
Rp3796
sg18
I00
sg19
g28
ssg591
(dp3797
g3
g4
((lp3798
g670
ag675
ag671
ag672
ag673
ag1280
ag1281
ag69
ag930
ag457
ag1282
ag438
ag347
ag676
ag68
ag589
ag379
ag394
ag718
ag587
ag678
ag679
ag641
ag680
ag667
ag584
ag588
ag677
atp3799
Rp3800
sg18
I00
sg19
g591
ssg878
(dp3801
g3
g4
((lp3802
g875
ag726
ag876
ag3742
ag799
ag783
ag877
ag1854
atp3803
Rp3804
sg18
I00
sg19
g878
ssg935
(dp3805
g3
g4
((lp3806
g597
ag1318
ag674
ag1960
ag808
ag884
ag578
ag810
ag1392
ag934
ag820
ag683
ag1962
ag949
ag1587
atp3807
Rp3808
sg18
I00
sg19
g935
ssg379
(dp3809
g3
g4
((lp3810
g371
ag376
ag1280
ag1281
ag375
ag930
ag1324
ag457
ag1282
ag438
ag347
ag591
ag378
ag394
ag718
ag373
ag1156
ag316
ag372
ag374
ag381
ag370
ag380
ag377
atp3811
Rp3812
sg18
I00
sg19
g379
ssg394
(dp3813
g3
g4
((lp3814
g386
ag387
ag388
ag1280
ag1281
ag389
ag930
ag457
ag1282
ag438
ag347
ag844
ag392
ag591
ag379
ag194
ag718
ag183
ag611
ag395
ag396
ag319
ag601
ag397
ag398
ag391
ag399
ag393
ag400
atp3815
Rp3816
sg18
I00
sg19
g394
ssg918
(dp3817
g3
g4
((lp3818
g23
ag908
ag184
ag135
ag911
ag705
ag914
ag231
ag257
ag424
ag1401
ag213
ag1355
ag40
ag956
atp3819
Rp3820
sg18
I00
sg19
g918
ssg718
(dp3821
g3
g4
((lp3822
g715
ag167
ag719
ag1280
ag1281
ag35
ag930
ag26
ag717
ag714
ag457
ag1282
ag438
ag171
ag591
ag379
ag394
ag720
ag713
ag697
ag716
ag712
ag682
ag347
atp3823
Rp3824
sg18
I00
sg19
g718
ssg502
(dp3825
g3
g4
((lp3826
g214
ag492
ag493
ag494
ag496
ag497
ag498
ag499
ag500
ag414
ag501
ag1058
ag539
ag513
ag566
ag1951
ag503
ag619
ag1045
ag504
ag472
ag222
ag506
ag410
atp3827
Rp3828
sg18
I00
sg19
g502
ssg1058
(dp3829
g3
g4
((lp3830
g502
ag539
ag513
ag566
ag1009
ag619
ag1045
atp3831
Rp3832
sg18
I00
sg19
g1058
ssg3255
(dp3833
g3
g4
((lp3834
g1207
ag2704
atp3835
Rp3836
sg18
I00
sg19
g3255
ssg422
(dp3837
g3
g4
((lp3838
g230
ag421
ag70
ag188
ag423
ag776
ag916
ag425
ag295
ag418
ag426
ag427
ag118
atp3839
Rp3840
sg18
I00
sg19
g422
ssg654
(dp3841
g3
g4
((lp3842
g1137
ag727
ag723
ag55
ag729
ag50
ag730
ag648
ag732
atp3843
Rp3844
sg18
I00
sg19
g654
ssg126
(dp3845
g3
g4
((lp3846
g2430
ag123
ag124
ag125
ag127
ag11
ag159
ag2867
ag129
ag128
atp3847
Rp3848
sg18
I00
sg19
g126
ssg539
(dp3849
g3
g4
((lp3850
g502
ag1058
ag538
ag543
ag513
ag478
ag566
ag242
ag545
ag765
ag542
ag436
ag440
ag544
ag619
ag546
ag537
ag1045
ag1013
atp3851
Rp3852
sg18
I00
sg19
g539
ssg513
(dp3853
g3
g4
((lp3854
g502
ag1058
ag511
ag512
ag476
ag539
ag566
ag515
ag740
ag519
ag465
ag516
ag517
ag461
ag518
ag619
ag1011
ag1045
ag1088
ag520
atp3855
Rp3856
sg18
I00
sg19
g513
ssg1022
(dp3857
g3
g4
((lp3858
g72
ag889
ag1023
ag1025
ag1024
ag1027
ag589
ag1026
ag678
ag1598
ag168
ag848
ag1062
ag1925
ag948
ag1468
ag296
ag1073
ag1098
ag1089
ag681
ag1006
atp3859
Rp3860
sg18
I00
sg19
g1022
ssg566
(dp3861
g3
g4
((lp3862
g502
ag1058
ag561
ag562
ag568
ag539
ag513
ag560
ag479
ag567
ag564
ag569
ag821
ag297
ag619
ag298
ag1045
atp3863
Rp3864
sg18
I00
sg19
g566
ssg848
(dp3865
g3
g4
((lp3866
g846
ag853
ag115
ag596
ag842
ag843
ag844
ag845
ag279
ag847
ag395
ag1598
ag1022
ag168
ag186
ag1062
ag1925
ag948
ag1468
ag850
ag296
ag1073
ag1098
ag1089
ag851
ag849
ag852
ag620
atp3867
Rp3868
sg18
I00
sg19
g848
ssg50
(dp3869
g3
g4
((lp3870
g1137
ag49
ag654
ag51
ag54
ag56
ag58
ag45
ag52
ag62
ag94
atp3871
Rp3872
sg18
I00
sg19
g50
ssg1062
(dp3873
g3
g4
((lp3874
g2605
ag267
ag1022
ag1598
ag1468
ag168
ag1060
ag848
ag1061
ag1059
ag1063
ag1925
ag948
ag1009
ag296
ag1073
ag1064
ag1098
ag1065
ag1089
atp3875
Rp3876
sg18
I00
sg19
g1062
ssg1925
(dp3877
g3
g4
((lp3878
g1132
ag1568
ag1089
ag1921
ag1127
ag707
ag412
ag1939
ag221
ag1598
ag1022
ag168
ag848
ag1924
ag1062
ag948
ag1468
ag296
ag1073
ag1098
ag415
ag505
ag1383
ag905
atp3879
Rp3880
sg18
I00
sg19
g1925
ssg948
(dp3881
g3
g4
((lp3882
g1827
ag1830
ag473
ag475
ag944
ag1598
ag1022
ag168
ag848
ag1831
ag1062
ag1925
ag1468
ag949
ag296
ag1073
ag1098
ag1089
atp3883
Rp3884
sg18
I00
sg19
g948
ssg1468
(dp3885
g3
g4
((lp3886
g829
ag1352
ag947
ag1022
ag168
ag1967
ag848
ag662
ag1062
ag1925
ag948
ag1598
ag296
ag1073
ag1098
ag2658
ag1089
atp3887
Rp3888
sg18
I00
sg19
g1468
ssg159
(dp3889
g3
g4
((lp3890
g2430
ag158
ag1781
ag126
ag1778
ag2867
ag15
atp3891
Rp3892
sg18
I00
sg19
g159
ssg619
(dp3893
g3
g4
((lp3894
g617
ag621
ag613
ag602
ag390
ag612
ag616
ag615
ag502
ag1058
ag611
ag539
ag513
ag566
ag600
ag614
ag1045
ag618
ag399
ag144
ag852
ag484
ag198
atp3895
Rp3896
sg18
I00
sg19
g619
ssg2867
(dp3897
g3
g4
((lp3898
g2430
ag126
ag2105
ag159
atp3899
Rp3900
sg18
I00
sg19
g2867
ssg1045
(dp3901
g3
g4
((lp3902
g502
ag1058
ag1156
ag370
ag539
ag513
ag1008
ag566
ag1040
ag831
ag1157
ag1112
ag1155
ag1104
ag1158
ag1038
ag1159
ag619
ag1161
ag1160
atp3903
Rp3904
sg18
I00
sg19
g1045
ssg1089
(dp3905
g3
g4
((lp3906
g1083
ag109
ag1084
ag1085
ag271
ag1086
ag515
ag1723
ag741
ag1087
ag1598
ag1022
ag168
ag848
ag1062
ag1925
ag948
ag1468
ag296
ag1073
ag1098
ag1090
ag1011
ag463
atp3907
Rp3908
sg18
I00
sg19
g1089
ssg2605
(dp3909
g3
g4
((lp3910
g1218
ag2606
ag1062
ag2592
ag2607
atp3911
Rp3912
sg18
I00
sg19
g2605
ssg1112
(dp3913
g3
g4
((lp3914
g1155
ag1108
ag1157
ag252
ag493
ag831
ag480
ag1156
ag1104
ag1158
ag378
ag1160
ag1161
ag1045
ag1159
atp3915
Rp3916
sg18
I00
sg19
g1112
ssg108
(dp3917
g3
g4
((lp3918
g2653
ag107
ag109
ag101
ag418
ag115
ag114
atp3919
Rp3920
sg18
I00
sg19
g108
ssg1354
(dp3921
g3
g4
((lp3922
g1353
ag6
ag947
ag778
ag1355
ag581
atp3923
Rp3924
sg18
I00
sg19
g1354
ssg617
(dp3925
g3
g4
((lp3926
g537
ag602
ag611
ag390
ag612
ag616
ag492
ag614
ag615
ag1104
ag621
ag195
ag484
ag842
ag619
ag393
ag613
ag1105
ag618
ag144
atp3927
Rp3928
sg18
I00
sg19
g617
ssg784
(dp3929
g3
g4
((lp3930
g731
ag49
ag1507
ag785
atp3931
Rp3932
sg18
I00
sg19
g784
ssg49
(dp3933
g3
g4
((lp3934
g54
ag784
ag51
ag9
ag56
ag50
ag58
ag45
ag52
ag62
atp3935
Rp3936
sg18
I00
sg19
g49
ssg380
(dp3937
g3
g4
((lp3938
g371
ag1104
ag376
ag413
ag375
ag437
ag693
ag456
ag687
ag1041
ag340
ag325
ag697
ag378
ag379
ag358
ag677
ag373
ag316
ag372
ag374
ag381
ag393
ag370
ag377
atp3939
Rp3940
sg18
I00
sg19
g380
ssg1232
(dp3941
g3
g4
((lp3942
g1023
ag355
ag318
ag306
ag274
ag111
ag978
ag1968
ag439
ag294
ag412
ag1268
ag1926
atp3943
Rp3944
sg18
I00
sg19
g1232
ssS'ich'
p3945
(dp3946
g3
g4
((lp3947
g1534
ag3058
atp3948
Rp3949
sg18
I00
sg19
g3945
ssg1309
(dp3950
g3
g4
((lp3951
g1253
ag1302
ag1310
ag1311
ag1312
ag1313
atp3952
Rp3953
sg18
I00
sg19
g1309
ssg1781
(dp3954
g3
g4
((lp3955
g1778
ag159
atp3956
Rp3957
sg18
I00
sg19
g1781
ssg355
(dp3958
g3
g4
((lp3959
g354
ag1232
ag1023
ag315
ag1598
ag318
ag274
ag1420
ag111
ag439
ag137
ag294
ag1913
ag361
ag412
ag1914
ag1268
ag1832
ag282
atp3960
Rp3961
sg18
I00
sg19
g355
ssg27
(dp3962
g3
g4
((lp3963
g184
ag846
ag188
ag613
ag197
ag183
ag180
ag389
ag185
ag20
ag29
ag34
ag31
ag39
ag191
ag195
ag37
ag36
ag196
ag24
ag40
ag187
ag186
ag193
ag604
ag1146
ag198
atp3964
Rp3965
sg18
I00
sg19
g27
ssg785
(dp3966
g3
g4
((lp3967
g784
ag659
ag514
ag1723
ag458
ag1392
ag1429
ag1971
ag731
ag1088
ag606
atp3968
Rp3969
sg18
I00
sg19
g785
ssg318
(dp3970
g3
g4
((lp3971
g1002
ag1232
ag312
ag1023
ag1005
ag355
ag234
ag1007
ag317
ag274
ag111
ag439
ag276
ag294
ag1012
ag412
ag1268
ag988
atp3972
Rp3973
sg18
I00
sg19
g318
ssg274
(dp3974
g3
g4
((lp3975
g301
ag266
ag304
ag1023
ag355
ag1232
ag270
ag277
ag318
ag111
ag439
ag263
ag294
ag278
ag268
ag412
ag281
ag1268
ag308
ag309
atp3976
Rp3977
sg18
I00
sg19
g274
ssg3058
(dp3978
g3
g4
((lp3979
g1534
ag3945
ag60
ag88
atp3980
Rp3981
sg18
I00
sg19
g3058
ssg39
(dp3982
g3
g4
((lp3983
g375
ag20
ag1324
ag727
ag421
ag775
ag29
ag31
ag27
ag34
ag1161
ag37
ag36
ag1323
ag24
ag40
ag664
atp3984
Rp3985
sg18
I00
sg19
g39
ssg111
(dp3986
g3
g4
((lp3987
g1232
ag105
ag249
ag1023
ag355
ag106
ag318
ag274
ag110
ag439
ag112
ag294
ag531
ag113
ag412
ag1268
ag101
ag104
atp3988
Rp3989
sg18
I00
sg19
g111
ssg1534
(dp3990
g3
g4
((lp3991
g3945
ag1531
ag3058
atp3992
Rp3993
sg18
I00
sg19
g1534
ssg439
(dp3994
g3
g4
((lp3995
g941
ag1232
ag1023
ag294
ag355
ag446
ag1098
ag1096
ag318
ag540
ag1095
ag274
ag111
ag761
ag440
ag1099
ag1097
ag412
ag1268
ag328
ag1013
atp3996
Rp3997
sg18
I00
sg19
g439
ssg294
(dp3998
g3
g4
((lp3999
g287
ag1232
ag288
ag1023
ag355
ag107
ag318
ag274
ag291
ag275
ag567
ag111
ag292
ag293
ag819
ag439
ag296
ag289
ag297
ag1268
ag412
atp4000
Rp4001
sg18
I00
sg19
g294
ssg37
(dp4002
g3
g4
((lp4003
g455
ag737
ag738
ag739
ag27
ag706
ag20
ag29
ag740
ag39
ag659
ag34
ag460
ag31
ag742
ag36
ag1084
ag24
ag40
ag427
atp4004
Rp4005
sg18
I00
sg19
g37
ssg36
(dp4006
g3
g4
((lp4007
g254
ag253
ag525
ag257
ag249
ag251
ag27
ag20
ag29
ag31
ag39
ag34
ag192
ag259
ag37
ag24
ag40
ag118
ag248
ag250
ag255
ag258
ag1192
ag256
ag260
atp4008
Rp4009
sg18
I00
sg19
g36
ssg412
(dp4010
g3
g4
((lp4011
g1132
ag1568
ag1232
ag1023
ag355
ag215
ag318
ag274
ag111
ag1127
ag707
ag439
ag294
ag414
ag1921
ag1924
ag322
ag1925
ag505
ag1268
ag1383
ag405
ag905
atp4012
Rp4013
sg18
I00
sg19
g412
ssg24
(dp4014
g3
g4
((lp4015
g660
ag190
ag240
ag241
ag20
ag29
ag242
ag31
ag39
ag27
ag34
ag243
ag37
ag36
ag546
ag40
atp4016
Rp4017
sg18
I00
sg19
g24
ssg1268
(dp4018
g3
g4
((lp4019
g1232
ag1023
ag1270
ag355
ag318
ag274
ag1265
ag111
ag439
ag294
ag1269
ag412
atp4020
Rp4021
sg18
I00
sg19
g1268
ssg40
(dp4022
g3
g4
((lp4023
g908
ag27
ag1111
ag20
ag29
ag914
ag39
ag911
ag34
ag31
ag918
ag1728
ag37
ag36
ag24
ag705
atp4024
Rp4025
sg18
I00
sg19
g40
ssg883
(dp4026
g3
g4
((lp4027
g494
ag220
ag495
ag884
ag290
ag807
ag1948
ag1949
ag577
ag760
ag1950
ag408
ag1951
ag605
ag704
ag405
ag1939
ag117
atp4028
Rp4029
sg18
I00
sg19
g883
ssg884
(dp4030
g3
g4
((lp4031
g883
ag290
ag1960
ag808
ag929
ag760
ag578
ag117
ag1962
ag482
ag425
ag949
ag935
ag1587
ag605
atp4032
Rp4033
sg18
I00
sg19
g884
ssg727
(dp4034
g3
g4
((lp4035
g775
ag1324
ag421
ag654
ag723
ag55
ag39
ag729
ag730
ag1323
ag732
atp4036
Rp4037
sg18
I00
sg19
g727
ssg760
(dp4038
g3
g4
((lp4039
g432
ag756
ag883
ag757
ag239
ag884
ag290
ag660
ag541
ag446
ag762
ag763
ag544
ag117
ag765
ag605
ag752
atp4040
Rp4041
sg18
I00
sg19
g760
ssg307
(dp4042
g3
g4
((lp4043
g301
ag338
ag1817
ag305
atp4044
Rp4045
sg18
I00
sg19
g307
ssg117
(dp4046
g3
g4
((lp4047
g802
ag805
ag760
ag883
ag884
ag290
ag116
ag527
ag101
ag810
ag813
ag605
ag118
atp4048
Rp4049
sg18
I00
sg19
g117
ssg1219
(dp4050
g3
g4
((lp4051
g705
ag1215
ag128
atp4052
Rp4053
sg18
I00
sg19
g1219
ssg605
(dp4054
g3
g4
((lp4055
g596
ag597
ag883
ag884
ag290
ag598
ag599
ag760
ag188
ag117
ag601
ag387
ag600
ag603
ag580
ag604
ag115
ag606
atp4056
Rp4057
sg18
I00
sg19
g605
ssg88
(dp4058
g3
g4
((lp4059
g86
ag87
ag89
ag90
ag9
ag3058
ag59
ag91
ag147
ag92
ag93
ag94
atp4060
Rp4061
sg18
I00
sg19
g88
ssS'obi'
p4062
(dp4063
g3
g4
((lp4064
g54
atp4065
Rp4066
sg18
I00
sg19
g4062
ssg54
(dp4067
g3
g4
((lp4068
g49
ag4062
ag51
ag56
ag50
ag58
ag45
ag52
ag62
atp4069
Rp4070
sg18
I00
sg19
g54
ssg482
(dp4071
g3
g4
((lp4072
g469
ag473
ag474
ag929
ag642
ag480
ag481
ag494
ag884
ag425
ag544
ag519
ag298
ag486
ag487
atp4073
Rp4074
sg18
I00
sg19
g482
ssg728
(dp4075
g3
g4
((lp4076
g723
ag1554
ag1731
ag726
ag1734
atp4077
Rp4078
sg18
I00
sg19
g728
ssg89
(dp4079
g3
g4
((lp4080
g86
ag87
ag553
ag88
ag748
ag90
ag9
ag116
ag1189
ag1190
ag59
ag532
ag91
ag92
ag93
ag1191
ag1192
ag1250
ag94
atp4081
Rp4082
sg18
I00
sg19
g89
ssg147
(dp4083
g3
g4
((lp4084
g143
ag88
ag144
ag145
ag146
ag148
ag14
atp4085
Rp4086
sg18
I00
sg19
g147
ssg714
(dp4087
g3
g4
((lp4088
g715
ag336
ag713
ag26
ag717
ag175
ag682
ag675
ag357
ag931
ag167
ag716
ag1873
ag1884
ag697
ag712
ag719
ag720
ag41
ag718
atp4089
Rp4090
sg18
I00
sg19
g714
ssg640
(dp4091
g3
g4
((lp4092
g642
ag889
ag71
ag672
ag1155
ag1486
ag636
ag612
ag1487
ag638
ag1488
ag564
ag643
ag645
ag812
ag501
ag487
ag587
ag635
ag644
ag637
ag485
atp4093
Rp4094
sg18
I00
sg19
g640
ssg1718
(dp4095
g3
g4
((lp4096
g51
ag1714
ag13
ag828
atp4097
Rp4098
sg18
I00
sg19
g1718
ssg124
(dp4099
g3
g4
((lp4100
g123
ag125
ag126
ag127
ag11
ag129
ag128
ag2589
atp4101
Rp4102
sg18
I00
sg19
g124
ssg1083
(dp4103
g3
g4
((lp4104
g1085
ag288
ag1087
ag271
ag1086
ag109
ag1967
ag453
ag889
ag1042
ag853
ag1090
ag174
ag1012
ag278
ag1968
ag1084
ag1568
ag1011
ag741
ag1089
atp4105
Rp4106
sg18
I00
sg19
g1083
ssg51
(dp4107
g3
g4
((lp4108
g1718
ag1714
ag49
ag54
ag555
ag56
ag50
ag58
ag93
ag45
ag52
ag62
atp4109
Rp4110
sg18
I00
sg19
g51
ssg2417
(dp4111
g3
g4
((lp4112
g308
ag2414
atp4113
Rp4114
sg18
I00
sg19
g2417
ssg1967
(dp4115
g3
g4
((lp4116
g288
ag1083
ag1352
ag858
ag1042
ag1568
ag889
ag662
ag1968
ag853
ag174
ag1468
ag278
ag1012
ag1355
ag2658
atp4117
Rp4118
sg18
I00
sg19
g1967
ssg1568
(dp4119
g3
g4
((lp4120
g288
ag1083
ag1132
ag1967
ag889
ag1042
ag1968
ag853
ag174
ag213
ag278
ag1012
ag1921
ag807
ag1127
ag707
ag412
ag501
ag1569
ag1924
ag1925
ag505
ag1383
ag905
atp4121
Rp4122
sg18
I00
sg19
g1568
ssg889
(dp4123
g3
g4
((lp4124
g288
ag1083
ag1967
ag72
ag1568
ag1042
ag1968
ag853
ag174
ag278
ag1012
ag672
ag640
ag1023
ag1025
ag1024
ag1027
ag589
ag812
ag1026
ag1022
ag681
ag1006
atp4125
Rp4126
sg18
I00
sg19
g889
ssg1042
(dp4127
g3
g4
((lp4128
g1155
ag1037
ag288
ag1083
ag1008
ag1967
ag1041
ag1568
ag889
ag1968
ag853
ag174
ag1012
ag278
ag1043
ag1039
ag1044
atp4129
Rp4130
sg18
I00
sg19
g1042
ssg1968
(dp4131
g3
g4
((lp4132
g1232
ag288
ag1083
ag1967
ag1568
ag889
ag1042
ag853
ag174
ag278
ag1012
ag1926
ag860
atp4133
Rp4134
sg18
I00
sg19
g1968
ssg853
(dp4135
g3
g4
((lp4136
g288
ag1083
ag846
ag1967
ag1568
ag889
ag1042
ag184
ag1968
ag174
ag278
ag1012
ag115
ag388
ag612
ag842
ag843
ag844
ag845
ag279
ag847
ag848
ag849
ag850
ag851
ag852
ag620
atp4137
Rp4138
sg18
I00
sg19
g853
ssg174
(dp4139
g3
g4
((lp4140
g23
ag288
ag1083
ag28
ag1967
ag1568
ag889
ag1042
ag172
ag1968
ag853
ag278
ag1012
ag719
ag114
ag164
ag165
ag171
ag173
ag175
ag169
ag168
ag176
ag166
ag170
ag177
atp4141
Rp4142
sg18
I00
sg19
g174
ssg278
(dp4143
g3
g4
((lp4144
g1370
ag288
ag1083
ag1967
ag1568
ag889
ag334
ag1968
ag853
ag174
ag1012
ag268
ag1367
ag274
ag263
ag281
ag277
ag266
ag305
ag270
ag1371
ag1042
ag1373
atp4145
Rp4146
sg18
I00
sg19
g278
ssg1012
(dp4147
g3
g4
((lp4148
g1002
ag288
ag1083
ag1005
ag1007
ag1487
ag318
ag1967
ag231
ag889
ag1042
ag321
ag1968
ag276
ag174
ag278
ag988
ag1568
ag234
ag853
atp4149
Rp4150
sg18
I00
sg19
g1012
ssg357
(dp4151
g3
g4
((lp4152
g134
ag353
ag364
ag352
ag315
ag365
ag714
ag356
ag360
ag675
ag931
ag1873
ag1884
ag336
ag362
ag358
ag363
ag359
atp4153
Rp4154
sg18
I00
sg19
g357
ssg344
(dp4155
g3
g4
((lp4156
g691
ag345
ag304
ag336
ag269
ag900
ag337
ag342
ag338
ag346
ag374
ag347
ag334
ag340
ag343
ag993
ag397
ag341
ag339
ag335
atp4157
Rp4158
sg18
I00
sg19
g344
ssg183
(dp4159
g3
g4
((lp4160
g184
ag197
ag180
ag35
ag69
ag185
ag1324
ag27
ag191
ag229
ag994
ag188
ag844
ag195
ag950
ag217
ag394
ag611
ag187
ag601
ag186
ag193
ag196
ag136
ag198
atp4161
Rp4162
sg18
I00
sg19
g183
ssg413
(dp4163
g3
g4
((lp4164
g408
ag492
ag216
ag411
ag406
ag437
ag693
ag456
ag687
ag1127
ag340
ag325
ag697
ag393
ag380
ag358
ag218
ag677
ag407
ag322
ag415
ag409
ag410
atp4165
Rp4166
sg18
I00
sg19
g413
ssg35
(dp4167
g3
g4
((lp4168
g183
ag23
ag69
ag25
ag136
ag1324
ag20
ag229
ag994
ag32
ag33
ag30
ag171
ag38
ag950
ag217
ag42
ag41
ag718
atp4169
Rp4170
sg18
I00
sg19
g35
ssg69
(dp4171
g3
g4
((lp4172
g183
ag587
ag35
ag136
ag1324
ag29
ag70
ag229
ag994
ag584
ag588
ag589
ag73
ag591
ag950
ag217
ag75
atp4173
Rp4174
sg18
I00
sg19
g69
ssg941
(dp4175
g3
g4
((lp4176
g287
ag1095
ag1096
ag845
ag240
ag443
ag540
ag1060
ag1027
ag439
ag173
ag1099
ag1097
ag761
ag988
ag1098
ag763
ag1013
atp4177
Rp4178
sg18
I00
sg19
g941
ssg136
(dp4179
g3
g4
((lp4180
g183
ag35
ag69
ag135
ag1324
ag229
ag994
ag31
ag137
ag950
ag217
atp4181
Rp4182
sg18
I00
sg19
g136
ssg637
(dp4183
g3
g4
((lp4184
g587
ag602
ag636
ag635
ag638
ag640
ag642
ag679
ag542
ag529
ag516
ag643
ag569
ag590
ag71
ag500
ag644
ag485
ag645
atp4185
Rp4186
sg18
I00
sg19
g637
ssg437
(dp4187
g3
g4
((lp4188
g537
ag432
ag433
ag434
ag447
ag413
ag435
ag693
ag456
ag687
ag438
ag340
ag325
ag697
ag441
ag393
ag380
ag358
ag677
ag442
ag443
ag444
ag445
ag328
ag436
atp4189
Rp4190
sg18
I00
sg19
g437
ssg693
(dp4191
g3
g4
((lp4192
g413
ag251
ag900
ag865
ag437
ag456
ag687
ag809
ag1282
ag747
ag1190
ag1442
ag113
ag340
ag325
ag697
ag1443
ag393
ag380
ag358
ag677
atp4193
Rp4194
sg18
I00
sg19
g693
ssg456
(dp4195
g3
g4
((lp4196
g452
ag453
ag454
ag1429
ag413
ag739
ag437
ag693
ag457
ag687
ag460
ag340
ag325
ag697
ag393
ag380
ag358
ag677
ag462
ag459
ag463
ag464
ag329
ag465
ag466
atp4197
Rp4198
sg18
I00
sg19
g456
ssg229
(dp4199
g3
g4
((lp4200
g183
ag228
ag230
ag35
ag69
ag136
ag1324
ag994
ag189
ag231
ag232
ag233
ag950
ag217
atp4201
Rp4202
sg18
I00
sg19
g229
ssg994
(dp4203
g3
g4
((lp4204
g183
ag774
ag35
ag69
ag136
ag1324
ag272
ag229
ag347
ag995
ag993
ag917
ag950
ag217
ag281
ag309
atp4205
Rp4206
sg18
I00
sg19
g994
ssg1818
(dp4207
g3
g4
((lp4208
g2589
ag1983
ag1371
ag2592
ag340
ag1813
atp4209
Rp4210
sg18
I00
sg19
g1818
ssg542
(dp4211
g3
g4
((lp4212
g537
ag538
ag602
ag637
ag539
ag478
ag545
ag546
ag543
ag529
ag516
ag569
ag544
ag445
ag500
ag440
atp4213
Rp4214
sg18
I00
sg19
g542
ssg529
(dp4215
g3
g4
((lp4216
g526
ag602
ag637
ag477
ag252
ag525
ag542
ag528
ag516
ag569
ag258
ag531
ag500
ag1443
ag530
atp4217
Rp4218
sg18
I00
sg19
g529
ssg516
(dp4219
g3
g4
((lp4220
g511
ag512
ag602
ag637
ag476
ag271
ag513
ag500
ag515
ag542
ag529
ag517
ag569
ag461
ag742
ag518
ag519
ag464
ag520
atp4221
Rp4222
sg18
I00
sg19
g516
ssg569
(dp4223
g3
g4
((lp4224
g542
ag602
ag561
ag562
ag637
ag568
ag560
ag566
ag479
ag275
ag567
ag564
ag529
ag516
ag500
ag298
ag699
atp4225
Rp4226
sg18
I00
sg19
g569
ssg845
(dp4227
g3
g4
((lp4228
g846
ag398
ag853
ag115
ag287
ag941
ag842
ag1060
ag843
ag615
ag844
ag173
ag279
ag988
ag847
ag848
ag849
ag193
ag850
ag1027
ag851
ag852
ag620
atp4229
Rp4230
sg18
I00
sg19
g845
ssg325
(dp4231
g3
g4
((lp4232
g413
ag312
ag324
ag320
ag693
ag456
ag327
ag687
ag437
ag321
ag326
ag340
ag697
ag393
ag380
ag358
ag323
ag677
atp4233
Rp4234
sg18
I00
sg19
g325
ssg697
(dp4235
g3
g4
((lp4236
g715
ag167
ag714
ag719
ag413
ag26
ag437
ag717
ag693
ag456
ag687
ag340
ag325
ag393
ag380
ag720
ag718
ag713
ag716
ag712
ag682
ag358
ag677
ag164
atp4237
Rp4238
sg18
I00
sg19
g697
ssg950
(dp4239
g3
g4
((lp4240
g183
ag35
ag69
ag930
ag136
ag1324
ag944
ag1960
ag229
ag994
ag425
ag217
ag486
ag951
atp4241
Rp4242
sg18
I00
sg19
g950
ssg217
(dp4243
g3
g4
((lp4244
g183
ag219
ag35
ag222
ag211
ag136
ag1324
ag215
ag1948
ag221
ag229
ag994
ag216
ag34
ag223
ag69
ag213
ag950
ag212
ag504
atp4245
Rp4246
sg18
I00
sg19
g217
ssg393
(dp4247
g3
g4
((lp4248
g386
ag387
ag617
ag195
ag388
ag413
ag389
ag437
ag842
ag693
ag456
ag687
ag392
ag340
ag325
ag697
ag380
ag358
ag194
ag677
ag395
ag396
ag319
ag397
ag398
ag391
ag399
ag394
ag400
atp4249
Rp4250
sg18
I00
sg19
g393
ssg1406
(dp4251
g3
g4
((lp4252
g1118
ag406
ag378
ag720
ag194
ag1122
atp4253
Rp4254
sg18
I00
sg19
g1406
ssg720
(dp4255
g3
g4
((lp4256
g1122
ag172
ag715
ag406
ag713
ag26
ag717
ag714
ag682
ag167
ag716
ag697
ag378
ag1406
ag712
ag719
ag194
ag718
atp4257
Rp4258
sg18
I00
sg19
g720
ssg194
(dp4259
g3
g4
((lp4260
g386
ag1122
ag399
ag393
ag406
ag395
ag720
ag1406
ag396
ag180
ag319
ag400
ag387
ag392
ag397
ag398
ag378
ag388
ag394
ag391
ag389
atp4261
Rp4262
sg18
I00
sg19
g194
ssg1122
(dp4263
g3
g4
((lp4264
g1115
ag406
ag1406
ag860
ag378
ag1120
ag720
ag194
atp4265
Rp4266
sg18
I00
sg19
g1122
ssg626
(dp4267
g3
g4
((lp4268
g266
ag1974
ag1038
ag600
ag346
ag995
ag1951
ag1962
ag821
ag280
ag765
ag1088
atp4269
Rp4270
sg18
I00
sg19
g626
ssg757
(dp4271
g3
g4
((lp4272
g538
ag756
ag660
ag1243
ag763
ag1949
ag760
ag541
ag446
ag762
ag603
ag1097
ag441
ag239
ag765
ag752
atp4273
Rp4274
sg18
I00
sg19
g757
ssg1974
(dp4275
g3
g4
((lp4276
g626
ag364
ag1318
ag1971
ag1038
ag600
ag1951
ag138
ag1962
ag821
ag361
ag765
ag1088
atp4277
Rp4278
sg18
I00
sg19
g1974
ssg1038
(dp4279
g3
g4
((lp4280
g626
ag370
ag1241
ag1974
ag1008
ag1040
ag600
ag765
ag1242
ag1243
ag1951
ag1962
ag821
ag1045
ag1088
ag664
atp4281
Rp4282
sg18
I00
sg19
g1038
ssg1137
(dp4283
g3
g4
((lp4284
g849
ag53
ag654
ag145
ag50
ag392
ag1275
ag606
atp4285
Rp4286
sg18
I00
sg19
g1137
ssg1949
(dp4287
g3
g4
((lp4288
g704
ag220
ag883
ag757
ag495
ag496
ag807
ag1948
ag577
ag1950
ag1243
ag1951
ag603
ag405
ag1939
atp4289
Rp4290
sg18
I00
sg19
g1949
ssg600
(dp4291
g3
g4
((lp4292
g598
ag821
ag606
ag596
ag597
ag1088
ag626
ag1974
ag1038
ag599
ag601
ag1951
ag603
ag1962
ag604
ag619
ag765
ag605
ag399
ag852
ag580
ag198
atp4293
Rp4294
sg18
I00
sg19
g600
ssg1243
(dp4295
g3
g4
((lp4296
g757
ag1241
ag1038
ag1949
ag1242
ag603
ag664
atp4297
Rp4298
sg18
I00
sg19
g1243
ssg1951
(dp4299
g3
g4
((lp4300
g1950
ag495
ag807
ag1939
ag502
ag220
ag626
ag883
ag1974
ag1038
ag1948
ag1949
ag600
ag410
ag704
ag1962
ag821
ag765
ag1088
ag222
ag577
ag405
atp4301
Rp4302
sg18
I00
sg19
g1951
ssg603
(dp4303
g3
g4
((lp4304
g596
ag597
ag847
ag757
ag185
ag599
ag598
ag1949
ag600
ag601
ag1243
ag580
ag604
ag605
ag606
atp4305
Rp4306
sg18
I00
sg19
g603
ssg1962
(dp4307
g3
g4
((lp4308
g626
ag884
ag1974
ag1038
ag808
ag600
ag1587
ag949
ag1951
ag578
ag1960
ag821
ag935
ag765
ag1088
atp4309
Rp4310
sg18
I00
sg19
g1962
ssg821
(dp4311
g3
g4
((lp4312
g661
ag626
ag806
ag818
ag1974
ag1038
ag565
ag566
ag600
ag290
ag1951
ag820
ag1962
ag764
ag819
ag297
ag822
ag765
ag1088
atp4313
Rp4314
sg18
I00
sg19
g821
ssg807
(dp4315
g3
g4
((lp4316
g1568
ag220
ag883
ag806
ag495
ag1948
ag812
ag1949
ag802
ag577
ag1950
ag1951
ag704
ag808
ag405
ag213
ag1569
ag1939
ag501
atp4317
Rp4318
sg18
I00
sg19
g807
ssg362
(dp4319
g3
g4
((lp4320
g134
ag353
ag364
ag352
ag1299
ag315
ag365
ag356
ag360
ag358
ag359
ag357
ag1120
ag391
ag363
atp4321
Rp4322
sg18
I00
sg19
g362
ssg1120
(dp4323
g3
g4
((lp4324
g1115
ag2105
ag2102
ag362
ag391
ag860
ag1122
atp4325
Rp4326
sg18
I00
sg19
g1120
ssg391
(dp4327
g3
g4
((lp4328
g386
ag399
ag393
ag389
ag395
ag394
ag396
ag1563
ag319
ag400
ag387
ag392
ag397
ag398
ag362
ag1120
ag194
ag388
atp4329
Rp4330
sg18
I00
sg19
g391
ssg1088
(dp4331
g3
g4
((lp4332
g626
ag1974
ag1038
ag513
ag1429
ag514
ag458
ag740
ag785
ag1723
ag465
ag1392
ag1951
ag600
ag1962
ag821
ag1011
ag765
ag659
atp4333
Rp4334
sg18
I00
sg19
g1088
ssg3182
(dp4335
g3
g4
((lp4336
g653
ag1360
atp4337
Rp4338
sg18
I00
sg19
g3182
ssg876
(dp4339
g3
g4
((lp4340
g875
ag878
ag877
ag799
atp4341
Rp4342
sg18
I00
sg19
g876
ssg653
(dp4343
g3
g4
((lp4344
g3182
ag652
ag648
ag1731
atp4345
Rp4346
sg18
I00
sg19
g653
ssg810
(dp4347
g3
g4
((lp4348
g802
ag805
ag248
ag597
ag1318
ag674
ag527
ag117
ag1392
ag820
ag935
ag813
atp4349
Rp4350
sg18
I00
sg19
g810
ssg808
(dp4351
g3
g4
((lp4352
g802
ag806
ag884
ag1960
ag812
ag578
ag1962
ag949
ag807
ag935
ag1587
ag487
atp4353
Rp4354
sg18
I00
sg19
g808
ssS'ohm'
p4355
(dp4356
g3
g4
((lp4357
g2606
ag732
atp4358
Rp4359
sg18
I00
sg19
g4355
ssg2606
(dp4360
g3
g4
((lp4361
g2605
ag4355
ag2592
ag1218
ag2607
ag732
atp4362
Rp4363
sg18
I00
sg19
g2606
ssg214
(dp4364
g3
g4
((lp4365
g1111
ag1539
ag493
ag525
ag546
ag494
ag71
ag1161
ag613
ag1604
ag496
ag497
ag498
ag499
ag34
ag492
ag500
ag414
ag501
ag218
ag502
ag220
ag503
ag504
ag1603
ag472
ag506
atp4366
Rp4367
sg18
I00
sg19
g214
ssg1111
(dp4368
g3
g4
((lp4369
g1108
ag214
ag1604
ag1539
ag525
ag546
ag1603
ag71
ag1728
ag1161
ag613
ag40
atp4370
Rp4371
sg18
I00
sg19
g1111
ssg1539
(dp4372
g3
g4
((lp4373
g1488
ag1161
ag214
ag1111
ag1633
ag525
ag1603
ag1540
ag71
ag546
ag613
ag1604
ag1541
atp4374
Rp4375
sg18
I00
sg19
g1539
ssg525
(dp4376
g3
g4
((lp4377
g526
ag1603
ag214
ag252
ag477
ag1192
ag1539
ag546
ag1111
ag528
ag529
ag530
ag531
ag71
ag36
ag1161
ag613
ag1604
atp4378
Rp4379
sg18
I00
sg19
g525
ssg540
(dp4380
g3
g4
((lp4381
g1095
ag1096
ag442
ag505
ag941
ag1352
ag475
ag2653
ag478
ag110
ag761
ag439
ag1099
ag1097
ag1913
ag1043
ag541
ag1098
ag177
ag620
ag1013
atp4382
Rp4383
sg18
I00
sg19
g540
ssg1603
(dp4384
g3
g4
((lp4385
g2570
ag1487
ag1005
ag214
ag320
ag1111
ag317
ag1539
ag525
ag546
ag1703
ag1702
ag71
ag1161
ag613
ag1604
atp4386
Rp4387
sg18
I00
sg19
g1603
ssg1206
(dp4388
g3
g4
((lp4389
g1203
ag1207
ag1208
atp4390
Rp4391
sg18
I00
sg19
g1206
ssg2585
(dp4392
g3
g4
((lp4393
g1924
ag1554
ag2586
atp4394
Rp4395
sg18
I00
sg19
g2585
ssg621
(dp4396
g3
g4
((lp4397
g602
ag611
ag390
ag612
ag616
ag144
ag614
ag615
ag617
ag484
ag619
ag613
ag618
atp4398
Rp4399
sg18
I00
sg19
g621
ssg2586
(dp4400
g3
g4
((lp4401
g2585
ag2966
ag3028
ag1554
atp4402
Rp4403
sg18
I00
sg19
g2586
ssg71
(dp4404
g3
g4
((lp4405
g214
ag1111
ag1539
ag525
ag72
ag546
ag1603
ag1161
ag613
ag1604
ag68
ag640
ag636
ag637
ag29
ag643
ag645
ag587
ag635
ag642
ag644
ag74
ag638
ag485
atp4406
Rp4407
sg18
I00
sg19
g71
ssg1161
(dp4408
g3
g4
((lp4409
g214
ag1111
ag1539
ag525
ag546
ag1603
ag1112
ag1104
ag71
ag39
ag613
ag1604
ag1155
ag375
ag1157
ag1159
ag1158
ag1160
ag1156
ag1045
ag664
ag831
atp4410
Rp4411
sg18
I00
sg19
g1161
ssg613
(dp4412
g3
g4
((lp4413
g214
ag1111
ag846
ag1539
ag525
ag546
ag1603
ag617
ag621
ag71
ag1161
ag1604
ag602
ag389
ag390
ag612
ag27
ag615
ag611
ag614
ag604
ag619
ag618
ag1146
ag144
ag616
ag484
atp4414
Rp4415
sg18
I00
sg19
g613
ssg1604
(dp4416
g3
g4
((lp4417
g214
ag1111
ag1539
ag525
ag546
ag1603
ag71
ag1161
ag613
atp4418
Rp4419
sg18
I00
sg19
g1604
ssg732
(dp4420
g3
g4
((lp4421
g4355
ag2606
ag654
ag727
ag723
ag55
ag729
ag730
atp4422
Rp4423
sg18
I00
sg19
g732
ssg690
(dp4424
g3
g4
((lp4425
g691
ag435
ag563
ag865
ag568
ag822
ag866
ag687
ag694
ag676
ag291
ag696
ag692
ag684
ag341
ag698
ag699
atp4426
Rp4427
sg18
I00
sg19
g690
ssg2329
(dp4428
g3
g4
((lp4429
g1521
ag392
ag1883
ag359
atp4430
Rp4431
sg18
I00
sg19
g2329
ssg1830
(dp4432
g3
g4
((lp4433
g1827
ag475
ag1086
ag931
ag1921
ag948
ag1831
ag175
ag1926
atp4434
Rp4435
sg18
I00
sg19
g1830
ssg435
(dp4436
g3
g4
((lp4437
g690
ag432
ag1096
ag442
ag865
ag437
ag433
ag443
ag434
ag438
ag436
ag676
ag447
ag444
ag445
ag441
ag341
ag328
atp4438
Rp4439
sg18
I00
sg19
g435
ssg865
(dp4440
g3
g4
((lp4441
g690
ag435
ag900
ag693
ag254
ag1282
ag809
ag747
ag676
ag1442
ag1443
ag341
atp4442
Rp4443
sg18
I00
sg19
g865
ssg616
(dp4444
g3
g4
((lp4445
g386
ag617
ag621
ag613
ag615
ag602
ag390
ag612
ag638
ag843
ag1157
ag827
ag499
ag528
ag1541
ag611
ag599
ag614
ag619
ag618
ag144
ag484
atp4446
Rp4447
sg18
I00
sg19
g616
ssS'oxy'
p4448
(dp4449
g3
g4
((lp4450
tp4451
Rp4452
sg18
I00
sg19
g4448
ssg1086
(dp4453
g3
g4
((lp4454
g512
ag1085
ag1083
ag1921
ag1087
ag271
ag109
ag1830
ag1090
ag175
ag1084
ag1011
ag1926
ag741
ag1089
atp4455
Rp4456
sg18
I00
sg19
g1086
ssg1883
(dp4457
g3
g4
((lp4458
g2329
ag392
ag359
ag1884
ag1824
atp4459
Rp4460
sg18
I00
sg19
g1883
ssg1157
(dp4461
g3
g4
((lp4462
g1155
ag1156
ag371
ag616
ag638
ag831
ag827
ag1112
ag499
ag1159
ag1104
ag1158
ag528
ag1160
ag1161
ag1045
ag1541
atp4463
Rp4464
sg18
I00
sg19
g1157
ssg827
(dp4465
g3
g4
((lp4466
g828
ag829
ag830
ag616
ag638
ag1157
ag12
ag499
ag528
ag833
ag1541
atp4467
Rp4468
sg18
I00
sg19
g827
ssg676
(dp4469
g3
g4
((lp4470
g690
ag678
ag672
ag670
ag435
ag865
ag667
ag675
ag679
ag68
ag641
ag671
ag591
ag644
ag341
ag680
ag673
ag677
atp4471
Rp4472
sg18
I00
sg19
g676
ssg392
(dp4473
g3
g4
((lp4474
g386
ag387
ag388
ag2329
ag389
ag1883
ag359
ag606
ag394
ag194
ag1137
ag395
ag53
ag396
ag319
ag849
ag397
ag398
ag391
ag399
ag393
ag400
ag1275
atp4475
Rp4476
sg18
I00
sg19
g392
ssg359
(dp4477
g3
g4
((lp4478
g2329
ag134
ag353
ag364
ag352
ag315
ag365
ag1883
ag356
ag360
ag357
ag392
ag1971
ag362
ag358
ag363
atp4479
Rp4480
sg18
I00
sg19
g359
ssg175
(dp4481
g3
g4
((lp4482
g1921
ag1830
ag166
ag169
ag28
ag164
ag1086
ag168
ag165
ag170
ag171
ag172
ag173
ag174
ag714
ag1926
ag176
ag177
ag41
ag114
atp4483
Rp4484
sg18
I00
sg19
g175
ssg528
(dp4485
g3
g4
((lp4486
g526
ag499
ag252
ag616
ag477
ag748
ag638
ag255
ag525
ag827
ag747
ag529
ag530
ag531
ag749
ag1157
ag104
ag1541
atp4487
Rp4488
sg18
I00
sg19
g528
ssg1926
(dp4489
g3
g4
((lp4490
g1921
ag1830
ag1232
ag1086
ag1968
ag175
atp4491
Rp4492
sg18
I00
sg19
g1926
ssg341
(dp4493
g3
g4
((lp4494
g690
ag345
ag304
ag336
ag435
ag269
ag337
ag342
ag338
ag865
ag334
ag346
ag347
ag676
ag343
ag340
ag344
ag339
ag335
atp4495
Rp4496
sg18
I00
sg19
g341
ssg1541
(dp4497
g3
g4
((lp4498
g827
ag616
ag1539
ag638
ag1157
ag1488
ag499
ag1540
ag528
atp4499
Rp4500
sg18
I00
sg19
g1541
ssg927
(dp4501
g3
g4
((lp4502
g386
ag1115
ag1118
ag715
ag670
ag352
ag371
ag929
ag327
ag454
ag747
ag447
ag696
ag411
ag1119
ag1121
ag930
ag931
ag933
ag1831
ag936
ag928
ag483
ag932
ag683
atp4503
Rp4504
sg18
I00
sg19
g927
ssg230
(dp4505
g3
g4
((lp4506
g228
ag421
ag229
ag70
ag232
ag422
ag188
ag231
ag295
ag423
ag323
ag425
ag233
ag418
ag189
ag426
ag427
ag118
atp4507
Rp4508
sg18
I00
sg19
g230
ssg1854
(dp4509
g3
g4
((lp4510
g878
ag651
atp4511
Rp4512
sg18
I00
sg19
g1854
ssg1023
(dp4513
g3
g4
((lp4514
g681
ag589
ag355
ag1232
ag1006
ag1025
ag1022
ag318
ag274
ag72
ag1024
ag111
ag1027
ag439
ag889
ag294
ag1026
ag412
ag1268
atp4515
Rp4516
sg18
I00
sg19
g1023
ssg875
(dp4517
g3
g4
((lp4518
g876
ag90
ag127
ag799
ag877
ag1687
ag878
atp4519
Rp4520
sg18
I00
sg19
g875
ssg90
(dp4521
g3
g4
((lp4522
g875
ag86
ag87
ag88
ag89
ag9
ag127
ag59
ag91
ag92
ag93
ag94
atp4523
Rp4524
sg18
I00
sg19
g90
ssg172
(dp4525
g3
g4
((lp4526
g106
ag720
ag166
ag169
ag28
ag1132
ag168
ag165
ag170
ag171
ag173
ag174
ag164
ag175
ag176
ag234
ag177
ag114
atp4527
Rp4528
sg18
I00
sg19
g172
ssg1383
(dp4529
g3
g4
((lp4530
g1921
ag505
ag1132
ag1568
ag1924
ag1127
ag707
ag1925
ag1304
ag412
ag905
atp4531
Rp4532
sg18
I00
sg19
g1383
ssg127
(dp4533
g3
g4
((lp4534
g875
ag123
ag124
ag125
ag126
ag90
ag11
ag129
ag128
atp4535
Rp4536
sg18
I00
sg19
g127
ssg504
(dp4537
g3
g4
((lp4538
g587
ag214
ag492
ag493
ag494
ag496
ag497
ag498
ag499
ag500
ag217
ag414
ag501
ag502
ag1156
ag611
ag1948
ag1540
ag517
ag530
ag486
ag472
ag506
ag503
atp4539
Rp4540
sg18
I00
sg19
g504
ssg421
(dp4541
g3
g4
((lp4542
g230
ag1324
ag727
ag70
ag775
ag422
ag188
ag39
ag423
ag376
ag425
ag295
ag418
ag1323
ag426
ag427
ag118
atp4543
Rp4544
sg18
I00
sg19
g421
ss.